 ac_server

 Timestamp is 6992f191 (Mon Feb 16 10:29:37 2026)

 Preferred load address is 00400000

 Start         Length     Name                   Class
 0001:00000000 00005750H .text                   CODE
 0001:00005750 00001790H .text$di                CODE
 0001:00006ee0 000616f0H .text$mn                CODE
 0001:000685d0 00000200H .text$x                 CODE
 0001:000687d0 00000bb0H .text$yd                CODE
 0002:00000000 000002d4H .idata$5                DATA
 0002:000002d4 00000008H .00cfg                  DATA
 0002:000002dc 00000004H .CRT$XCA                DATA
 0002:000002e0 00000004H .CRT$XCAA               DATA
 0002:000002e4 0000000cH .CRT$XCC                DATA
 0002:000002f0 00000008H .CRT$XCL                DATA
 0002:000002f8 00000120H .CRT$XCU                DATA
 0002:00000418 00000004H .CRT$XCZ                DATA
 0002:0000041c 00000004H .CRT$XIA                DATA
 0002:00000420 00000004H .CRT$XIAA               DATA
 0002:00000424 00000004H .CRT$XIAC               DATA
 0002:00000428 00000014H .CRT$XIC                DATA
 0002:0000043c 00000004H .CRT$XIZ                DATA
 0002:00000440 00000004H .CRT$XLA                DATA
 0002:00000444 00000004H .CRT$XLZ                DATA
 0002:00000448 00000004H .CRT$XPA                DATA
 0002:0000044c 00000008H .CRT$XPX                DATA
 0002:00000454 00000004H .CRT$XPXA               DATA
 0002:00000458 00000004H .CRT$XPZ                DATA
 0002:0000045c 00000004H .CRT$XTA                DATA
 0002:00000460 00000020H .CRT$XTZ                DATA
 0002:00000464 00000000H .gfids$y                DATA
 0002:00000480 0002bd80H .rdata                  DATA
 0002:0002c200 00000000H .rdata$CastGuardVftablesA DATA
 0002:0002c200 00000000H .rdata$CastGuardVftablesC DATA
 0002:0002c200 00000018H .rdata$T                DATA
 0002:0002c218 00001368H .rdata$r                DATA
 0002:0002d580 000000d0H .rdata$voltmd           DATA
 0002:0002d650 0000008cH .rdata$zzz              DATA
 0002:0002d6dc 00000494H .rdata$zzzdbg           DATA
 0002:0002db70 00000004H .rtc$IAA                DATA
 0002:0002db74 00000004H .rtc$IZZ                DATA
 0002:0002db78 00000004H .rtc$TAA                DATA
 0002:0002db7c 00000004H .rtc$TZZ                DATA
 0002:0002db80 00000004H .tls                    DATA
 0002:0002db84 00000004H .tls$                   DATA
 0002:0002db88 00000008H .tls$ZZZ                DATA
 0002:0002db90 00000d7cH .xdata$x                DATA
 0002:0002e90c 00000000H .edata                  DATA
 0002:0002e90c 000000a0H .idata$2                DATA
 0002:0002e9ac 00000014H .idata$3                DATA
 0002:0002e9c0 000002d4H .idata$4                DATA
 0002:0002ec94 00000b52H .idata$6                DATA
 0003:00000000 00004490H .data                   DATA
 0003:00004490 00000180H .data$r                 DATA
 0003:00004610 00000730H .data$rs                DATA
 0003:00004d40 0000ff60H .bss                    DATA
 0004:00000000 00000080H .fptable                DATA
 0005:00000000 000001c0H .rsrc$01                DATA
 0005:000001c0 00010ce8H .rsrc$02                DATA

  Address         Publics by Value              Rva+Base       Lib:Object

 0000:00000000       ___AbsoluteZero            00000000     <absolute>
 0000:00000000       ___arm64x_extra_rfe_table  00000000     <absolute>
 0000:00000000       ___arm64x_extra_rfe_table_size 00000000     <absolute>
 0000:00000000       ___arm64x_native_entrypoint 00000000     <absolute>
 0000:00000000       ___arm64x_redirection_metadata 00000000     <absolute>
 0000:00000000       ___arm64x_redirection_metadata_count 00000000     <absolute>
 0000:00000000       ___dynamic_value_reloc_table 00000000     <absolute>
 0000:00000000       ___enclave_config          00000000     <absolute>
 0000:00000000       ___guard_check_icall_a64n_fptr 00000000     <absolute>
 0000:00000000       ___guard_eh_cont_count     00000000     <absolute>
 0000:00000000       ___guard_eh_cont_table     00000000     <absolute>
 0000:00000000       ___guard_fids_count        00000000     <absolute>
 0000:00000000       ___guard_fids_table        00000000     <absolute>
 0000:00000000       ___guard_iat_count         00000000     <absolute>
 0000:00000000       ___guard_iat_table         00000000     <absolute>
 0000:00000000       ___guard_longjmp_count     00000000     <absolute>
 0000:00000000       ___guard_longjmp_table     00000000     <absolute>
 0000:00000000       ___hybrid_auxiliary_delayload_iat 00000000     <absolute>
 0000:00000000       ___hybrid_auxiliary_delayload_iat_copy 00000000     <absolute>
 0000:00000000       ___hybrid_auxiliary_iat    00000000     <absolute>
 0000:00000000       ___hybrid_auxiliary_iat_copy 00000000     <absolute>
 0000:00000000       ___hybrid_code_map         00000000     <absolute>
 0000:00000000       ___hybrid_code_map_count   00000000     <absolute>
 0000:00000000       ___hybrid_image_info_bitfield 00000000     <absolute>
 0000:00000000       ___safe_se_handler_count   00000000     <absolute>
 0000:00000000       ___safe_se_handler_table   00000000     <absolute>
 0000:00000000       ___x64_code_ranges_to_entry_points 00000000     <absolute>
 0000:00000000       ___x64_code_ranges_to_entry_points_count 00000000     <absolute>
 0000:00000000       __except_list              00000000     <absolute>
 0000:0000002c       __tls_array                0000002c     <absolute>
 0000:00000100       ___guard_flags             00000100     <absolute>
 0000:00000000       ___ImageBase               00400000     <linker-defined>
 0001:00000000       _enet_initialize           00401000 f   enet:win32.o
 0001:00000070       _enet_deinitialize         00401070 f   enet:win32.o
 0001:00000090       _enet_time_get             00401090 f   enet:win32.o
 0001:000000b0       _enet_time_set             004010b0 f   enet:win32.o
 0001:000000d0       _enet_address_set_host     004010d0 f   enet:win32.o
 0001:00000130       _enet_address_get_host_ip  00401130 f   enet:win32.o
 0001:00000180       _enet_address_get_host     00401180 f   enet:win32.o
 0001:00000200       _enet_socket_bind          00401200 f   enet:win32.o
 0001:00000280       _enet_socket_listen        00401280 f   enet:win32.o
 0001:000002c0       _enet_socket_create        004012c0 f   enet:win32.o
 0001:000002f0       _enet_socket_set_option    004012f0 f   enet:win32.o
 0001:00000440       _enet_socket_connect       00401440 f   enet:win32.o
 0001:000004e0       _enet_socket_accept        004014e0 f   enet:win32.o
 0001:00000570       _enet_socket_shutdown      00401570 f   enet:win32.o
 0001:000005a0       _enet_socket_destroy       004015a0 f   enet:win32.o
 0001:000005c0       _enet_socket_send          004015c0 f   enet:win32.o
 0001:000006a0       _enet_socket_receive       004016a0 f   enet:win32.o
 0001:00000790       _enet_socketset_select     00401790 f   enet:win32.o
 0001:000007f0       _enet_socket_wait          004017f0 f   enet:win32.o
 0001:000009c0       _enet_peer_throttle        004019c0 f   enet:peer.o
 0001:00000a40       _enet_peer_receive         00401a40 f   enet:peer.o
 0001:00000aa0       _enet_peer_reset_queues    00401aa0 f   enet:peer.o
 0001:00000ba0       _enet_peer_reset           00401ba0 f   enet:peer.o
 0001:00000d40       _enet_peer_ping_interval   00401d40 f   enet:peer.o
 0001:00000d60       _enet_peer_timeout         00401d60 f   enet:peer.o
 0001:00000db0       _enet_peer_queue_acknowledgement 00401db0 f   enet:peer.o
 0001:00000e90       _enet_peer_setup_outgoing_command 00401e90 f   enet:peer.o
 0001:00001010       _enet_peer_queue_outgoing_command 00402010 f   enet:peer.o
 0001:000010c0       _enet_peer_throttle_configure 004020c0 f   enet:peer.o
 0001:00001150       _enet_peer_send            00402150 f   enet:peer.o
 0001:00001460       _enet_peer_ping            00402460 f   enet:peer.o
 0001:000014b0       _enet_peer_disconnect_now  004024b0 f   enet:peer.o
 0001:00001530       _enet_peer_disconnect      00402530 f   enet:peer.o
 0001:000015f0       _enet_peer_disconnect_later 004025f0 f   enet:peer.o
 0001:00001650       _enet_peer_dispatch_incoming_unreliable_commands 00402650 f   enet:peer.o
 0001:00001890       _enet_peer_dispatch_incoming_reliable_commands 00402890 f   enet:peer.o
 0001:00001990       _enet_peer_queue_incoming_command 00402990 f   enet:peer.o
 0001:00002e90       _enet_protocol_command_size 00403e90 f   enet:protocol.o
 0001:00002ea0       _enet_host_flush           00403ea0 f   enet:protocol.o
 0001:00002ec0       _enet_host_check_events    00403ec0 f   enet:protocol.o
 0001:00002ef0       _enet_host_service         00403ef0 f   enet:protocol.o
 0001:000048b0       _enet_packet_create        004058b0 f   enet:packet.o
 0001:00004950       _enet_packet_destroy       00405950 f   enet:packet.o
 0001:000049a0       _enet_packet_resize        004059a0 f   enet:packet.o
 0001:00004a00       _enet_crc32                00405a00 f   enet:packet.o
 0001:00004a80       _enet_crc32_inc            00405a80 f   enet:packet.o
 0001:00004ab0       _enet_host_create          00405ab0 f   enet:host.o
 0001:00004e30       _enet_host_destroy         00405e30 f   enet:host.o
 0001:00004ec0       _enet_host_connect         00405ec0 f   enet:host.o
 0001:00005150       _enet_host_broadcast       00406150 f   enet:host.o
 0001:000051d0       _enet_host_compress        004061d0 f   enet:host.o
 0001:00005240       _enet_host_channel_limit   00406240 f   enet:host.o
 0001:00005260       _enet_host_bandwidth_limit 00406260 f   enet:host.o
 0001:00005280       _enet_host_bandwidth_throttle 00406280 f   enet:host.o
 0001:00005610       _enet_initialize_with_callbacks 00406610 f   enet:callbacks.o
 0001:00005660       _enet_malloc               00406660 f   enet:callbacks.o
 0001:000056a0       _enet_free                 004066a0 f   enet:callbacks.o
 0001:000056b0       _enet_list_clear           004066b0 f   enet:list.o
 0001:000056c0       _enet_list_insert          004066c0 f   enet:list.o
 0001:000056e0       _enet_list_remove          004066e0 f   enet:list.o
 0001:00005700       _enet_list_move            00406700 f   enet:list.o
 0001:00005730       _enet_list_size            00406730 f   enet:list.o
 0001:00006ee0       ??0exception@std@@QAE@ABV01@@Z 00407ee0 f i encryption.obj
 0001:00006f10       ?what@exception@std@@UBEPBDXZ 00407f10 f i encryption.obj
 0001:00006f20       ??_Ebad_alloc@std@@UAEPAXI@Z 00407f20 f i * CIL library *:* CIL module *
 0001:00006f20       ??_Ebad_array_new_length@std@@UAEPAXI@Z 00407f20 f i * CIL library *:* CIL module *
 0001:00006f20       ??_Ebad_cast@std@@UAEPAXI@Z 00407f20 f i * CIL library *:* CIL module *
 0001:00006f20       ??_Eexception@std@@UAEPAXI@Z 00407f20 f i * CIL library *:* CIL module *
 0001:00006f20       ??_Eruntime_error@std@@UAEPAXI@Z 00407f20 f i * CIL library *:* CIL module *
 0001:00006f20       ??_Gbad_alloc@std@@UAEPAXI@Z 00407f20 f i encryption.obj
 0001:00006f20       ??_Gbad_array_new_length@std@@UAEPAXI@Z 00407f20 f i encryption.obj
 0001:00006f20       ??_Gbad_cast@std@@UAEPAXI@Z 00407f20 f i server.obj
 0001:00006f20       ??_Gexception@std@@UAEPAXI@Z 00407f20 f i encryption.obj
 0001:00006f20       ??_Gruntime_error@std@@UAEPAXI@Z 00407f20 f i server.obj
 0001:00006f50       ??1bad_alloc@std@@UAE@XZ   00407f50 f i encryption.obj
 0001:00006f50       ??1bad_array_new_length@std@@UAE@XZ 00407f50 f i encryption.obj
 0001:00006f50       ??1bad_cast@std@@UAE@XZ    00407f50 f i server.obj
 0001:00006f50       ??1bad_exception@std@@UAE@XZ 00407f50 f i libvcruntime:frame.obj
 0001:00006f50       ??1failure@ios_base@std@@UAE@XZ 00407f50 f i server.obj
 0001:00006f50       ??1length_error@std@@UAE@XZ 00407f50 f i libcpmt:xthrow.obj
 0001:00006f50       ??1out_of_range@std@@UAE@XZ 00407f50 f i libcpmt:xthrow.obj
 0001:00006f50       ??1runtime_error@std@@UAE@XZ 00407f50 f i server.obj
 0001:00006f70       ??0bad_array_new_length@std@@QAE@XZ 00407f70 f i encryption.obj
 0001:00006f90       ?_Throw_bad_array_new_length@std@@YAXXZ 00407f90 f i encryption.obj
 0001:00006fb0       ??0bad_array_new_length@std@@QAE@ABV01@@Z 00407fb0 f i encryption.obj
 0001:00006fe0       ??0bad_alloc@std@@QAE@ABV01@@Z 00407fe0 f i encryption.obj
 0001:00007010       ?_Xlen_string@std@@YAXXZ   00408010 f i encryption.obj
 0001:00007020       ??1?$basic_string@DU?$char_traits@D@std@@V?$allocator@D@2@@std@@QAE@XZ 00408020 f i encryption.obj
 0001:00007070       ??0?$basic_string@DU?$char_traits@D@std@@V?$allocator@D@2@@std@@QAE@$$QAV01@@Z 00408070 f i encryption.obj
 0001:000070b0       ??0?$basic_string@DU?$char_traits@D@std@@V?$allocator@D@2@@std@@QAE@ABV01@@Z 004080b0 f i encryption.obj
 0001:00007160       ??$_Allocate_for_capacity@$0A@@?$basic_string@DU?$char_traits@D@std@@V?$allocator@D@2@@std@@CAPADAAV?$allocator@D@1@AAI@Z 00408160 f i encryption.obj
 0001:000071c0       ??$_Allocate_at_least_helper@V?$allocator@D@std@@@std@@YAPADAAV?$allocator@D@0@AAI@Z 004081c0 f i encryption.obj
 0001:00007210       ?deallocate@?$allocator@D@std@@QAEXQADI@Z 00408210 f i encryption.obj
 0001:00007250       ?substr@?$basic_string@DU?$char_traits@D@std@@V?$allocator@D@2@@std@@QBE?AV12@II@Z 00408250 f i netutil.obj
 0001:000072a0       ??0?$basic_string@DU?$char_traits@D@std@@V?$allocator@D@2@@std@@QAE@ID@Z 004082a0 f i netutil.obj
 0001:00007350       ??0?$basic_string@DU?$char_traits@D@std@@V?$allocator@D@2@@std@@QAE@QBD@Z 00408350 f i netutil.obj
 0001:00007390       ??$_Append@D@?$basic_string@DU?$char_traits@D@std@@V?$allocator@D@2@@std@@AAEAAV01@QBDI@Z 00408390 f i netutil.obj
 0001:000074f0       ??$_Construct@$00PBD@?$basic_string@DU?$char_traits@D@std@@V?$allocator@D@2@@std@@AAEXQBDI@Z 004084f0 f i netutil.obj
 0001:00007580       ?assign@?$basic_string@DU?$char_traits@D@std@@V?$allocator@D@2@@std@@QAEAAV12@QBDI@Z 00408580 f i netutil.obj
 0001:00007670       ??$_Traits_equal@U?$char_traits@D@std@@@std@@YA_NQBDI0I@Z 00408670 f i netutil.obj
 0001:000076f0       ??$_Insert@D@?$basic_string@DU?$char_traits@D@std@@V?$allocator@D@2@@std@@AAEAAV01@IQBDI@Z 004086f0 f i netutil.obj
 0001:00007880       ?_Xran@?$_String_val@U?$_Simple_types@D@std@@@std@@SAXXZ 00408880 f i netutil.obj
 0001:00007890       ___local_stdio_printf_options 00408890 f i server.obj
 0001:000078a0       ___local_stdio_scanf_options 004088a0 f i server.obj
 0001:000078b0       __vfprintf_l               004088b0 f i server.obj
 0001:000078e0       _printf                    004088e0 f i server.obj
 0001:00007910       __vsnprintf_l              00408910 f i server.obj
 0001:00007950       _sprintf_s                 00408950 f i server.obj
 0001:00007990       _sscanf                    00408990 f i server.obj
 0001:000079c0       ?vformatstring_@@YAXPADPBD0H@Z 004089c0 f i server.obj
 0001:000079e0       ?concatstring@@YAPADPADPBDI@Z 004089e0 f i server.obj
 0001:00007a20       ??0stringformatter@@QAE@PAD@Z 00408a20 f i server.obj
 0001:00007a30       ??Rstringformatter@@QAAXPBDZZ 00408a30 f i server.obj
 0001:00007a60       ??0packetbuf@@QAE@HH@Z     00408a60 f i server.obj
 0001:00007ab0       ??1packetbuf@@QAE@XZ       00408ab0 f i server.obj
 0001:00007af0       ?put@packetbuf@@QAEXPBEH@Z 00408af0 f i server.obj
 0001:00007b70       ?finalize@packetbuf@@QAEPAU_ENetPacket@@XZ 00408b70 f i server.obj
 0001:00007ba0       ?pickup@playerstate@@QAEXH@Z 00408ba0 f i server.obj
 0001:00007ca0       ?spawnstate@playerstate@@UAEXH@Z 00408ca0 f i server.obj
 0001:00007dc0       ??_Eplayerstate@@UAEPAXI@Z 00408dc0 f i * CIL library *:* CIL module *
 0001:00007dc0       ??_Gplayerstate@@UAEPAXI@Z 00408dc0 f i server.obj
 0001:00007df0       ??0exception@std@@QAE@QBD@Z 00408df0 f i server.obj
 0001:00007e30       ??0serverconfigfile@@QAE@XZ 00408e30 f i server.obj
 0001:00007e90       ??1serverconfigfile@@UAE@XZ 00408e90 f i server.obj
 0001:00007ed0       ?_Lock@?$basic_streambuf@DU?$char_traits@D@std@@@std@@UAEXXZ 00408ed0 f i server.obj
 0001:00007ed0       ?_Unlock@?$basic_streambuf@DU?$char_traits@D@std@@@std@@UAEXXZ 00408ed0 f i server.obj
 0001:00007ed0       ?clear@serverconfigfile@@UAEXXZ 00408ed0 f i server.obj
 0001:00007ed0       ?fflush@stream@@UAEXXZ     00408ed0 f i stream.obj
 0001:00007ed0       ?perform@recorddemoaction@@UAEXXZ 00408ed0 f i server.obj
 0001:00007ed0       ?read@serverconfigfile@@UAEXXZ 00408ed0 f i server.obj
 0001:00007ed0       @_guard_check_icall_nop@4  00408ed0 f i LIBCMT:guard_support.obj
 0001:00007ed0       __initialize_denormal_control 00408ed0 f i LIBCMT:denormal_control.obj
 0001:00007ed0       __initialize_invalid_parameter_handler 00408ed0 f i LIBCMT:invalid_parameter_handler.obj
 0001:00007ee0       ??_Eserverconfigfile@@UAEPAXI@Z 00408ee0 f i * CIL library *:* CIL module *
 0001:00007ee0       ??_Eserverparameter@@UAEPAXI@Z 00408ee0 f i * CIL library *:* CIL module *
 0001:00007ee0       ??_Gserverconfigfile@@UAEPAXI@Z 00408ee0 f i server.obj
 0001:00007ee0       ??_Gserverparameter@@UAEPAXI@Z 00408ee0 f i server.obj
 0001:00007f40       ?checkarg@servercommandline@@QAE_NPBD@Z 00408f40 f i server.obj
 0001:00008b10       ?isalive@clientstate@@QAE_NH@Z 00409b10 f i server.obj
 0001:00008b40       ?respawn@clientstate@@QAEXXZ 00409b40 f i server.obj
 0001:00008c70       ??_Eclientstate@@UAEPAXI@Z 00409c70 f i * CIL library *:* CIL module *
 0001:00008c70       ??_Gclientstate@@UAEPAXI@Z 00409c70 f i server.obj
 0001:00008ca0       ?save@savedscore@@QAEXAAUclientstate@@H@Z 00409ca0 f i server.obj
 0001:00008d30       ?addevent@client@@QAEAATgameevent@@XZ 00409d30 f i server.obj
 0001:00008de0       ?mapchange@client@@QAEX_N@Z 00409de0 f i server.obj
 0001:00008fa0       ?reset@client@@QAEXXZ      00409fa0 f i server.obj
 0001:00009110       ?checkvitadate@client@@QAE_NH@Z 0040a110 f i server.obj
 0001:00009140       ??_Eservercontroller@@UAEPAXI@Z 0040a140 f i * CIL library *:* CIL module *
 0001:00009140       ??_Gservercontroller@@UAEPAXI@Z 0040a140 f i server.obj
 0001:00009170       ??0winservice@@QAE@PBDHPAPAD@Z 0040a170 f i server.obj
 0001:000091a0       ?start@winservice@@UAEXXZ  0040a1a0 f i server.obj
 0001:000091f0       ?keepalive@winservice@@UAEXXZ 0040a1f0 f i server.obj
 0001:00009250       ?stop@winservice@@UAEXXZ   0040a250 f i server.obj
 0001:000092d0       ?main@callbacks@winservice@@SGHXZ 0040a2d0 f i server.obj
 0001:00009450       ?requesthandler@callbacks@winservice@@SGXK@Z 0040a450 f i server.obj
 0001:000094f0       ??_Ewinservice@@UAEPAXI@Z  0040a4f0 f i * CIL library *:* CIL module *
 0001:000094f0       ??_Gwinservice@@UAEPAXI@Z  0040a4f0 f i server.obj
 0001:000095a0       ??0servermap@@QAE@PBD0@Z   0040a5a0 f i server.obj
 0001:00009600       ?load@servermap@@QAEXXZ    0040a600 f i server.obj
 0001:0000a850       ?clear@servermaprot@@UAEXXZ 0040b850 f i server.obj
 0001:0000a8b0       ?load@servermaprot@@UAE_NXZ 0040b8b0 f i server.obj
 0001:0000ad80       ?read@servermaprot@@UAEXXZ 0040bd80 f i server.obj
 0001:0000aed0       ?initmap@servermaprot@@QAEXPAUservermap@@PAUstream@@@Z 0040bed0 f i server.obj
 0001:0000b4a0       ??_Eservermaprot@@UAEPAXI@Z 0040c4a0 f i * CIL library *:* CIL module *
 0001:0000b4a0       ??_Gservermaprot@@UAEPAXI@Z 0040c4a0 f i server.obj
 0001:0000b4d0       ??1servermaprot@@UAE@XZ    0040c4d0 f i server.obj
 0001:0000b560       ?clear@serverinfofile@@UAEXXZ 0040c560 f i server.obj
 0001:0000b560       ?clear@serveripblacklist@@UAEXXZ 0040c560 f i server.obj
 0001:0000b560       ?clear@serveripcclist@@UAEXXZ 0040c560 f i server.obj
 0001:0000b580       ?read@serveripcclist@@UAEXXZ 0040c580 f i server.obj
 0001:0000bb10       ?read@serveripblacklist@@UAEXXZ 0040cb10 f i server.obj
 0001:0000bec0       ?check@serveripblacklist@@QAE_NI@Z 0040cec0 f i server.obj
 0001:0000bf10       ?clear@servernickblacklist@@UAEXXZ 0040cf10 f i server.obj
 0001:0000bfd0       ?read@servernickblacklist@@UAEXXZ 0040cfd0 f i server.obj
 0001:0000ca80       ?checkwhitelist@servernickblacklist@@QAEHABUclient@@@Z 0040da80 f i server.obj
 0001:0000cbe0       ?checkblacklist@servernickblacklist@@QAEHPBD@Z 0040dbe0 f i server.obj
 0001:0000cd30       ?clear@serverforbiddenlist@@UAEXXZ 0040dd30 f i server.obj
 0001:0000cd60       ?read@serverforbiddenlist@@UAEXXZ 0040dd60 f i server.obj
 0001:0000ce90       ?canspeech@serverforbiddenlist@@QAE_NPAD@Z 0040de90 f i server.obj
 0001:0000d020       ?clear@serverpasswords@@UAEXXZ 0040e020 f i server.obj
 0001:0000d040       ?read@serverpasswords@@UAEXXZ 0040e040 f i server.obj
 0001:0000d2f0       ?check@serverpasswords@@QAE_NPBD0HPAUpwddetail@@I@Z 0040e2f0 f i server.obj
 0001:0000d5b0       ??_Eserverinfofile@@UAEPAXI@Z 0040e5b0 f i * CIL library *:* CIL module *
 0001:0000d5b0       ??_Eserverpasswords@@UAEPAXI@Z 0040e5b0 f i * CIL library *:* CIL module *
 0001:0000d5b0       ??_Gserverinfofile@@UAEPAXI@Z 0040e5b0 f i server.obj
 0001:0000d5b0       ??_Gserverpasswords@@UAEPAXI@Z 0040e5b0 f i server.obj
 0001:0000d5e0       ??1serverinfofile@@UAE@XZ  0040e5e0 f i server.obj
 0001:0000d5e0       ??1serveripblacklist@@UAE@XZ 0040e5e0 f i server.obj
 0001:0000d5e0       ??1serveripcclist@@UAE@XZ  0040e5e0 f i server.obj
 0001:0000d5e0       ??1serverpasswords@@UAE@XZ 0040e5e0 f i server.obj
 0001:0000d650       ?read@serverinfofile@@UAEXXZ 0040e650 f i server.obj
 0001:0000d760       ?update@servpar@@QAEXXZ    0040e760 f i server.obj
 0001:0000d870       ?nextvalue@servpar@@QAE_NPAD@Z 0040e870 f i server.obj
 0001:0000d920       ?load@serverparameter@@UAE_NXZ 0040e920 f i server.obj
 0001:0000dac0       ?read@serverparameter@@UAEXXZ 0040eac0 f i server.obj
 0001:0000dc30       ??0runtime_error@std@@QAE@ABV01@@Z 0040ec30 f i server.obj
 0001:0000dc60       ?default_error_condition@error_category@std@@UBE?AVerror_condition@2@H@Z 0040ec60 f i server.obj
 0001:0000dc70       ?equivalent@error_category@std@@UBE_NHABVerror_condition@2@@Z 0040ec70 f i server.obj
 0001:0000dcb0       ?equivalent@error_category@std@@UBE_NABVerror_code@2@H@Z 0040ecb0 f i server.obj
 0001:0000dce0       ?make_error_code@std@@YA?AVerror_code@1@W4io_errc@1@@Z 0040ece0 f i server.obj
 0001:0000dd00       ??_E_System_error@std@@UAEPAXI@Z 0040ed00 f i * CIL library *:* CIL module *
 0001:0000dd00       ??_Efailure@ios_base@std@@UAEPAXI@Z 0040ed00 f i * CIL library *:* CIL module *
 0001:0000dd00       ??_Esystem_error@std@@UAEPAXI@Z 0040ed00 f i * CIL library *:* CIL module *
 0001:0000dd00       ??_G_System_error@std@@UAEPAXI@Z 0040ed00 f i server.obj
 0001:0000dd00       ??_Gfailure@ios_base@std@@UAEPAXI@Z 0040ed00 f i server.obj
 0001:0000dd00       ??_Gsystem_error@std@@UAEPAXI@Z 0040ed00 f i server.obj
 0001:0000dd30       ??0system_error@std@@QAE@Verror_code@1@PBD@Z 0040ed30 f i server.obj
 0001:0000df10       ??0system_error@std@@QAE@ABV01@@Z 0040ef10 f i server.obj
 0001:0000df60       ??0_System_error@std@@QAE@ABV01@@Z 0040ef60 f i server.obj
 0001:0000dfa0       ?name@_Iostream_error_category2@std@@UBEPBDXZ 0040efa0 f i server.obj
 0001:0000dfb0       ?message@_Iostream_error_category2@std@@UBE?AV?$basic_string@DU?$char_traits@D@std@@V?$allocator@D@2@@2@H@Z 0040efb0 f i server.obj
 0001:0000e060       ??_E_Iostream_error_category2@std@@UAEPAXI@Z 0040f060 f i * CIL library *:* CIL module *
 0001:0000e060       ??_G_Iostream_error_category2@std@@UAEPAXI@Z 0040f060 f i server.obj
 0001:0000e080       ??0bad_cast@std@@QAE@XZ    0040f080 f i server.obj
 0001:0000e0a0       ?_Throw_bad_cast@std@@YAXXZ 0040f0a0 f i server.obj
 0001:0000e0c0       ??0bad_cast@std@@QAE@ABV01@@Z 0040f0c0 f i server.obj
 0001:0000e0f0       ??_E_Facet_base@std@@UAEPAXI@Z 0040f0f0 f i * CIL library *:* CIL module *
 0001:0000e0f0       ??_G_Facet_base@std@@UAEPAXI@Z 0040f0f0 f i server.obj
 0001:0000e120       ??1_Locinfo@std@@QAE@XZ    0040f120 f i server.obj
 0001:0000e1c0       ?_Incref@facet@locale@std@@UAEXXZ 0040f1c0 f i server.obj
 0001:0000e1d0       ?_Decref@facet@locale@std@@UAEPAV_Facet_base@3@XZ 0040f1d0 f i server.obj
 0001:0000e1f0       ??1locale@std@@QAE@XZ      0040f1f0 f i server.obj
 0001:0000e210       ?do_tolower@?$ctype@D@std@@MBEDD@Z 0040f210 f i server.obj
 0001:0000e230       ?do_tolower@?$ctype@D@std@@MBEPBDPADPBD@Z 0040f230 f i server.obj
 0001:0000e260       ?do_toupper@?$ctype@D@std@@MBEDD@Z 0040f260 f i server.obj
 0001:0000e280       ?do_toupper@?$ctype@D@std@@MBEPBDPADPBD@Z 0040f280 f i server.obj
 0001:0000e2b0       ?do_widen@?$ctype@D@std@@MBEDD@Z 0040f2b0 f i server.obj
 0001:0000e2c0       ?do_widen@?$ctype@D@std@@MBEPBDPBD0PAD@Z 0040f2c0 f i server.obj
 0001:0000e2e0       ?do_narrow@?$ctype@D@std@@MBEDDD@Z 0040f2e0 f i server.obj
 0001:0000e2f0       ?do_narrow@?$ctype@D@std@@MBEPBDPBD0DPAD@Z 0040f2f0 f i server.obj
 0001:0000e310       ??_E?$ctype@D@std@@MAEPAXI@Z 0040f310 f i * CIL library *:* CIL module *
 0001:0000e310       ??_G?$ctype@D@std@@MAEPAXI@Z 0040f310 f i server.obj
 0001:0000e360       ??0failure@ios_base@std@@QAE@PBDABVerror_code@2@@Z 0040f360 f i server.obj
 0001:0000e390       ?clear@ios_base@std@@QAEXH_N@Z 0040f390 f i server.obj
 0001:0000e410       ??0failure@ios_base@std@@QAE@ABV012@@Z 0040f410 f i server.obj
 0001:0000e460       ??_Eios_base@std@@UAEPAXI@Z 0040f460 f i * CIL library *:* CIL module *
 0001:0000e460       ??_Gios_base@std@@UAEPAXI@Z 0040f460 f i server.obj
 0001:0000e490       ??_Eserveripblacklist@@UAEPAXI@Z 0040f490 f i * CIL library *:* CIL module *
 0001:0000e490       ??_Eserveripcclist@@UAEPAXI@Z 0040f490 f i * CIL library *:* CIL module *
 0001:0000e490       ??_Gserveripblacklist@@UAEPAXI@Z 0040f490 f i server.obj
 0001:0000e490       ??_Gserveripcclist@@UAEPAXI@Z 0040f490 f i server.obj
 0001:0000e4c0       ??1servernickblacklist@@UAE@XZ 0040f4c0 f i server.obj
 0001:0000e5d0       ??_Eservernickblacklist@@UAEPAXI@Z 0040f5d0 f i * CIL library *:* CIL module *
 0001:0000e5d0       ??_Gservernickblacklist@@UAEPAXI@Z 0040f5d0 f i server.obj
 0001:0000e600       ??_Eserverforbiddenlist@@UAEPAXI@Z 0040f600 f i * CIL library *:* CIL module *
 0001:0000e600       ??_Gserverforbiddenlist@@UAEPAXI@Z 0040f600 f i server.obj
 0001:0000e660       ??_Gservermap@@QAEPAXI@Z   0040f660 f i server.obj
 0001:0000e760       ??_Gworldstate@@QAEPAXI@Z  0040f760 f i server.obj
 0001:0000e7c0       ??_G?$vector@E@@QAEPAXI@Z  0040f7c0 f i server.obj
 0001:0000e800       ?send_item_list@@YAXAAUpacketbuf@@@Z 0040f800 f i server.obj
 0001:0000e890       ?check_pdist@@YAHPAUclient@@AAM@Z 0040f890 f i server.obj
 0001:0000e8e0       ?addban@@YAXPAUclient@@HH@Z 0040f8e0 f i server.obj
 0001:0000e9f0       ?isvalid@recorddemoaction@@UAE_NXZ 0040f9f0 f i server.obj
 0001:0000e9f0       ?isvalid@serveraction@@UAE_NXZ 0040f9f0 f i server.obj
 0001:0000e9f0       ___acrt_uninitialize_command_line 0040f9f0 f i libucrt:argv_data.obj
 0001:0000e9f0       __should_initialize_environment 0040f9f0 f i LIBCMT:env_mode.obj
 0001:0000ea00       ?isdisabled@mapaction@@UAE_NXZ 0040fa00 f i server.obj
 0001:0000ea00       ?isdisabled@serveraction@@UAE_NXZ 0040fa00 f i server.obj
 0001:0000ea10       ??_Eremovebansaction@@UAEPAXI@Z 0040fa10 f i * CIL library *:* CIL module *
 0001:0000ea10       ??_Eserveraction@@UAEPAXI@Z 0040fa10 f i * CIL library *:* CIL module *
 0001:0000ea10       ??_Eshuffleteamaction@@UAEPAXI@Z 0040fa10 f i * CIL library *:* CIL module *
 0001:0000ea10       ??_Gremovebansaction@@UAEPAXI@Z 0040fa10 f i server.obj
 0001:0000ea10       ??_Gserveraction@@UAEPAXI@Z 0040fa10 f i server.obj
 0001:0000ea10       ??_Gshuffleteamaction@@UAEPAXI@Z 0040fa10 f i server.obj
 0001:0000ea40       ?perform@mapaction@@UAEXXZ 0040fa40 f i server.obj
 0001:0000eb30       ?isvalid@mapaction@@UAE_NXZ 0040fb30 f i server.obj
 0001:0000eb80       ??0mapaction@@QAE@PADHHH_N@Z 0040fb80 f i server.obj
 0001:0000f110       ??_Emapaction@@UAEPAXI@Z   00410110 f i * CIL library *:* CIL module *
 0001:0000f110       ??_Gmapaction@@UAEPAXI@Z   00410110 f i server.obj
 0001:0000f160       ?perform@demoplayaction@@UAEXXZ 00410160 f i server.obj
 0001:0000f170       ??_Edemoplayaction@@UAEPAXI@Z 00410170 f i * CIL library *:* CIL module *
 0001:0000f170       ??_Gdemoplayaction@@UAEPAXI@Z 00410170 f i server.obj
 0001:0000f1c0       ?isvalid@playeraction@@UAE_NXZ 004101c0 f i server.obj
 0001:0000f1f0       ??0playeraction@@QAE@H@Z   004101f0 f i server.obj
 0001:0000f250       ??_Egiveadminaction@@UAEPAXI@Z 00410250 f i * CIL library *:* CIL module *
 0001:0000f250       ??_Eplayeraction@@UAEPAXI@Z 00410250 f i * CIL library *:* CIL module *
 0001:0000f250       ??_Ggiveadminaction@@UAEPAXI@Z 00410250 f i server.obj
 0001:0000f250       ??_Gplayeraction@@UAEPAXI@Z 00410250 f i server.obj
 0001:0000f280       ?perform@forceteamaction@@UAEXXZ 00410280 f i server.obj
 0001:0000f2a0       ?isvalid@forceteamaction@@UAE_NXZ 004102a0 f i server.obj
 0001:0000f2e0       ??_Ebanaction@@UAEPAXI@Z   004102e0 f i * CIL library *:* CIL module *
 0001:0000f2e0       ??_Eforceteamaction@@UAEPAXI@Z 004102e0 f i * CIL library *:* CIL module *
 0001:0000f2e0       ??_Ekickaction@@UAEPAXI@Z  004102e0 f i * CIL library *:* CIL module *
 0001:0000f2e0       ??_Gbanaction@@UAEPAXI@Z   004102e0 f i server.obj
 0001:0000f2e0       ??_Gforceteamaction@@UAEPAXI@Z 004102e0 f i server.obj
 0001:0000f2e0       ??_Gkickaction@@UAEPAXI@Z  004102e0 f i server.obj
 0001:0000f310       ?perform@giveadminaction@@UAEXXZ 00410310 f i server.obj
 0001:0000f330       ?perform@kickaction@@UAEXXZ 00410330 f i server.obj
 0001:0000f390       ?isvalid@banaction@@UAE_NXZ 00410390 f i server.obj
 0001:0000f390       ?isvalid@kickaction@@UAE_NXZ 00410390 f i server.obj
 0001:0000f3d0       ?perform@banaction@@UAEXXZ 004103d0 f i server.obj
 0001:0000f430       ?perform@removebansaction@@UAEXXZ 00410430 f i server.obj
 0001:0000f450       ?perform@pauseaction@@UAEXXZ 00410450 f i server.obj
 0001:0000f4d0       ?isvalid@pauseaction@@UAE_NXZ 004104d0 f i server.obj
 0001:0000f4f0       ??_Eautoteamaction@@UAEPAXI@Z 004104f0 f i * CIL library *:* CIL module *
 0001:0000f4f0       ??_Ecleardemosaction@@UAEPAXI@Z 004104f0 f i * CIL library *:* CIL module *
 0001:0000f4f0       ??_Emastermodeaction@@UAEPAXI@Z 004104f0 f i * CIL library *:* CIL module *
 0001:0000f4f0       ??_Epauseaction@@UAEPAXI@Z 004104f0 f i * CIL library *:* CIL module *
 0001:0000f4f0       ??_Erecorddemoaction@@UAEPAXI@Z 004104f0 f i * CIL library *:* CIL module *
 0001:0000f4f0       ??_Gautoteamaction@@UAEPAXI@Z 004104f0 f i server.obj
 0001:0000f4f0       ??_Gcleardemosaction@@UAEPAXI@Z 004104f0 f i server.obj
 0001:0000f4f0       ??_Gmastermodeaction@@UAEPAXI@Z 004104f0 f i server.obj
 0001:0000f4f0       ??_Gpauseaction@@UAEPAXI@Z 004104f0 f i server.obj
 0001:0000f4f0       ??_Grecorddemoaction@@UAEPAXI@Z 004104f0 f i server.obj
 0001:0000f520       ?perform@mastermodeaction@@UAEXXZ 00410520 f i server.obj
 0001:0000f530       ?isvalid@mastermodeaction@@UAE_NXZ 00410530 f i server.obj
 0001:0000f540       ?perform@autoteamaction@@UAEXXZ 00410540 f i server.obj
 0001:0000f5e0       ?perform@shuffleteamaction@@UAEXXZ 004105e0 f i server.obj
 0001:0000f630       ?isvalid@shuffleteamaction@@UAE_NXZ 00410630 f i server.obj
 0001:0000f680       ?perform@cleardemosaction@@UAEXXZ 00410680 f i server.obj
 0001:0000f760       ?perform@serverdescaction@@UAEXXZ 00410760 f i server.obj
 0001:0000f810       ?isvalid@serverdescaction@@UAE_NXZ 00410810 f i server.obj
 0001:0000f850       ??_Eserverdescaction@@UAEPAXI@Z 00410850 f i * CIL library *:* CIL module *
 0001:0000f850       ??_Gserverdescaction@@UAEPAXI@Z 00410850 f i server.obj
 0001:0000f8a0       ?end@voteinfo@@QAEXH@Z     004108a0 f i server.obj
 0001:0000f950       ?evaluate@voteinfo@@QAEX_N@Z 00410950 f i server.obj
 0001:0000fb20       ??$use_facet@V?$ctype@D@std@@@std@@YAABV?$ctype@D@0@ABVlocale@0@@Z 00410b20 f i server.obj
 0001:0000fcc0       ??$?6U?$char_traits@D@std@@@std@@YAAAV?$basic_ostream@DU?$char_traits@D@std@@@0@AAV10@PBD@Z 00410cc0 f i server.obj
 0001:0000fec0       ?getbits@?$bitbuf@U?$databuf@E@@@@QAEHH@Z 00410ec0 f i server.obj
 0001:0000ff70       ?full@?$ringbuf@PAUservinfoauth@@$0BA@@@QBE_NXZ 00410f70 f i server.obj
 0001:0000ffa0       ?add@?$vector@H@@QAEAAHABH@Z 00410fa0 f i server.obj
 0001:0000ffa0       ?add@?$vector@PAUservermap@@@@QAEAAPAUservermap@@ABQAU2@@Z 00410fa0 f i server.obj
 0001:00010030       ?add@?$ringbuf@E$0EAAAA@@@QAEXPBEH@Z 00411030 f i server.obj
 0001:000100b0       ??1?$_Hash_vec@V?$allocator@V?$_List_unchecked_iterator@V?$_List_val@U?$_List_simple_types@U?$pair@$$CBV?$basic_string@DU?$char_traits@D@std@@V?$allocator@D@2@@std@@V12@@std@@@std@@@std@@@std@@@std@@@std@@QAE@XZ 004110b0 f i server.obj
 0001:00010110       ??1?$list@U?$pair@$$CBV?$basic_string@DU?$char_traits@D@std@@V?$allocator@D@2@@std@@V12@@std@@V?$allocator@U?$pair@$$CBV?$basic_string@DU?$char_traits@D@std@@V?$allocator@D@2@@std@@V12@@std@@@2@@std@@QAE@XZ 00411110 f i server.obj
 0001:00010160       ?remove@?$vector@Uban@@@@QAE?AUban@@H@Z 00411160 f i server.obj
 0001:000101b0       ?add@?$vector@PAUclient@@@@QAEAAPAUclient@@ABQAU2@@Z 004111b0 f i server.obj
 0001:00010270       ?access@?$hashtable@Uuchar32@@Uvita_s@@@@QAEAAUvita_s@@ABUuchar32@@ABU2@@Z 00411270 f i server.obj
 0001:00010490       ?access@?$hashtable@Uuchar32@@Uvita_s@@@@QAEPAUvita_s@@ABUuchar32@@@Z 00411490 f i server.obj
 0001:000104f0       ?access@?$hashtable@PBDUservpar@@@@QAEAAUservpar@@ABQBDABU2@@Z 004114f0 f i server.obj
 0001:00010630       ?access@?$hashtable@PBDUservpar@@@@QAEPAUservpar@@ABQBD@Z 00411630 f i server.obj
 0001:000106d0       ??0?$hashtable@PBDUservpar@@@@QAE@H@Z 004116d0 f i server.obj
 0001:00010740       ?add@?$vector@Upwddetail@@@@QAEAAUpwddetail@@ABU2@@Z 00411740 f i server.obj
 0001:000107e0       ?remove@?$vector@Uiprangecc@@@@QAE?AUiprangecc@@H@Z 004117e0 f i server.obj
 0001:00010840       ??4?$basic_string@DU?$char_traits@D@std@@V?$allocator@D@2@@std@@QAEAAV01@$$QAV01@@Z 00411840 f i server.obj
 0001:000108c0       ??0?$basic_ostringstream@DU?$char_traits@D@std@@V?$allocator@D@2@@std@@QAE@XZ 004118c0 f i server.obj
 0001:00010ae0       ?seekpos@?$basic_stringbuf@DU?$char_traits@D@std@@V?$allocator@D@2@@std@@MAE?AV?$fpos@U_Mbstatet@@@2@V32@H@Z 00411ae0 f i server.obj
 0001:00010c50       ?seekoff@?$basic_stringbuf@DU?$char_traits@D@std@@V?$allocator@D@2@@std@@MAE?AV?$fpos@U_Mbstatet@@@2@_JHH@Z 00411c50 f i server.obj
 0001:00010e40       ?underflow@?$basic_stringbuf@DU?$char_traits@D@std@@V?$allocator@D@2@@std@@MAEHXZ 00411e40 f i server.obj
 0001:00010ea0       ?pbackfail@?$basic_stringbuf@DU?$char_traits@D@std@@V?$allocator@D@2@@std@@MAEHH@Z 00411ea0 f i server.obj
 0001:00010ef0       ?overflow@?$basic_stringbuf@DU?$char_traits@D@std@@V?$allocator@D@2@@std@@MAEHH@Z 00411ef0 f i server.obj
 0001:00011060       ??1?$basic_stringbuf@DU?$char_traits@D@std@@V?$allocator@D@2@@std@@UAE@XZ 00412060 f i server.obj
 0001:00011150       ??6?$basic_ostream@DU?$char_traits@D@std@@@std@@QAEAAV01@H@Z 00412150 f i server.obj
 0001:000112d0       ?imbue@?$basic_streambuf@DU?$char_traits@D@std@@@std@@MAEXABVlocale@2@@Z 004122d0 f i server.obj
 0001:000112e0       ?getcrc@stream@@UAEIXZ     004122e0 f i stream.obj
 0001:000112e0       ?sync@?$basic_streambuf@DU?$char_traits@D@std@@@std@@MAEHXZ 004122e0 f i server.obj
 0001:000112e0       ___scrt_exe_initialize_mta 004122e0 f i LIBCMT:utility_desktop.obj
 0001:000112e0       ___scrt_initialize_winrt   004122e0 f i LIBCMT:utility_desktop.obj
 0001:000112e0       ___scrt_stub_for_initialize_mta 004122e0 f i LIBCMT:utility_desktop.obj
 0001:000112e0       __get_startup_commit_mode  004122e0 f i LIBCMT:commit_mode.obj
 0001:000112e0       __get_startup_new_mode     004122e0 f i LIBCMT:new_mode.obj
 0001:000112e0       __get_startup_thread_locale_mode 004122e0 f i LIBCMT:thread_locale.obj
 0001:000112e0       __matherr                  004122e0 f i LIBCMT:matherr.obj
 0001:000112f0       ?setbuf@?$basic_streambuf@DU?$char_traits@D@std@@@std@@MAEPAV12@PAD_J@Z 004122f0 f i server.obj
 0001:00011300       ?seekpos@?$basic_streambuf@DU?$char_traits@D@std@@@std@@MAE?AV?$fpos@U_Mbstatet@@@2@V32@H@Z 00412300 f i server.obj
 0001:00011330       ?seekoff@?$basic_streambuf@DU?$char_traits@D@std@@@std@@MAE?AV?$fpos@U_Mbstatet@@@2@_JHH@Z 00412330 f i server.obj
 0001:00011360       ?xsputn@?$basic_streambuf@DU?$char_traits@D@std@@@std@@MAE_JPBD_J@Z 00412360 f i server.obj
 0001:00011440       ?xsgetn@?$basic_streambuf@DU?$char_traits@D@std@@@std@@MAE_JPAD_J@Z 00412440 f i server.obj
 0001:00011520       ?uflow@?$basic_streambuf@DU?$char_traits@D@std@@@std@@MAEHXZ 00412520 f i server.obj
 0001:00011550       ?printf@stream@@UAAHPBDZZ  00412550 f i stream.obj
 0001:00011550       ?tell@stream@@UAEJXZ       00412550 f i stream.obj
 0001:00011550       ?underflow@?$basic_streambuf@DU?$char_traits@D@std@@@std@@MAEHXZ 00412550 f i server.obj
 0001:00011560       ?showmanyc@?$basic_streambuf@DU?$char_traits@D@std@@@std@@MAE_JXZ 00412560 f i server.obj
 0001:00011570       ?overflow@?$basic_streambuf@DU?$char_traits@D@std@@@std@@MAEHH@Z 00412570 f i server.obj
 0001:00011570       ?pbackfail@?$basic_streambuf@DU?$char_traits@D@std@@@std@@MAEHH@Z 00412570 f i server.obj
 0001:00011580       ?clear@?$hashtable@PBDH@@QAEX_N@Z 00412580 f i server.obj
 0001:000116a0       ?access@?$hashtable@PBDH@@QAEAAHABQBDABH@Z 004126a0 f i server.obj
 0001:00011790       ?access@?$hashtable@PBDH@@QAEPAHABQBD@Z 00412790 f i server.obj
 0001:00011830       ?get@?$databuf@E@@QAEHPAEH@Z 00412830 f i server.obj
 0001:00011870       ??_E?$basic_ostringstream@DU?$char_traits@D@std@@V?$allocator@D@2@@std@@UAEPAXI@Z 00412870 f i * CIL library *:* CIL module *
 0001:00011870       ??_G?$basic_ostringstream@DU?$char_traits@D@std@@V?$allocator@D@2@@std@@UAEPAXI@Z 00412870 f i server.obj
 0001:000118e0       ??_E?$basic_stringbuf@DU?$char_traits@D@std@@V?$allocator@D@2@@std@@UAEPAXI@Z 004128e0 f i * CIL library *:* CIL module *
 0001:000118e0       ??_G?$basic_stringbuf@DU?$char_traits@D@std@@V?$allocator@D@2@@std@@UAEPAXI@Z 004128e0 f i server.obj
 0001:00011900       ??_E?$basic_ostream@DU?$char_traits@D@std@@@std@@UAEPAXI@Z 00412900 f i * CIL library *:* CIL module *
 0001:00011900       ??_G?$basic_ostream@DU?$char_traits@D@std@@@std@@UAEPAXI@Z 00412900 f i server.obj
 0001:00011950       ??_E?$basic_streambuf@DU?$char_traits@D@std@@@std@@UAEPAXI@Z 00412950 f i * CIL library *:* CIL module *
 0001:00011950       ??_G?$basic_streambuf@DU?$char_traits@D@std@@@std@@UAEPAXI@Z 00412950 f i server.obj
 0001:000119a0       ??_E?$basic_ios@DU?$char_traits@D@std@@@std@@UAEPAXI@Z 004129a0 f i * CIL library *:* CIL module *
 0001:000119a0       ??_G?$basic_ios@DU?$char_traits@D@std@@@std@@UAEPAXI@Z 004129a0 f i server.obj
 0001:000119d0       ??$_Insert_string@DU?$char_traits@D@std@@I@std@@YAAAV?$basic_ostream@DU?$char_traits@D@std@@@0@AAV10@QBDI@Z 004129d0 f i server.obj
 0001:00011b90       ??$_Try_emplace@ABV?$basic_string@DU?$char_traits@D@std@@V?$allocator@D@2@@std@@$$V@?$_Hash@V?$_Umap_traits@V?$basic_string@DU?$char_traits@D@std@@V?$allocator@D@2@@std@@V12@V?$_Uhash_compare@V?$basic_string@DU?$char_traits@D@std@@V?$allocator@D@2@@std@@U?$hash@V?$basic_string@DU?$char_traits@D@std@@V?$allocator@D@2@@std@@@2@U?$equal_to@V?$basic_string@DU?$char_traits@D@std@@V?$allocator@D@2@@std@@@2@@2@V?$allocator@U?$pair@$$CBV?$basic_string@DU?$char_traits@D@std@@V?$allocator@D@2@@std@@V12@@std@@@2@$0A@@std@@@std@@IAE?AU?$pair@PAU?$_List_node@U?$pair@$$CBV?$basic_string@DU?$char_traits@D@std@@V?$allocator@D@2@@std@@V12@@std@@PAX@std@@_N@1@ABV?$basic_string@DU?$char_traits@D@std@@V?$allocator@D@2@@1@@Z 00412b90 f i server.obj
 0001:00011d60       ??$use_facet@V?$num_put@DV?$ostreambuf_iterator@DU?$char_traits@D@std@@@std@@@std@@@std@@YAABV?$num_put@DV?$ostreambuf_iterator@DU?$char_traits@D@std@@@std@@@0@ABVlocale@0@@Z 00412d60 f i server.obj
 0001:00011ef0       ??0sentry@?$basic_ostream@DU?$char_traits@D@std@@@std@@QAE@AAV12@@Z 00412ef0 f i server.obj
 0001:00011f70       ?do_put@?$num_put@DV?$ostreambuf_iterator@DU?$char_traits@D@std@@@std@@@std@@MBE?AV?$ostreambuf_iterator@DU?$char_traits@D@std@@@2@V32@AAVios_base@2@DPBX@Z 00412f70 f i server.obj
 0001:00011fe0       ?do_put@?$num_put@DV?$ostreambuf_iterator@DU?$char_traits@D@std@@@std@@@std@@MBE?AV?$ostreambuf_iterator@DU?$char_traits@D@std@@@2@V32@AAVios_base@2@DO@Z 00412fe0 f i server.obj
 0001:000121e0       ?do_put@?$num_put@DV?$ostreambuf_iterator@DU?$char_traits@D@std@@@std@@@std@@MBE?AV?$ostreambuf_iterator@DU?$char_traits@D@std@@@2@V32@AAVios_base@2@DN@Z 004131e0 f i server.obj
 0001:000123e0       ?do_put@?$num_put@DV?$ostreambuf_iterator@DU?$char_traits@D@std@@@std@@@std@@MBE?AV?$ostreambuf_iterator@DU?$char_traits@D@std@@@2@V32@AAVios_base@2@D_K@Z 004133e0 f i server.obj
 0001:000124c0       ?do_put@?$num_put@DV?$ostreambuf_iterator@DU?$char_traits@D@std@@@std@@@std@@MBE?AV?$ostreambuf_iterator@DU?$char_traits@D@std@@@2@V32@AAVios_base@2@D_J@Z 004134c0 f i server.obj
 0001:000125a0       ?do_put@?$num_put@DV?$ostreambuf_iterator@DU?$char_traits@D@std@@@std@@@std@@MBE?AV?$ostreambuf_iterator@DU?$char_traits@D@std@@@2@V32@AAVios_base@2@DK@Z 004135a0 f i server.obj
 0001:00012670       ?do_put@?$num_put@DV?$ostreambuf_iterator@DU?$char_traits@D@std@@@std@@@std@@MBE?AV?$ostreambuf_iterator@DU?$char_traits@D@std@@@2@V32@AAVios_base@2@DJ@Z 00413670 f i server.obj
 0001:00012740       ?do_put@?$num_put@DV?$ostreambuf_iterator@DU?$char_traits@D@std@@@std@@@std@@MBE?AV?$ostreambuf_iterator@DU?$char_traits@D@std@@@2@V32@AAVios_base@2@D_N@Z 00413740 f i server.obj
 0001:00012910       ?_Tidy@?$_Yarn@D@std@@AAEXXZ 00413910 f i server.obj
 0001:00012930       ?sputc@?$basic_streambuf@DU?$char_traits@D@std@@@std@@QAEHD@Z 00413930 f i server.obj
 0001:00012970       ??0?$basic_ios@DU?$char_traits@D@std@@@std@@IAE@XZ 00413970 f i server.obj
 0001:000129e0       ?setstate@?$basic_ios@DU?$char_traits@D@std@@@std@@QAEXH_N@Z 004139e0 f i server.obj
 0001:00012a10       ??0?$fpos@U_Mbstatet@@@std@@QAE@_J@Z 00413a10 f i server.obj
 0001:00012a40       ?insertchains@?$hashtable@PBDH@@QAEXPAUchainchunk@1@@Z 00413a40 f i server.obj
 0001:00012b10       ?growbuf@?$vector@D@@QAEXH@Z 00413b10 f i server.obj
 0001:00012b10       ?growbuf@?$vector@E@@QAEXH@Z 00413b10 f i server.obj
 0001:00012b70       ??_E?$num_put@DV?$ostreambuf_iterator@DU?$char_traits@D@std@@@std@@@std@@MAEPAXI@Z 00413b70 f i * CIL library *:* CIL module *
 0001:00012b70       ??_G?$num_put@DV?$ostreambuf_iterator@DU?$char_traits@D@std@@@std@@@std@@MAEPAXI@Z 00413b70 f i server.obj
 0001:00012ba0       ??$_Find_last@V?$basic_string@DU?$char_traits@D@std@@V?$allocator@D@2@@std@@@?$_Hash@V?$_Umap_traits@V?$basic_string@DU?$char_traits@D@std@@V?$allocator@D@2@@std@@V12@V?$_Uhash_compare@V?$basic_string@DU?$char_traits@D@std@@V?$allocator@D@2@@std@@U?$hash@V?$basic_string@DU?$char_traits@D@std@@V?$allocator@D@2@@std@@@2@U?$equal_to@V?$basic_string@DU?$char_traits@D@std@@V?$allocator@D@2@@std@@@2@@2@V?$allocator@U?$pair@$$CBV?$basic_string@DU?$char_traits@D@std@@V?$allocator@D@2@@std@@V12@@std@@@2@$0A@@std@@@std@@IBE?AU?$_Hash_find_last_result@PAU?$_List_node@U?$pair@$$CBV?$basic_string@DU?$char_traits@D@std@@V?$allocator@D@2@@std@@V12@@std@@PAX@std@@@1@ABV?$basic_string@DU?$char_traits@D@std@@V?$allocator@D@2@@1@I@Z 00413ba0 f i server.obj
 0001:00012c30       ??$_Fput_v3@$0A@@?$num_put@DV?$ostreambuf_iterator@DU?$char_traits@D@std@@@std@@@std@@ABE?AV?$ostreambuf_iterator@DU?$char_traits@D@std@@@1@V21@AAVios_base@1@DPBDI_N@Z 00413c30 f i server.obj
 0001:00013090       ??$use_facet@V?$numpunct@D@std@@@std@@YAABV?$numpunct@D@0@ABVlocale@0@@Z 00414090 f i server.obj
 0001:00013190       ?do_truename@?$numpunct@D@std@@MBE?AV?$basic_string@DU?$char_traits@D@std@@V?$allocator@D@2@@2@XZ 00414190 f i server.obj
 0001:000131d0       ?do_falsename@?$numpunct@D@std@@MBE?AV?$basic_string@DU?$char_traits@D@std@@V?$allocator@D@2@@2@XZ 004141d0 f i server.obj
 0001:00013210       ?do_grouping@?$numpunct@D@std@@MBE?AV?$basic_string@DU?$char_traits@D@std@@V?$allocator@D@2@@2@XZ 00414210 f i server.obj
 0001:00013250       ?do_thousands_sep@?$numpunct@D@std@@MBEDXZ 00414250 f i server.obj
 0001:00013260       ?do_decimal_point@?$numpunct@D@std@@MBEDXZ 00414260 f i server.obj
 0001:00013270       ?_Rep@?$num_put@DV?$ostreambuf_iterator@DU?$char_traits@D@std@@@std@@@std@@ABA?AV?$ostreambuf_iterator@DU?$char_traits@D@std@@@2@V32@DI@Z 00414270 f i server.obj
 0001:000132e0       ?_Put@?$num_put@DV?$ostreambuf_iterator@DU?$char_traits@D@std@@@std@@@std@@ABA?AV?$ostreambuf_iterator@DU?$char_traits@D@std@@@2@V32@PBDI@Z 004142e0 f i server.obj
 0001:00013350       ?_Iput@?$num_put@DV?$ostreambuf_iterator@DU?$char_traits@D@std@@@std@@@std@@ABA?AV?$ostreambuf_iterator@DU?$char_traits@D@std@@@2@V32@AAVios_base@2@DPADI@Z 00414350 f i server.obj
 0001:00013740       ?_Ffmt@?$num_put@DV?$ostreambuf_iterator@DU?$char_traits@D@std@@@std@@@std@@ABAPADPADDH@Z 00414740 f i server.obj
 0001:00013810       ?_Assign_grow@?$_Hash_vec@V?$allocator@V?$_List_unchecked_iterator@V?$_List_val@U?$_List_simple_types@U?$pair@$$CBV?$basic_string@DU?$char_traits@D@std@@V?$allocator@D@2@@std@@V12@@std@@@std@@@std@@@std@@@std@@@std@@QAEXIV?$_List_unchecked_iterator@V?$_List_val@U?$_List_simple_types@U?$pair@$$CBV?$basic_string@DU?$char_traits@D@std@@V?$allocator@D@2@@std@@V12@@std@@@std@@@std@@@2@@Z 00414810 f i server.obj
 0001:00013900       ?_Forced_rehash@?$_Hash@V?$_Umap_traits@V?$basic_string@DU?$char_traits@D@std@@V?$allocator@D@2@@std@@V12@V?$_Uhash_compare@V?$basic_string@DU?$char_traits@D@std@@V?$allocator@D@2@@std@@U?$hash@V?$basic_string@DU?$char_traits@D@std@@V?$allocator@D@2@@std@@@2@U?$equal_to@V?$basic_string@DU?$char_traits@D@std@@V?$allocator@D@2@@std@@@2@@2@V?$allocator@U?$pair@$$CBV?$basic_string@DU?$char_traits@D@std@@V?$allocator@D@2@@std@@V12@@std@@@2@$0A@@std@@@std@@IAEXI@Z 00414900 f i server.obj
 0001:00013ac0       ?insertchains@?$hashtable@PBDUservpar@@@@QAEXPAUchainchunk@1@@Z 00414ac0 f i server.obj
 0001:00013bb0       ?flush@?$basic_ostream@DU?$char_traits@D@std@@@std@@QAEAAV12@XZ 00414bb0 f i server.obj
 0001:00013cc0       ?_Osfx@?$basic_ostream@DU?$char_traits@D@std@@@std@@QAEXXZ 00414cc0 f i server.obj
 0001:00013d50       ??_E?$numpunct@D@std@@MAEPAXI@Z 00414d50 f i * CIL library *:* CIL module *
 0001:00013d50       ??_G?$numpunct@D@std@@MAEPAXI@Z 00414d50 f i server.obj
 0001:00013da0       ??$fill@PAV?$_List_unchecked_iterator@V?$_List_val@U?$_List_simple_types@U?$pair@$$CBV?$basic_string@DU?$char_traits@D@std@@V?$allocator@D@2@@std@@V12@@std@@@std@@@std@@@std@@V12@@std@@YAXQAV?$_List_unchecked_iterator@V?$_List_val@U?$_List_simple_types@U?$pair@$$CBV?$basic_string@DU?$char_traits@D@std@@V?$allocator@D@2@@std@@V12@@std@@@std@@@std@@@0@0ABV10@@Z 00414da0 f i server.obj
 0001:00013e00       ?_Getcat@?$numpunct@D@std@@SAIPAPBVfacet@locale@2@PBV42@@Z 00414e00 f i server.obj
 0001:00013f80       ?append@?$basic_string@DU?$char_traits@D@std@@V?$allocator@D@2@@std@@QAEAAV12@ID@Z 00414f80 f i server.obj
 0001:000140f0       ??1?$pair@$$CBV?$basic_string@DU?$char_traits@D@std@@V?$allocator@D@2@@std@@V12@@std@@QAE@XZ 004150f0 f i server.obj
 0001:00014180       ??$_Reallocate_grow_by@V<lambda_1>@?1??insert@?$basic_string@DU?$char_traits@D@std@@V?$allocator@D@2@@std@@QAEAAV34@IID@Z@IID@?$basic_string@DU?$char_traits@D@std@@V?$allocator@D@2@@std@@AAEAAV01@IV<lambda_1>@?1??insert@01@QAEAAV01@IID@Z@IID@Z 00415180 f i server.obj
 0001:000142c9       ??_E?$basic_ostream@DU?$char_traits@D@std@@@std@@$4PPPPPPPM@A@AEPAXI@Z 004152c9 f i server.obj
 0001:000142d1       ??_E?$basic_ostringstream@DU?$char_traits@D@std@@V?$allocator@D@2@@std@@$4PPPPPPPM@A@AEPAXI@Z 004152d1 f i server.obj
 0001:000142e0       ??_Gcert@@QAEPAXI@Z        004152e0 f i crypto.obj
 0001:00014360       _fprintf                   00415360 f i log.obj
 0001:00014390       ?strrchr@@YAPADQADH@Z      00415390 f i stream.obj
 0001:000143a0       ?seek@stream@@UAE_NJH@Z    004153a0 f i stream.obj
 0001:000143b0       ?read@stream@@UAEHPAXH@Z   004153b0 f i stream.obj
 0001:000143b0       ?write@stream@@UAEHPBXH@Z  004153b0 f i stream.obj
 0001:000143c0       ?getchar@stream@@UAEHXZ    004153c0 f i stream.obj
 0001:000143e0       ?putchar@stream@@UAE_NH@Z  004153e0 f i stream.obj
 0001:00014400       ?putstring@stream@@UAE_NPBD@Z 00415400 f i stream.obj
 0001:00014430       ?putline@stream@@UAE_NPBD@Z 00415430 f i stream.obj
 0001:00014460       ??_Estream@@UAEPAXI@Z      00415460 f i * CIL library *:* CIL module *
 0001:00014460       ??_Gstream@@UAEPAXI@Z      00415460 f i stream.obj
 0001:00014490       ?close@filestream@@UAEXXZ  00415490 f i stream.obj
 0001:000144b0       ?end@filestream@@UAE_NXZ   004154b0 f i stream.obj
 0001:000144d0       ?tell@filestream@@UAEJXZ   004154d0 f i stream.obj
 0001:000144e0       ?seek@filestream@@UAE_NJH@Z 004154e0 f i stream.obj
 0001:00014500       ?fflush@filestream@@UAEXXZ 00415500 f i stream.obj
 0001:00014510       ?read@filestream@@UAEHPAXH@Z 00415510 f i stream.obj
 0001:00014530       ?write@filestream@@UAEHPBXH@Z 00415530 f i stream.obj
 0001:00014550       ?getchar@filestream@@UAEHXZ 00415550 f i stream.obj
 0001:00014560       ?putchar@filestream@@UAE_NH@Z 00415560 f i stream.obj
 0001:00014580       ?getline@filestream@@UAE_NPADH@Z 00415580 f i stream.obj
 0001:000145a0       ?putstring@filestream@@UAE_NPBD@Z 004155a0 f i stream.obj
 0001:000145c0       ?printf@filestream@@UAAHPBDZZ 004155c0 f i stream.obj
 0001:000145f0       ??_Efilestream@@UAEPAXI@Z  004155f0 f i * CIL library *:* CIL module *
 0001:000145f0       ??_Gfilestream@@UAEPAXI@Z  004155f0 f i stream.obj
 0001:00014630       ?readbyte@gzstream@@QAEHH@Z 00415630 f i stream.obj
 0001:00014690       ?skipbytes@gzstream@@QAEXH@Z 00415690 f i stream.obj
 0001:000146d0       ?checkheader@gzstream@@QAE_NXZ 004156d0 f i stream.obj
 0001:00014960       ?open@gzstream@@QAE_NPAUstream@@PBD_NH@Z 00415960 f i stream.obj
 0001:00014ac0       ?getcrc@gzstream@@UAEIXZ   00415ac0 f i stream.obj
 0001:00014ad0       ?stopreading@gzstream@@QAEXXZ 00415ad0 f i stream.obj
 0001:00014af0       ?stopwriting@gzstream@@QAEXXZ 00415af0 f i stream.obj
 0001:00014b10       ?close@gzstream@@UAEXXZ    00415b10 f i stream.obj
 0001:00014c50       ?end@gzstream@@UAE_NXZ     00415c50 f i stream.obj
 0001:00014c70       ?tell@gzstream@@UAEJXZ     00415c70 f i stream.obj
 0001:00014c90       ?seek@gzstream@@UAE_NJH@Z  00415c90 f i stream.obj
 0001:00014dc0       ?read@gzstream@@UAEHPAXH@Z 00415dc0 f i stream.obj
 0001:00014ec0       ?write@gzstream@@UAEHPBXH@Z 00415ec0 f i stream.obj
 0001:00014f70       ??_Egzstream@@UAEPAXI@Z    00415f70 f i * CIL library *:* CIL module *
 0001:00014f70       ??_Ggzstream@@UAEPAXI@Z    00415f70 f i stream.obj
 0001:00014fa0       ?close@vecstream@@UAEXXZ   00415fa0 f i stream.obj
 0001:00014fe0       ?end@vecstream@@UAE_NXZ    00415fe0 f i stream.obj
 0001:00015000       ?tell@vecstream@@UAEJXZ    00416000 f i stream.obj
 0001:00015010       ?size@vecstream@@UAEJXZ    00416010 f i stream.obj
 0001:00015020       ?seek@vecstream@@UAE_NJH@Z 00416020 f i stream.obj
 0001:00015080       ?read@vecstream@@UAEHPAXH@Z 00416080 f i stream.obj
 0001:000150d0       ?write@vecstream@@UAEHPBXH@Z 004160d0 f i stream.obj
 0001:00015140       ?printf@vecstream@@UAAHPBDZZ 00416140 f i stream.obj
 0001:00015200       ??_Evecstream@@UAEPAXI@Z   00416200 f i * CIL library *:* CIL module *
 0001:00015200       ??_Gvecstream@@UAEPAXI@Z   00416200 f i stream.obj
 0001:00015250       ?put@packetbuf@@QAEXABE@Z  00416250 f i protocol1.obj
 0001:000152b2       _htonl@4                   004162b2 f   ws2_32:WS2_32.dll
 0001:000152b8       _ntohl@4                   004162b8 f   ws2_32:WS2_32.dll
 0001:000152be       ___WSAFDIsSet@8            004162be f   ws2_32:WS2_32.dll
 0001:000152c4       _WSAStartup@8              004162c4 f   ws2_32:WS2_32.dll
 0001:000152ca       _WSACleanup@0              004162ca f   ws2_32:WS2_32.dll
 0001:000152d0       _gethostbyname@4           004162d0 f   ws2_32:WS2_32.dll
 0001:000152d6       _inet_addr@4               004162d6 f   ws2_32:WS2_32.dll
 0001:000152dc       _inet_ntoa@4               004162dc f   ws2_32:WS2_32.dll
 0001:000152e2       _gethostbyaddr@12          004162e2 f   ws2_32:WS2_32.dll
 0001:000152e8       _htons@4                   004162e8 f   ws2_32:WS2_32.dll
 0001:000152ee       _bind@12                   004162ee f   ws2_32:WS2_32.dll
 0001:000152f4       _listen@8                  004162f4 f   ws2_32:WS2_32.dll
 0001:000152fa       _socket@12                 004162fa f   ws2_32:WS2_32.dll
 0001:00015300       _setsockopt@20             00416300 f   ws2_32:WS2_32.dll
 0001:00015306       _ioctlsocket@12            00416306 f   ws2_32:WS2_32.dll
 0001:0001530c       _connect@12                0041630c f   ws2_32:WS2_32.dll
 0001:00015312       _WSAGetLastError@0         00416312 f   ws2_32:WS2_32.dll
 0001:00015318       _accept@12                 00416318 f   ws2_32:WS2_32.dll
 0001:0001531e       _ntohs@4                   0041631e f   ws2_32:WS2_32.dll
 0001:00015324       _shutdown@8                00416324 f   ws2_32:WS2_32.dll
 0001:0001532a       _closesocket@4             0041632a f   ws2_32:WS2_32.dll
 0001:00015330       _WSASendTo@36              00416330 f   ws2_32:WS2_32.dll
 0001:00015336       _WSARecvFrom@36            00416336 f   ws2_32:WS2_32.dll
 0001:0001533c       _select@20                 0041633c f   ws2_32:WS2_32.dll
 0001:00015342       _timeBeginPeriod@4         00416342 f   winmm:WINMM.dll
 0001:00015348       _timeEndPeriod@4           00416348 f   winmm:WINMM.dll
 0001:0001534e       _timeGetTime@0             0041634e f   winmm:WINMM.dll
 0001:00015354       ??0bad_alloc@std@@QAE@XZ   00416354 f i libcpmt:xthrow.obj
 0001:00015372       ??0length_error@std@@QAE@ABV01@@Z 00416372 f i libcpmt:xthrow.obj
 0001:0001538d       ??0length_error@std@@QAE@PBD@Z 0041638d f i libcpmt:xthrow.obj
 0001:000153ac       ??0logic_error@std@@QAE@ABV01@@Z 004163ac f i libcpmt:xthrow.obj
 0001:000153c7       ??0out_of_range@std@@QAE@ABV01@@Z 004163c7 f i libcpmt:xthrow.obj
 0001:000153e2       ??0out_of_range@std@@QAE@PBD@Z 004163e2 f i libcpmt:xthrow.obj
 0001:00015401       ??0runtime_error@std@@QAE@PBD@Z 00416401 f i libcpmt:xthrow.obj
 0001:00015420       ??_Ebad_exception@std@@UAEPAXI@Z 00416420 f i libvcruntime:frame.obj
 0001:00015420       ??_Elength_error@std@@UAEPAXI@Z 00416420 f i libcpmt:xthrow.obj
 0001:00015420       ??_Elogic_error@std@@UAEPAXI@Z 00416420 f i libcpmt:xthrow.obj
 0001:00015420       ??_Eout_of_range@std@@UAEPAXI@Z 00416420 f i libcpmt:xthrow.obj
 0001:00015420       ??_Gbad_exception@std@@UAEPAXI@Z 00416420 f i libvcruntime:frame.obj
 0001:00015420       ??_Glength_error@std@@UAEPAXI@Z 00416420 f i libcpmt:xthrow.obj
 0001:00015420       ??_Glogic_error@std@@UAEPAXI@Z 00416420 f i libcpmt:xthrow.obj
 0001:00015420       ??_Gout_of_range@std@@UAEPAXI@Z 00416420 f i libcpmt:xthrow.obj
 0001:0001544d       ?_Xbad_alloc@std@@YAXXZ    0041644d f   libcpmt:xthrow.obj
 0001:0001544d       ?__scrt_throw_std_bad_alloc@@YAXXZ 0041644d f   LIBCMT:throw_bad_alloc.obj
 0001:0001546a       ?_Xlength_error@std@@YAXPBD@Z 0041646a f   libcpmt:xthrow.obj
 0001:0001548a       ?_Xout_of_range@std@@YAXPBD@Z 0041648a f   libcpmt:xthrow.obj
 0001:000154aa       ?_Xruntime_error@std@@YAXPBD@Z 004164aa f   libcpmt:xthrow.obj
 0001:00016130       ___std_find_first_not_of_trivial_pos_1@16 00417130 f   libcpmt:vector_algorithms.obj
 0001:000161c0       ___std_find_last_not_of_trivial_pos_1@16 004171c0 f   libcpmt:vector_algorithms.obj
 0001:000161d0       ___std_find_trivial_1@12   004171d0 f   libcpmt:vector_algorithms.obj
 0001:000161d9       ??0_Init_locks@std@@QAE@XZ 004171d9 f   libcpmt:xlock.obj
 0001:00016206       ??0_Lockit@std@@QAE@H@Z    00417206 f   libcpmt:xlock.obj
 0001:00016237       ??1_Init_locks@std@@QAE@XZ 00417237 f   libcpmt:xlock.obj
 0001:0001625e       ??1_Lockit@std@@QAE@XZ     0041725e f   libcpmt:xlock.obj
 0001:0001627d       ?uncaught_exceptions@std@@YAHXZ 0041727d f   libcpmt:uncaught_exceptions.obj
 0001:00016282       ??0_Locimp@locale@std@@AAE@_N@Z 00417282 f i libcpmt:locale0.obj
 0001:000162c3       ??1_Fac_node@std@@QAE@XZ   004172c3 f i libcpmt:locale0.obj
 0001:000162f4       ??1_Fac_tidy_reg_t@std@@QAE@XZ 004172f4 f i libcpmt:locale0.obj
 0001:00016318       ??1_Locimp@locale@std@@MAE@XZ 00417318 f i libcpmt:locale0.obj
 0001:00016338       ??4?$_Yarn@D@std@@QAEAAV01@PBD@Z 00417338 f i libcpmt:locale0.obj
 0001:00016381       ??_E_Locimp@locale@std@@MAEPAXI@Z 00417381 f i libcpmt:locale0.obj
 0001:00016381       ??_G_Locimp@locale@std@@MAEPAXI@Z 00417381 f i libcpmt:locale0.obj
 0001:000163a3       ?_Facet_Register@std@@YAXPAV_Facet_base@1@@Z 004173a3 f   libcpmt:locale0.obj
 0001:000163d0       ?_Getgloballocale@locale@std@@CAPAV_Locimp@12@XZ 004173d0 f   libcpmt:locale0.obj
 0001:000163d6       ?_Init@locale@std@@CAPAV_Locimp@12@_N@Z 004173d6 f   libcpmt:locale0.obj
 0001:00016463       ?_Locimp_dtor@_Locimp@locale@std@@CAXPAV123@@Z 00417463 f   libcpmt:locale0.obj
 0001:000164d4       ?_Locinfo_ctor@_Locinfo@std@@SAXPAV12@PBD@Z 004174d4 f   libcpmt:locale0.obj
 0001:00016520       ?_Locinfo_dtor@_Locinfo@std@@SAXPAV12@@Z 00417520 f   libcpmt:locale0.obj
 0001:0001653a       ?_New_Locimp@_Locimp@locale@std@@CAPAV123@_N@Z 0041753a f   libcpmt:locale0.obj
 0001:0001655d       ?_Setgloballocale@locale@std@@CAXPAX@Z 0041755d f   libcpmt:locale0.obj
 0001:00016585       __Deletegloballocale       00417585 f   libcpmt:locale0.obj
 0001:000165ed       ?_Callfns@ios_base@std@@AAEXW4event@12@@Z 004175ed f i libcpmt:ios.obj
 0001:00016620       ?_Ios_base_dtor@ios_base@std@@CAXPAV12@@Z 00417620 f   libcpmt:ios.obj
 0001:00016660       ?_Tidy@ios_base@std@@AAEXXZ 00417660 f i libcpmt:ios.obj
 0001:000166e1       ?_Syserror_map@std@@YAPBDH@Z 004176e1 f   libcpmt:syserror.obj
 0001:00016706       __Getctype                 00417706 f   libcpmt:_tolower.obj
 0001:00016774       __Tolower                  00417774 f   libcpmt:_tolower.obj
 0001:00016860       __Getcvt                   00417860 f   libcpmt:xwctomb.obj
 0001:000168d3       __Toupper                  004178d3 f   libcpmt:_toupper.obj
 0001:000169bf       __Mtxdst                   004179bf f   libcpmt:xmtx.obj
 0001:000169cd       __Mtxinit                  004179cd f   libcpmt:xmtx.obj
 0001:000169e2       __Mtxlock                  004179e2 f   libcpmt:xmtx.obj
 0001:000169f0       __Mtxunlock                004179f0 f   libcpmt:xmtx.obj
 0001:000169fe       ??1_Init_atexit@@QAE@XZ    004179fe f i libcpmt:iosptrs.obj
 0001:00016a66       ?_Atexit@@YAXP6AXXZ@Z      00417a66 f   libcpmt:iosptrs.obj
 0001:00016a95       ??1?$__crt_scoped_stack_ptr@_W@@QAE@XZ 00417a95 f i libcpmt:StlLCMapStringA.obj
 0001:00016aae       ___crtLCMapStringA         00417aae f   libcpmt:StlLCMapStringA.obj
 0001:00016c7e       __freea_crt                00417c7e f i libcpmt:StlLCMapStringA.obj
 0001:00016c9c       @__security_check_cookie@4 00417c9c f   LIBCMT:secchk.obj
 0001:00016caa       ??2@YAPAXI@Z               00417caa f   LIBCMT:new_scalar.obj
 0001:00016d1c       ___scrt_acquire_startup_lock 00417d1c f   LIBCMT:utility.obj
 0001:00016d4e       ___scrt_initialize_crt     00417d4e f   LIBCMT:utility.obj
 0001:00016d87       ___scrt_initialize_onexit_tables 00417d87 f   LIBCMT:utility.obj
 0001:00016e0e       ___scrt_is_nonwritable_in_current_image 00417e0e f   LIBCMT:utility.obj
 0001:00016ea5       ___scrt_release_startup_lock 00417ea5 f   LIBCMT:utility.obj
 0001:00016ec2       ___scrt_uninitialize_crt   00417ec2 f   LIBCMT:utility.obj
 0001:00016eea       __onexit                   00417eea f   LIBCMT:utility.obj
 0001:00016f18       _atexit                    00417f18 f   LIBCMT:utility.obj
 0001:00016f2d       ??3@YAXPAX@Z               00417f2d f   LIBCMT:delete_scalar.obj
 0001:00016f32       ??3@YAXPAXI@Z              00417f32 f   LIBCMT:delete_scalar_size.obj
 0001:00016f40       ??_Etype_info@@UAEPAXI@Z   00417f40 f i LIBCMT:std_type_info_static.obj
 0001:00016f40       ??_Gtype_info@@UAEPAXI@Z   00417f40 f i LIBCMT:std_type_info_static.obj
 0001:00016f63       ??_V@YAXPAX@Z              00417f63 f   LIBCMT:delete_array.obj
 0001:00016f68       __Init_thread_footer       00417f68 f   LIBCMT:thread_safe_statics.obj
 0001:00016fb9       __Init_thread_header       00417fb9 f   LIBCMT:thread_safe_statics.obj
 0001:0001700b       __Init_thread_wait_v2      0041800b f   LIBCMT:thread_safe_statics.obj
 0001:00017020       ___report_gsfailure        00418020 f   LIBCMT:gs_report.obj
 0001:00017026       ___report_rangecheckfailure 00418026 f   LIBCMT:gs_report.obj
 0001:0001702c       ??_U@YAPAXI@Z              0041802c f   LIBCMT:new_array.obj
 0001:0001727f       _mainCRTStartup            0041827f f   LIBCMT:exe_main.obj
 0001:00017289       ___isa_available_init      00418289 f   LIBCMT:cpu_disp.obj
 0001:000175a3       __EH_epilog3               004185a3 f   LIBCMT:ehprolg3.obj
 0001:000175b7       __EH_prolog3               004185b7 f   LIBCMT:ehprolg3.obj
 0001:000175ea       __EH_prolog3_catch         004185ea f   LIBCMT:ehprolg3.obj
 0001:00017620       __alloca_probe_16          00418620 f   LIBCMT:alloca16.obj
 0001:00017636       __alloca_probe_8           00418636     LIBCMT:alloca16.obj
 0001:00017650       __allmul                   00418650 f   LIBCMT:llmul.obj
 0001:00017690       __aulldiv                  00418690 f   LIBCMT:ulldiv.obj
 0001:000176f8       ?__scrt_throw_std_bad_array_new_length@@YAXXZ 004186f8 f   LIBCMT:throw_bad_alloc.obj
 0001:00017715       __get_startup_argv_mode    00418715 f   LIBCMT:argv_mode.obj
 0001:00017719       ___scrt_is_ucrt_dll_in_use 00418719 f   LIBCMT:ucrt_detection.obj
 0001:00017725       ___scrt_fastfail           00418725 f   LIBCMT:utility_desktop.obj
 0001:0001772f       ___scrt_initialize_mta     0041872f f   LIBCMT:utility_desktop.obj
 0001:00017734       ___scrt_is_managed_app     00418734 f   LIBCMT:utility_desktop.obj
 0001:00017776       ___scrt_set_unhandled_exception_filter 00418776 f   LIBCMT:utility_desktop.obj
 0001:00017782       ___scrt_unhandled_exception_filter@4 00418782 f   LIBCMT:utility_desktop.obj
 0001:000177d8       __crt_debugger_hook        004187d8 f   LIBCMT:utility_desktop.obj
 0001:000177f0       __SEH_prolog4              004187f0 f   LIBCMT:sehprolg4.obj
 0001:00017882       ___security_init_cookie    00418882 f   LIBCMT:gs_support.obj
 0001:000178cd       __get_startup_file_mode    004188cd f   LIBCMT:file_mode.obj
 0001:000178d3       ?__scrt_initialize_type_info@@YAXXZ 004188d3 f   LIBCMT:tncleanup.obj
 0001:000178df       __initialize_default_precision 004188df f   LIBCMT:default_precision.obj
 0001:00017900       ___scrt_initialize_default_local_stdio_options 00418900 f   LIBCMT:default_local_stdio_options.obj
 0001:0001791d       ___scrt_is_user_matherr_present 0041891d f   LIBCMT:matherr_detection.obj
 0001:00017929       ___scrt_get_dyn_tls_init_callback 00418929 f   LIBCMT:dyn_tls_init.obj
 0001:0001792f       ___scrt_get_dyn_tls_dtor_callback 0041892f f   LIBCMT:dyn_tls_dtor.obj
 0001:00017935       __RTC_Initialize           00418935 f   LIBCMT:initsect.obj
 0001:00017961       __RTC_Terminate            00418961 f   LIBCMT:initsect.obj
 0001:00017990       __alloca_probe             00418990 f   LIBCMT:chkstk.obj
 0001:00017990       __chkstk                   00418990 f   LIBCMT:chkstk.obj
 0001:000179bb       ___std_exception_copy      004189bb f   libvcruntime:std_exception.obj
 0001:00017a1e       ___std_exception_destroy   00418a1e f   libvcruntime:std_exception.obj
 0001:00017a80       __except_handler4          00418a80 f   libvcruntime:chandler4.obj
 0001:00017be7       __get_purecall_handler     00418be7 f   libvcruntime:purevirt.obj
 0001:00017bee       __purecall                 00418bee f   libvcruntime:purevirt.obj
 0001:00017c10       _strstr                    00418c10 f   libvcruntime:strstr.obj
 0001:00017e80       _strchr                    00418e80 f   libvcruntime:strchr.obj
 0001:00017eee       ___from_strstr_to_strchr   00418eee     libvcruntime:strchr.obj
 0001:00017fb0       _strrchr                   00418fb0 f   libvcruntime:strrchr.obj
 0001:000180f0       _memset                    004190f0 f   libvcruntime:memset.obj
 0001:00018250       _memcpy                    00419250 f   libvcruntime:memcpy.obj
 0001:00018250       _memmove                   00419250 f   libvcruntime:memmove.obj
 0001:000187c4       __CxxThrowException@8      004197c4 f   libvcruntime:throw.obj
 0001:00018840       _memchr                    00419840 f   libvcruntime:memchr.obj
 0001:000188f0       ___uncaught_exceptions     004198f0 f   libvcruntime:uncaught_exceptions.obj
 0001:00018900       ?GetRangeOfTrysToCheck@__FrameHandler3@@SA?AU?$pair@Viterator@TryBlockMap@__FrameHandler3@@V123@@std@@AAVTryBlockMap@1@HPAXPBU_s_FuncInfo@@H@Z 00419900 f   libvcruntime:trnsctrl.obj
 0001:0001897f       ?_CallCatchBlock2@@YAPAXPAUEHRegistrationNode@@PBU_s_FuncInfo@@PAXHK@Z 0041997f f   libvcruntime:trnsctrl.obj
 0001:000189df       ?_CallSETranslator@@YAHPAUEHExceptionRecord@@PAUEHRegistrationNode@@PAX2PBU_s_FuncInfo@@H1@Z 004199df f   libvcruntime:trnsctrl.obj
 0001:00018ade       ?_JumpToContinuation@@YGXPAXPAUEHRegistrationNode@@@Z 00419ade f   libvcruntime:trnsctrl.obj
 0001:00018b0e       ?_UnwindNestedFrames@@YGXPAUEHRegistrationNode@@PAUEHExceptionRecord@@@Z 00419b0e f   libvcruntime:trnsctrl.obj
 0001:00018b62       __CatchGuardHandler        00419b62 f   libvcruntime:trnsctrl.obj
 0001:00018b93       __CreateFrameInfo          00419b93 f   libvcruntime:trnsctrl.obj
 0001:00018bb7       __FindAndUnlinkFrame       00419bb7 f   libvcruntime:trnsctrl.obj
 0001:00018bfe       __TranslatorGuardHandler   00419bfe f   libvcruntime:trnsctrl.obj
 0001:00018c9d       ___CxxFrameHandler3        00419c9d f   libvcruntime:trnsctrl.obj
 0001:00018cd3       ___DestructExceptionObject 00419cd3 f   libvcruntime:ehhelpers.obj
 0001:00018d7b       ?_CallMemberFunction0@@YGXQAX0@Z 00419d7b f i libvcruntime:ehhelpers.obj
 0001:00018de0       __IsExceptionObjectToBeDestroyed 00419de0 f   libvcruntime:ehhelpers.obj
 0001:00018e06       ___AdjustPointer           00419e06 f   libvcruntime:ehhelpers.obj
 0001:00018e2b       ___FrameUnwindFilter       00419e2b f   libvcruntime:ehhelpers.obj
 0001:00018e81       ___current_exception       00419e81 f   libvcruntime:ehhelpers.obj
 0001:00018e8a       ___current_exception_context 00419e8a f   libvcruntime:ehhelpers.obj
 0001:00018e93       ___std_terminate           00419e93 f   libvcruntime:ehhelpers.obj
 0001:00018e98       _memcmp                    00419e98 f   libvcruntime:memcmp.obj
 0001:0001a25c       ___vcrt_initialize         0041b25c f   libvcruntime:initialization.obj
 0001:0001a27b       ___vcrt_uninitialize       0041b27b f   libvcruntime:initialization.obj
 0001:0001a292       ___std_type_info_compare   0041b292 f   libvcruntime:std_type_info.obj
 0001:0001a2d0       __local_unwind4            0041b2d0 f   libvcruntime:exsup4.obj
 0001:0001a3c0       @_EH4_CallFilterFunc@8     0041b3c0 f   libvcruntime:exsup4.obj
 0001:0001a3e0       @_EH4_TransferToHandler@8  0041b3e0 f   libvcruntime:exsup4.obj
 0001:0001a400       @_EH4_GlobalUnwind2@8      0041b400 f   libvcruntime:exsup4.obj
 0001:0001a420       @_EH4_LocalUnwind@16       0041b420 f   libvcruntime:exsup4.obj
 0001:0001a437       ___except_validate_context_record 0041b437 f   libvcruntime:jbcxrval.obj
 0001:0001a467       ___vcrt_freefls@4          0041b467 f   libvcruntime:per_thread_data.obj
 0001:0001a483       ___vcrt_getptd             0041b483 f   libvcruntime:per_thread_data.obj
 0001:0001a491       ___vcrt_getptd_noexit      0041b491 f   libvcruntime:per_thread_data.obj
 0001:0001a520       ___vcrt_getptd_noinit      0041b520 f   libvcruntime:per_thread_data.obj
 0001:0001a558       ___vcrt_initialize_ptd     0041b558 f   libvcruntime:per_thread_data.obj
 0001:0001a58a       ___vcrt_uninitialize_ptd   0041b58a f   libvcruntime:per_thread_data.obj
 0001:0001acbe       ??$TypeMatchHelper@V__FrameHandler3@@@@YAHPBU_s_HandlerType@@PBU_s_CatchableType@@PBU_s_ThrowInfo@@@Z 0041bcbe f i libvcruntime:frame.obj
 0001:0001ad4c       ??$__InternalCxxFrameHandler@V__FrameHandler3@@@@YA?AW4_EXCEPTION_DISPOSITION@@PAUEHExceptionRecord@@PAUEHRegistrationNode@@PAU_CONTEXT@@PAXPBU_s_FuncInfo@@H1E@Z 0041bd4c f i libvcruntime:frame.obj
 0001:0001ae4e       ??$__InternalCxxFrameHandlerWrapper@V__FrameHandler3@@@@YA?AW4_EXCEPTION_DISPOSITION@@PAUEHExceptionRecord@@PAUEHRegistrationNode@@PAU_CONTEXT@@PAXPBU_s_FuncInfo@@H1E@Z 0041be4e f i libvcruntime:frame.obj
 0001:0001ae57       ??0bad_exception@std@@QAE@ABV01@@Z 0041be57 f i libvcruntime:frame.obj
 0001:0001ae72       ??0bad_exception@std@@QAE@XZ 0041be72 f i libvcruntime:frame.obj
 0001:0001ae90       ??8type_info@@QBE_NABV0@@Z 0041be90 f i libvcruntime:frame.obj
 0001:0001b116       ?FrameUnwindToEmptyState@__FrameHandler3@@SAXPAUEHRegistrationNode@@PAXPBU_s_FuncInfo@@@Z 0041c116 f   libvcruntime:frame.obj
 0001:0001b12e       ?FrameUnwindToState@__FrameHandler3@@SAXPAUEHRegistrationNode@@PAXPBU_s_FuncInfo@@H@Z 0041c12e f   libvcruntime:frame.obj
 0001:0001b2ae       ?_CallMemberFunction1@@YGXQAX00@Z 0041c2ae f i libvcruntime:frame.obj
 0001:0001b2be       ?_CallMemberFunction2@@YGXQAX00H@Z 0041c2be f i libvcruntime:frame.obj
 0001:0001b2d1       ?getESTypes@__FrameHandler3@@SAPBU_s_ESTypeList@@PBU_s_FuncInfo@@@Z 0041c2d1 f i libvcruntime:frame.obj
 0001:0001b2e0       __CallSettingFrame@12      0041c2e0 f   libvcruntime:lowhelpr.obj
 0001:0001b307       __NLG_Return               0041c307     libvcruntime:lowhelpr.obj
 0001:0001b32c       ___vcrt_initialize_locks   0041c32c f   libvcruntime:locks.obj
 0001:0001b362       ___vcrt_uninitialize_locks 0041c362 f   libvcruntime:locks.obj
 0001:0001b390       __NLG_Notify1              0041c390 f   libvcruntime:exsup.obj
 0001:0001b3a0       __NLG_Notify               0041c3a0 f   libvcruntime:exsup.obj
 0001:0001b3b7       __NLG_Dispatch             0041c3b7     libvcruntime:exsup.obj
 0001:0001b3b7       __NLG_Dispatch2            0041c3b7     libvcruntime:exsup.obj
 0001:0001b3c0       __NLG_Call                 0041c3c0 f   libvcruntime:exsup.obj
 0001:0001b3c2       __NLG_Return2              0041c3c2     libvcruntime:exsup.obj
 0001:0001b3c3       _unexpected                0041c3c3 f   libvcruntime:unexpected.obj
 0001:0001b3e0       ?GetCurrentState@__FrameHandler3@@SAHPAUEHRegistrationNode@@PAXPBU_s_FuncInfo@@@Z 0041c3e0 f   libvcruntime:ehstate.obj
 0001:0001b3fd       ?SetState@__FrameHandler3@@SAXPAUEHRegistrationNode@@PAXPBU_s_FuncInfo@@H@Z 0041c3fd f   libvcruntime:ehstate.obj
 0001:0001b458       ??$__crt_fast_decode_pointer@P6AHI@Z@@YAP6AHI@ZQ6AHI@Z@Z 0041c458 f i libucrt:new_handler.obj
 0001:0001b458       ??$__crt_fast_decode_pointer@P6AXH@Z@@YAP6AXH@ZQ6AXH@Z@Z 0041c458 f i libucrt:signal.obj
 0001:0001b458       ??$__crt_fast_decode_pointer@P6GXPAXK0@Z@@YAP6GXPAXK0@ZQ6GX0K0@Z@Z 0041c458 f i libucrt:exit.obj
 0001:0001b473       ??$__crt_fast_encode_pointer@P6AHI@Z@@YAP6AHI@ZQ6AHI@Z@Z 0041c473 f i libucrt:new_handler.obj
 0001:0001b473       ??$__crt_fast_encode_pointer@P6AHXZ@@YAP6AHXZQ6AHXZ@Z 0041c473 f i libucrt:onexit.obj
 0001:0001b473       ??$__crt_fast_encode_pointer@P6AXH@Z@@YAP6AXH@ZQ6AXH@Z@Z 0041c473 f i libucrt:signal.obj
 0001:0001b473       ??$__crt_fast_encode_pointer@P6GXPAXK0@Z@@YAP6GXPAXK0@ZQ6GX0K0@Z@Z 0041c473 f i libucrt:exit.obj
 0001:0001b473       ??$__crt_fast_encode_pointer@PAP6AXXZ@@YAPAP6AXXZQAP6AXXZ@Z 0041c473 f i libucrt:onexit.obj
 0001:0001b6e8       ___acrt_initialize_thread_local_exit_callback 0041c6e8 f   libucrt:exit.obj
 0001:0001b6f7       __c_exit                   0041c6f7 f   libucrt:exit.obj
 0001:0001b706       __cexit                    0041c706 f   libucrt:exit.obj
 0001:0001b715       __exit                     0041c715 f   libucrt:exit.obj
 0001:0001b72b       __register_thread_local_exe_atexit_callback 0041c72b f   libucrt:exit.obj
 0001:0001b751       _exit                      0041c751 f   libucrt:exit.obj
 0001:0001b9bc       _setlocale                 0041c9bc f   libucrt:setlocale.obj
 0001:0001ba00       _calloc                    0041ca00 f   libucrt:calloc.obj
 0001:0001ba0b       ___acrt_locale_get_ctype_array_value 0041ca0b f i libucrt:_ctype.obj
 0001:0001ba30       _isalnum                   0041ca30 f   libucrt:_ctype.obj
 0001:0001bac0       _isalpha                   0041cac0 f   libucrt:_ctype.obj
 0001:0001bb50       _isdigit                   0041cb50 f   libucrt:_ctype.obj
 0001:0001bbe0       _islower                   0041cbe0 f   libucrt:_ctype.obj
 0001:0001bc70       _isprint                   0041cc70 f   libucrt:_ctype.obj
 0001:0001bd00       _isspace                   0041cd00 f   libucrt:_ctype.obj
 0001:0001bd90       _isupper                   0041cd90 f   libucrt:_ctype.obj
 0001:0001be14       ??0_LocaleUpdate@@QAE@QAU__crt_locale_pointers@@@Z 0041ce14 f i libucrt:tolower_toupper.obj
 0001:0001be96       __tolower_l                0041ce96 f   libucrt:tolower_toupper.obj
 0001:0001bf94       __toupper_l                0041cf94 f   libucrt:tolower_toupper.obj
 0001:0001c092       _tolower                   0041d092 f   libucrt:tolower_toupper.obj
 0001:0001c0c2       _toupper                   0041d0c2 f   libucrt:tolower_toupper.obj
 0001:0001c1a9       _fopen                     0041d1a9 f   libucrt:fopen.obj
 0001:0001c1c0       ___acrt_initialize_stdio   0041d1c0 f   libucrt:_file.obj
 0001:0001c288       ___acrt_iob_func           0041d288 f   libucrt:_file.obj
 0001:0001c298       ___acrt_uninitialize_stdio 0041d298 f   libucrt:_file.obj
 0001:0001c2e4       __lock_file                0041d2e4 f   libucrt:_file.obj
 0001:0001c2f8       __unlock_file              0041d2f8 f   libucrt:_file.obj
 0001:0001c30c       ??0__crt_cached_ptd_host@@QAE@QAU__crt_locale_pointers@@@Z 0041d30c f i libucrt:fclose.obj
 0001:0001c354       ??1__crt_cached_ptd_host@@QAE@XZ 0041d354 f i libucrt:fclose.obj
 0001:0001c4b5       ?force_synchronize_per_thread_data@__crt_cached_ptd_host@@AAEPAU__acrt_ptd@@XZ 0041d4b5 f i libucrt:fclose.obj
 0001:0001c4fb       ?get_raw_ptd@__crt_cached_ptd_host@@QAEPAU__acrt_ptd@@XZ 0041d4fb f i libucrt:fclose.obj
 0001:0001c518       _fclose                    0041d518 f   libucrt:fclose.obj
 0001:0001c548       ??$__acrt_convert_wcs_mbs_cp@D_WV<lambda_62f6974d9771e494a5ea317cc32e971c>@@U__crt_win32_buffer_internal_dynamic_resizing@@@@YAHQBDAAV?$__crt_win32_buffer@_WU__crt_win32_buffer_internal_dynamic_resizing@@@@ABV<lambda_62f6974d9771e494a5ea317cc32e971c>@@I@Z 0041d548 f i libucrt:unlink.obj
 0001:0001c5fa       ??$__acrt_mbs_to_wcs_cp@U__crt_win32_buffer_internal_dynamic_resizing@@@@YAHQBDAAV?$__crt_win32_buffer@_WU__crt_win32_buffer_internal_dynamic_resizing@@@@I@Z 0041d5fa f i libucrt:unlink.obj
 0001:0001c617       ?__acrt_get_utf8_acp_compatibility_codepage@@YAIXZ 0041d617 f i libucrt:unlink.obj
 0001:0001c656       ?_deallocate@?$__crt_win32_buffer@DU__crt_win32_buffer_internal_dynamic_resizing@@@@AAEXXZ 0041d656 f i libucrt:argv_wildcards.obj
 0001:0001c656       ?_deallocate@?$__crt_win32_buffer@_WU__crt_win32_buffer_internal_dynamic_resizing@@@@AAEXXZ 0041d656 f i libucrt:unlink.obj
 0001:0001c670       ?allocate@?$__crt_win32_buffer@_WU__crt_win32_buffer_internal_dynamic_resizing@@@@QAEHI@Z 0041d670 f i libucrt:unlink.obj
 0001:0001c6af       ?allocate@__crt_win32_buffer_internal_dynamic_resizing@@SAHQAPAXIABV__crt_win32_buffer_empty_debug_info@@@Z 0041d6af f i libucrt:unlink.obj
 0001:0001c6d0       _remove                    0041d6d0 f   libucrt:unlink.obj
 0001:0001c740       _strcspn                   0041d740 f   libucrt:strcspn.obj
 0001:0001cb68       ??$count@D@formatting_buffer@__crt_stdio_output@@QBEIXZ 0041db68 f i libucrt:output.obj
 0001:0001cb80       ??$ensure_buffer_is_big_enough@D@formatting_buffer@__crt_stdio_output@@QAE_NIAAV__crt_cached_ptd_host@@@Z 0041db80 f i libucrt:output.obj
 0001:0001cc00       ??$is_overflow_condition@K@__crt_strtox@@YA_NIK@Z 0041dc00 f i libucrt:output.obj
 0001:0001cc34       ??$is_wide_character_specifier@D@__crt_stdio_output@@YA_N_KDW4length_modifier@0@@Z 0041dc34 f i libucrt:output.obj
 0001:0001cc65       ??$make_c_string_character_source@DPAPAD@__crt_strtox@@YA?AV?$c_string_character_source@D@0@QBDQAPAD@Z 0041dc65 f i libucrt:output.obj
 0001:0001cc65       ??$make_c_string_character_source@_WPAPA_W@__crt_strtox@@YA?AV?$c_string_character_source@_W@0@QB_WQAPA_W@Z 0041dc65 f i libucrt:output.obj
 0001:0001cc80       ??$parse_integer@KV?$c_string_character_source@D@__crt_strtox@@$0A@@__crt_strtox@@YAKAAV__crt_cached_ptd_host@@V?$c_string_character_source@D@0@H_N@Z 0041dc80 f i libucrt:output.obj
 0001:0001ce93       ??$scratch_data@D@formatting_buffer@__crt_stdio_output@@QAEPADXZ 0041de93 f i libucrt:output.obj
 0001:0001ceb1       ??$type_case_integer@$07@?$output_processor@DV?$stream_output_adapter@D@__crt_stdio_output@@V?$standard_base@DV?$stream_output_adapter@D@__crt_stdio_output@@@2@@__crt_stdio_output@@AAE_N_N@Z 0041deb1 f i libucrt:output.obj
 0001:0001ceb1       ??$type_case_integer@$07@?$output_processor@DV?$string_output_adapter@D@__crt_stdio_output@@V?$format_validation_base@DV?$string_output_adapter@D@__crt_stdio_output@@@2@@__crt_stdio_output@@AAE_N_N@Z 0041deb1 f i libucrt:output.obj
 0001:0001ceb1       ??$type_case_integer@$07@?$output_processor@DV?$string_output_adapter@D@__crt_stdio_output@@V?$standard_base@DV?$string_output_adapter@D@__crt_stdio_output@@@2@@__crt_stdio_output@@AAE_N_N@Z 0041deb1 f i libucrt:output.obj
 0001:0001d03e       ??$type_case_integer@$09@?$output_processor@DV?$stream_output_adapter@D@__crt_stdio_output@@V?$standard_base@DV?$stream_output_adapter@D@__crt_stdio_output@@@2@@__crt_stdio_output@@AAE_N_N@Z 0041e03e f i libucrt:output.obj
 0001:0001d03e       ??$type_case_integer@$09@?$output_processor@DV?$string_output_adapter@D@__crt_stdio_output@@V?$format_validation_base@DV?$string_output_adapter@D@__crt_stdio_output@@@2@@__crt_stdio_output@@AAE_N_N@Z 0041e03e f i libucrt:output.obj
 0001:0001d03e       ??$type_case_integer@$09@?$output_processor@DV?$string_output_adapter@D@__crt_stdio_output@@V?$standard_base@DV?$string_output_adapter@D@__crt_stdio_output@@@2@@__crt_stdio_output@@AAE_N_N@Z 0041e03e f i libucrt:output.obj
 0001:0001d1cb       ??$type_case_integer@$0BA@@?$output_processor@DV?$stream_output_adapter@D@__crt_stdio_output@@V?$standard_base@DV?$stream_output_adapter@D@__crt_stdio_output@@@2@@__crt_stdio_output@@AAE_N_N@Z 0041e1cb f i libucrt:output.obj
 0001:0001d1cb       ??$type_case_integer@$0BA@@?$output_processor@DV?$string_output_adapter@D@__crt_stdio_output@@V?$format_validation_base@DV?$string_output_adapter@D@__crt_stdio_output@@@2@@__crt_stdio_output@@AAE_N_N@Z 0041e1cb f i libucrt:output.obj
 0001:0001d1cb       ??$type_case_integer@$0BA@@?$output_processor@DV?$string_output_adapter@D@__crt_stdio_output@@V?$standard_base@DV?$string_output_adapter@D@__crt_stdio_output@@@2@@__crt_stdio_output@@AAE_N_N@Z 0041e1cb f i libucrt:output.obj
 0001:0001d358       ??$type_case_integer_parse_into_buffer@I$07@?$output_processor@DV?$stream_output_adapter@D@__crt_stdio_output@@V?$standard_base@DV?$stream_output_adapter@D@__crt_stdio_output@@@2@@__crt_stdio_output@@AAEXI_N@Z 0041e358 f i libucrt:output.obj
 0001:0001d358       ??$type_case_integer_parse_into_buffer@I$07@?$output_processor@DV?$string_output_adapter@D@__crt_stdio_output@@V?$format_validation_base@DV?$string_output_adapter@D@__crt_stdio_output@@@2@@__crt_stdio_output@@AAEXI_N@Z 0041e358 f i libucrt:output.obj
 0001:0001d358       ??$type_case_integer_parse_into_buffer@I$07@?$output_processor@DV?$string_output_adapter@D@__crt_stdio_output@@V?$standard_base@DV?$string_output_adapter@D@__crt_stdio_output@@@2@@__crt_stdio_output@@AAEXI_N@Z 0041e358 f i libucrt:output.obj
 0001:0001d3ba       ??$type_case_integer_parse_into_buffer@I$09@?$output_processor@DV?$stream_output_adapter@D@__crt_stdio_output@@V?$standard_base@DV?$stream_output_adapter@D@__crt_stdio_output@@@2@@__crt_stdio_output@@AAEXI_N@Z 0041e3ba f i libucrt:output.obj
 0001:0001d3ba       ??$type_case_integer_parse_into_buffer@I$09@?$output_processor@DV?$string_output_adapter@D@__crt_stdio_output@@V?$format_validation_base@DV?$string_output_adapter@D@__crt_stdio_output@@@2@@__crt_stdio_output@@AAEXI_N@Z 0041e3ba f i libucrt:output.obj
 0001:0001d3ba       ??$type_case_integer_parse_into_buffer@I$09@?$output_processor@DV?$string_output_adapter@D@__crt_stdio_output@@V?$standard_base@DV?$string_output_adapter@D@__crt_stdio_output@@@2@@__crt_stdio_output@@AAEXI_N@Z 0041e3ba f i libucrt:output.obj
 0001:0001d439       ??$type_case_integer_parse_into_buffer@I$0BA@@?$output_processor@DV?$stream_output_adapter@D@__crt_stdio_output@@V?$standard_base@DV?$stream_output_adapter@D@__crt_stdio_output@@@2@@__crt_stdio_output@@AAEXI_N@Z 0041e439 f i libucrt:output.obj
 0001:0001d439       ??$type_case_integer_parse_into_buffer@I$0BA@@?$output_processor@DV?$string_output_adapter@D@__crt_stdio_output@@V?$format_validation_base@DV?$string_output_adapter@D@__crt_stdio_output@@@2@@__crt_stdio_output@@AAEXI_N@Z 0041e439 f i libucrt:output.obj
 0001:0001d439       ??$type_case_integer_parse_into_buffer@I$0BA@@?$output_processor@DV?$string_output_adapter@D@__crt_stdio_output@@V?$standard_base@DV?$string_output_adapter@D@__crt_stdio_output@@@2@@__crt_stdio_output@@AAEXI_N@Z 0041e439 f i libucrt:output.obj
 0001:0001d4b5       ??$type_case_integer_parse_into_buffer@_K$07@?$output_processor@DV?$stream_output_adapter@D@__crt_stdio_output@@V?$standard_base@DV?$stream_output_adapter@D@__crt_stdio_output@@@2@@__crt_stdio_output@@AAEX_K_N@Z 0041e4b5 f i libucrt:output.obj
 0001:0001d4b5       ??$type_case_integer_parse_into_buffer@_K$07@?$output_processor@DV?$string_output_adapter@D@__crt_stdio_output@@V?$format_validation_base@DV?$string_output_adapter@D@__crt_stdio_output@@@2@@__crt_stdio_output@@AAEX_K_N@Z 0041e4b5 f i libucrt:output.obj
 0001:0001d4b5       ??$type_case_integer_parse_into_buffer@_K$07@?$output_processor@DV?$string_output_adapter@D@__crt_stdio_output@@V?$standard_base@DV?$string_output_adapter@D@__crt_stdio_output@@@2@@__crt_stdio_output@@AAEX_K_N@Z 0041e4b5 f i libucrt:output.obj
 0001:0001d529       ??$type_case_integer_parse_into_buffer@_K$09@?$output_processor@DV?$stream_output_adapter@D@__crt_stdio_output@@V?$standard_base@DV?$stream_output_adapter@D@__crt_stdio_output@@@2@@__crt_stdio_output@@AAEX_K_N@Z 0041e529 f i libucrt:output.obj
 0001:0001d529       ??$type_case_integer_parse_into_buffer@_K$09@?$output_processor@DV?$string_output_adapter@D@__crt_stdio_output@@V?$format_validation_base@DV?$string_output_adapter@D@__crt_stdio_output@@@2@@__crt_stdio_output@@AAEX_K_N@Z 0041e529 f i libucrt:output.obj
 0001:0001d529       ??$type_case_integer_parse_into_buffer@_K$09@?$output_processor@DV?$string_output_adapter@D@__crt_stdio_output@@V?$standard_base@DV?$string_output_adapter@D@__crt_stdio_output@@@2@@__crt_stdio_output@@AAEX_K_N@Z 0041e529 f i libucrt:output.obj
 0001:0001d5bb       ??$type_case_integer_parse_into_buffer@_K$0BA@@?$output_processor@DV?$stream_output_adapter@D@__crt_stdio_output@@V?$standard_base@DV?$stream_output_adapter@D@__crt_stdio_output@@@2@@__crt_stdio_output@@AAEX_K_N@Z 0041e5bb f i libucrt:output.obj
 0001:0001d5bb       ??$type_case_integer_parse_into_buffer@_K$0BA@@?$output_processor@DV?$string_output_adapter@D@__crt_stdio_output@@V?$format_validation_base@DV?$string_output_adapter@D@__crt_stdio_output@@@2@@__crt_stdio_output@@AAEX_K_N@Z 0041e5bb f i libucrt:output.obj
 0001:0001d5bb       ??$type_case_integer_parse_into_buffer@_K$0BA@@?$output_processor@DV?$string_output_adapter@D@__crt_stdio_output@@V?$standard_base@DV?$string_output_adapter@D@__crt_stdio_output@@@2@@__crt_stdio_output@@AAEX_K_N@Z 0041e5bb f i libucrt:output.obj
 0001:0001d641       ??0?$output_adapter_data@DV?$stream_output_adapter@D@__crt_stdio_output@@@__crt_stdio_output@@IAE@ABV?$stream_output_adapter@D@1@_KQBDAAV__crt_cached_ptd_host@@QAD@Z 0041e641 f i libucrt:output.obj
 0001:0001d641       ??0?$output_adapter_data@DV?$string_output_adapter@D@__crt_stdio_output@@@__crt_stdio_output@@IAE@ABV?$string_output_adapter@D@1@_KQBDAAV__crt_cached_ptd_host@@QAD@Z 0041e641 f i libucrt:output.obj
 0001:0001d6a8       ??1formatting_buffer@__crt_stdio_output@@QAE@XZ 0041e6a8 f i libucrt:output.obj
 0001:0001d6c2       ??4?$__crt_unique_heap_ptr@DU__crt_internal_free_policy@@@@QAEAAV0@$$QAV0@@Z 0041e6c2 f i libucrt:output.obj
 0001:0001d782       ?crop_zeroes@__crt_stdio_output@@YAXPADQAU__crt_locale_pointers@@@Z 0041e782 f i libucrt:output.obj
 0001:0001d7ec       ?find_next_state@?$output_processor@DV?$stream_output_adapter@D@__crt_stdio_output@@V?$standard_base@DV?$stream_output_adapter@D@__crt_stdio_output@@@2@@__crt_stdio_output@@ABE?AW4state@2@DW432@@Z 0041e7ec f i libucrt:output.obj
 0001:0001d7ec       ?find_next_state@?$output_processor@DV?$string_output_adapter@D@__crt_stdio_output@@V?$standard_base@DV?$string_output_adapter@D@__crt_stdio_output@@@2@@__crt_stdio_output@@ABE?AW4state@2@DW432@@Z 0041e7ec f i libucrt:output.obj
 0001:0001d827       ?find_next_state@?$output_processor@DV?$string_output_adapter@D@__crt_stdio_output@@V?$format_validation_base@DV?$string_output_adapter@D@__crt_stdio_output@@@2@@__crt_stdio_output@@ABE?AW4state@2@DW432@@Z 0041e827 f i libucrt:output.obj
 0001:0001d864       ?force_decimal_point@__crt_stdio_output@@YAXPADQAU__crt_locale_pointers@@@Z 0041e864 f i libucrt:output.obj
 0001:0001d8c6       ?parse_int_from_format_string@?$output_processor@DV?$stream_output_adapter@D@__crt_stdio_output@@V?$standard_base@DV?$stream_output_adapter@D@__crt_stdio_output@@@2@@__crt_stdio_output@@AAE_NQAH@Z 0041e8c6 f i libucrt:output.obj
 0001:0001d8c6       ?parse_int_from_format_string@?$output_processor@DV?$string_output_adapter@D@__crt_stdio_output@@V?$format_validation_base@DV?$string_output_adapter@D@__crt_stdio_output@@@2@@__crt_stdio_output@@AAE_NQAH@Z 0041e8c6 f i libucrt:output.obj
 0001:0001d8c6       ?parse_int_from_format_string@?$output_processor@DV?$string_output_adapter@D@__crt_stdio_output@@V?$standard_base@DV?$string_output_adapter@D@__crt_stdio_output@@@2@@__crt_stdio_output@@AAE_NQAH@Z 0041e8c6 f i libucrt:output.obj
 0001:0001d93e       ?process@?$output_processor@DV?$stream_output_adapter@D@__crt_stdio_output@@V?$standard_base@DV?$stream_output_adapter@D@__crt_stdio_output@@@2@@__crt_stdio_output@@QAEHXZ 0041e93e f i libucrt:output.obj
 0001:0001dbe6       ?process@?$output_processor@DV?$string_output_adapter@D@__crt_stdio_output@@V?$format_validation_base@DV?$string_output_adapter@D@__crt_stdio_output@@@2@@__crt_stdio_output@@QAEHXZ 0041ebe6 f i libucrt:output.obj
 0001:0001dece       ?process@?$output_processor@DV?$string_output_adapter@D@__crt_stdio_output@@V?$standard_base@DV?$string_output_adapter@D@__crt_stdio_output@@@2@@__crt_stdio_output@@QAEHXZ 0041eece f i libucrt:output.obj
 0001:0001e1a2       ?state_case_size@?$output_processor@DV?$stream_output_adapter@D@__crt_stdio_output@@V?$standard_base@DV?$stream_output_adapter@D@__crt_stdio_output@@@2@@__crt_stdio_output@@AAE_NXZ 0041f1a2 f i libucrt:output.obj
 0001:0001e2fb       ?state_case_size@?$output_processor@DV?$string_output_adapter@D@__crt_stdio_output@@V?$format_validation_base@DV?$string_output_adapter@D@__crt_stdio_output@@@2@@__crt_stdio_output@@AAE_NXZ 0041f2fb f i libucrt:output.obj
 0001:0001e2fb       ?state_case_size@?$output_processor@DV?$string_output_adapter@D@__crt_stdio_output@@V?$standard_base@DV?$string_output_adapter@D@__crt_stdio_output@@@2@@__crt_stdio_output@@AAE_NXZ 0041f2fb f i libucrt:output.obj
 0001:0001e454       ?state_case_type@?$output_processor@DV?$stream_output_adapter@D@__crt_stdio_output@@V?$standard_base@DV?$stream_output_adapter@D@__crt_stdio_output@@@2@@__crt_stdio_output@@AAE_NXZ 0041f454 f i libucrt:output.obj
 0001:0001e84b       ?state_case_type@?$output_processor@DV?$string_output_adapter@D@__crt_stdio_output@@V?$format_validation_base@DV?$string_output_adapter@D@__crt_stdio_output@@@2@@__crt_stdio_output@@AAE_NXZ 0041f84b f i libucrt:output.obj
 0001:0001e84b       ?state_case_type@?$output_processor@DV?$string_output_adapter@D@__crt_stdio_output@@V?$standard_base@DV?$string_output_adapter@D@__crt_stdio_output@@@2@@__crt_stdio_output@@AAE_NXZ 0041f84b f i libucrt:output.obj
 0001:0001ec8a       ?to_integer_size@__crt_stdio_output@@YAIW4length_modifier@1@@Z 0041fc8a f i libucrt:output.obj
 0001:0001ecde       ?type_case_Z@?$output_processor@DV?$stream_output_adapter@D@__crt_stdio_output@@V?$standard_base@DV?$stream_output_adapter@D@__crt_stdio_output@@@2@@__crt_stdio_output@@AAE_NXZ 0041fcde f i libucrt:output.obj
 0001:0001ecde       ?type_case_Z@?$output_processor@DV?$string_output_adapter@D@__crt_stdio_output@@V?$format_validation_base@DV?$string_output_adapter@D@__crt_stdio_output@@@2@@__crt_stdio_output@@AAE_NXZ 0041fcde f i libucrt:output.obj
 0001:0001ecde       ?type_case_Z@?$output_processor@DV?$string_output_adapter@D@__crt_stdio_output@@V?$standard_base@DV?$string_output_adapter@D@__crt_stdio_output@@@2@@__crt_stdio_output@@AAE_NXZ 0041fcde f i libucrt:output.obj
 0001:0001ed51       ?type_case_a@?$output_processor@DV?$stream_output_adapter@D@__crt_stdio_output@@V?$standard_base@DV?$stream_output_adapter@D@__crt_stdio_output@@@2@@__crt_stdio_output@@AAE_NXZ 0041fd51 f i libucrt:output.obj
 0001:0001ed51       ?type_case_a@?$output_processor@DV?$string_output_adapter@D@__crt_stdio_output@@V?$format_validation_base@DV?$string_output_adapter@D@__crt_stdio_output@@@2@@__crt_stdio_output@@AAE_NXZ 0041fd51 f i libucrt:output.obj
 0001:0001ed51       ?type_case_a@?$output_processor@DV?$string_output_adapter@D@__crt_stdio_output@@V?$standard_base@DV?$string_output_adapter@D@__crt_stdio_output@@@2@@__crt_stdio_output@@AAE_NXZ 0041fd51 f i libucrt:output.obj
 0001:0001ef08       ?type_case_c_tchar@?$output_processor@DV?$stream_output_adapter@D@__crt_stdio_output@@V?$standard_base@DV?$stream_output_adapter@D@__crt_stdio_output@@@2@@__crt_stdio_output@@AAE_ND@Z 0041ff08 f i libucrt:output.obj
 0001:0001ef08       ?type_case_c_tchar@?$output_processor@DV?$string_output_adapter@D@__crt_stdio_output@@V?$format_validation_base@DV?$string_output_adapter@D@__crt_stdio_output@@@2@@__crt_stdio_output@@AAE_ND@Z 0041ff08 f i libucrt:output.obj
 0001:0001ef08       ?type_case_c_tchar@?$output_processor@DV?$string_output_adapter@D@__crt_stdio_output@@V?$standard_base@DV?$string_output_adapter@D@__crt_stdio_output@@@2@@__crt_stdio_output@@AAE_ND@Z 0041ff08 f i libucrt:output.obj
 0001:0001ef94       ?type_case_n@?$output_processor@DV?$stream_output_adapter@D@__crt_stdio_output@@V?$standard_base@DV?$stream_output_adapter@D@__crt_stdio_output@@@2@@__crt_stdio_output@@AAE_NXZ 0041ff94 f i libucrt:output.obj
 0001:0001ef94       ?type_case_n@?$output_processor@DV?$string_output_adapter@D@__crt_stdio_output@@V?$format_validation_base@DV?$string_output_adapter@D@__crt_stdio_output@@@2@@__crt_stdio_output@@AAE_NXZ 0041ff94 f i libucrt:output.obj
 0001:0001ef94       ?type_case_n@?$output_processor@DV?$string_output_adapter@D@__crt_stdio_output@@V?$standard_base@DV?$string_output_adapter@D@__crt_stdio_output@@@2@@__crt_stdio_output@@AAE_NXZ 0041ff94 f i libucrt:output.obj
 0001:0001f019       ?type_case_o@?$output_processor@DV?$stream_output_adapter@D@__crt_stdio_output@@V?$standard_base@DV?$stream_output_adapter@D@__crt_stdio_output@@@2@@__crt_stdio_output@@AAE_NXZ 00420019 f i libucrt:output.obj
 0001:0001f019       ?type_case_o@?$output_processor@DV?$string_output_adapter@D@__crt_stdio_output@@V?$format_validation_base@DV?$string_output_adapter@D@__crt_stdio_output@@@2@@__crt_stdio_output@@AAE_NXZ 00420019 f i libucrt:output.obj
 0001:0001f019       ?type_case_o@?$output_processor@DV?$string_output_adapter@D@__crt_stdio_output@@V?$standard_base@DV?$string_output_adapter@D@__crt_stdio_output@@@2@@__crt_stdio_output@@AAE_NXZ 00420019 f i libucrt:output.obj
 0001:0001f036       ?type_case_p@?$output_processor@DV?$stream_output_adapter@D@__crt_stdio_output@@V?$standard_base@DV?$stream_output_adapter@D@__crt_stdio_output@@@2@@__crt_stdio_output@@AAE_NXZ 00420036 f i libucrt:output.obj
 0001:0001f036       ?type_case_p@?$output_processor@DV?$string_output_adapter@D@__crt_stdio_output@@V?$format_validation_base@DV?$string_output_adapter@D@__crt_stdio_output@@@2@@__crt_stdio_output@@AAE_NXZ 00420036 f i libucrt:output.obj
 0001:0001f036       ?type_case_p@?$output_processor@DV?$string_output_adapter@D@__crt_stdio_output@@V?$standard_base@DV?$string_output_adapter@D@__crt_stdio_output@@@2@@__crt_stdio_output@@AAE_NXZ 00420036 f i libucrt:output.obj
 0001:0001f04c       ?type_case_s@?$output_processor@DV?$stream_output_adapter@D@__crt_stdio_output@@V?$standard_base@DV?$stream_output_adapter@D@__crt_stdio_output@@@2@@__crt_stdio_output@@AAE_NXZ 0042004c f i libucrt:output.obj
 0001:0001f04c       ?type_case_s@?$output_processor@DV?$string_output_adapter@D@__crt_stdio_output@@V?$format_validation_base@DV?$string_output_adapter@D@__crt_stdio_output@@@2@@__crt_stdio_output@@AAE_NXZ 0042004c f i libucrt:output.obj
 0001:0001f04c       ?type_case_s@?$output_processor@DV?$string_output_adapter@D@__crt_stdio_output@@V?$standard_base@DV?$string_output_adapter@D@__crt_stdio_output@@@2@@__crt_stdio_output@@AAE_NXZ 0042004c f i libucrt:output.obj
 0001:0001f0bf       ?unget@?$c_string_character_source@D@__crt_strtox@@QAEXD@Z 004200bf f i libucrt:output.obj
 0001:0001f0e8       ?unget@?$c_string_character_source@_W@__crt_strtox@@QAEX_W@Z 004200e8 f i libucrt:output.obj
 0001:0001f120       ?update_locale_slow@__crt_cached_ptd_host@@AAEXXZ 00420120 f i libucrt:output.obj
 0001:0001f17b       ?validate@?$c_string_character_source@D@__crt_strtox@@QBE_NXZ 0042017b f i libucrt:output.obj
 0001:0001f17b       ?validate@?$c_string_character_source@_W@__crt_strtox@@QBE_NXZ 0042017b f i libucrt:output.obj
 0001:0001f196       ?validate@?$stream_output_adapter@D@__crt_stdio_output@@QBE_NAAV__crt_cached_ptd_host@@@Z 00420196 f i libucrt:output.obj
 0001:0001f1ce       ?validate@?$string_output_adapter@D@__crt_stdio_output@@QBE_NAAV__crt_cached_ptd_host@@@Z 004201ce f i libucrt:output.obj
 0001:0001f1ff       ?validate_stream_is_ansi_if_required@?$__acrt_stdio_char_traits@D@@SA_NQAU_iobuf@@@Z 004201ff f i libucrt:output.obj
 0001:0001f286       ?write_character@?$output_adapter_common@DV?$stream_output_adapter@D@__crt_stdio_output@@@__crt_stdio_output@@QBEXDQAHAAV__crt_cached_ptd_host@@@Z 00420286 f i libucrt:output.obj
 0001:0001f2a8       ?write_character_without_count_update@?$stream_output_adapter@D@__crt_stdio_output@@QBE_NDAAV__crt_cached_ptd_host@@@Z 004202a8 f i libucrt:output.obj
 0001:0001f2e2       ?write_string@?$stream_output_adapter@D@__crt_stdio_output@@QBEXQBDHQAHAAV__crt_cached_ptd_host@@@Z 004202e2 f i libucrt:output.obj
 0001:0001f30e       ?write_string@?$string_output_adapter@D@__crt_stdio_output@@QBEXQBDHQAHAAV__crt_cached_ptd_host@@@Z 0042030e f i libucrt:output.obj
 0001:0001f37d       ?write_string_impl@?$output_adapter_common@DV?$stream_output_adapter@D@__crt_stdio_output@@@__crt_stdio_output@@IBEXQBDHQAHAAV__crt_cached_ptd_host@@@Z 0042037d f i libucrt:output.obj
 0001:0001f3fc       ___stdio_common_vfprintf   004203fc f   libucrt:output.obj
 0001:0001f4a0       ___stdio_common_vsprintf   004204a0 f   libucrt:output.obj
 0001:0001f4e1       ___stdio_common_vsprintf_s 004204e1 f   libucrt:output.obj
 0001:0001f6fe       _puts                      004206fe f   libucrt:puts.obj
 0001:0001f730       _qsort                     00420730 f   libucrt:qsort.obj
 0001:0001fb6c       _localeconv                00420b6c f   libucrt:localeconv.obj
 0001:0001fc3b       __fwrite_internal          00420c3b f   libucrt:fwrite.obj
 0001:0001fcb2       __fwrite_nolock_internal   00420cb2 f   libucrt:fwrite.obj
 0001:0001fe46       _fwrite                    00420e46 f   libucrt:fwrite.obj
 0001:0001fe80       _bsearch                   00420e80 f   libucrt:bsearch.obj
 0001:0001ff33       ??$is_overflow_condition@_K@__crt_strtox@@YA_NI_K@Z 00420f33 f i libucrt:strtox.obj
 0001:0001ff74       ??$parse_integer@KV?$c_string_character_source@D@__crt_strtox@@$00@__crt_strtox@@YAKAAV__crt_cached_ptd_host@@V?$c_string_character_source@D@0@H_N@Z 00420f74 f i libucrt:strtox.obj
 0001:000201bf       ??$parse_integer@KV?$c_string_character_source@_W@__crt_strtox@@$00@__crt_strtox@@YAKAAV__crt_cached_ptd_host@@V?$c_string_character_source@_W@0@H_N@Z 004211bf f i libucrt:strtox.obj
 0001:000207e2       ??$parse_integer@_KV?$c_string_character_source@D@__crt_strtox@@$00@__crt_strtox@@YA_KAAV__crt_cached_ptd_host@@V?$c_string_character_source@D@0@H_N@Z 004217e2 f i libucrt:strtox.obj
 0001:00020a92       __ischartype_l             00421a92 f i libucrt:strtox.obj
 0001:00020ae9       _strtol                    00421ae9 f   libucrt:strtox.obj
 0001:00020b2f       _strtoul                   00421b2f f   libucrt:strtox.obj
 0001:00020b75       _strtoull                  00421b75 f   libucrt:strtox.obj
 0001:00020bc1       _wcstol                    00421bc1 f   libucrt:strtox.obj
 0001:00020c40       __stricmp                  00421c40 f   libucrt:stricmp.obj
 0001:00020cc0       __stricmp_l                00421cc0 f   libucrt:stricmp.obj
 0001:00020de0       __time64                   00421de0 f   libucrt:time.obj
 0001:00020e50       _free                      00421e50 f   libucrt:free.obj
 0001:00020e55       __wtol                     00421e55 f   libucrt:atox.obj
 0001:00020e94       _atoi                      00421e94 f   libucrt:atox.obj
 0001:00020ee0       __decomp                   00421ee0 f i libucrt:frexp.obj
 0001:00020ff0       __sptype                   00421ff0 f i libucrt:frexp.obj
 0001:00021070       _frexp                     00422070 f   libucrt:frexp.obj
 0001:00021240       _strspn                    00422240 f   libucrt:strspn.obj
 0001:00021286       ??$assemble_floating_point_snan@N@__crt_strtox@@YAX_NAAN@Z 00422286 f i libucrt:input.obj
 0001:000212a7       ??$assemble_floating_point_value_t@M@__crt_strtox@@YA?AW4SLD_STATUS@@_NH_KAAM@Z 004222a7 f i libucrt:input.obj
 0001:000212e6       ??$assemble_floating_point_value_t@N@__crt_strtox@@YA?AW4SLD_STATUS@@_NH_KAAN@Z 004222e6 f i libucrt:input.obj
 0001:000213dc       ??$convert_decimal_string_to_floating_type@M@__crt_strtox@@YA?AW4SLD_STATUS@@ABUfloating_point_string@0@AAM@Z 004223dc f i libucrt:input.obj
 0001:000213fd       ??$convert_decimal_string_to_floating_type@N@__crt_strtox@@YA?AW4SLD_STATUS@@ABUfloating_point_string@0@AAN@Z 004223fd f i libucrt:input.obj
 0001:0002141e       ??$convert_hexadecimal_string_to_floating_type@M@__crt_strtox@@YA?AW4SLD_STATUS@@ABUfloating_point_string@0@AAM@Z 0042241e f i libucrt:input.obj
 0001:0002143f       ??$convert_hexadecimal_string_to_floating_type@N@__crt_strtox@@YA?AW4SLD_STATUS@@ABUfloating_point_string@0@AAN@Z 0042243f f i libucrt:input.obj
 0001:00021460       ??$make_input_adapter_character_source@V?$string_input_adapter@D@__crt_stdio_input@@@__crt_strtox@@YA?AV?$input_adapter_character_source@V?$string_input_adapter@D@__crt_stdio_input@@@0@QAV?$string_input_adapter@D@__crt_stdio_input@@_KQA_N@Z 00422460 f i libucrt:input.obj
 0001:0002147e       ??$parse_floating_point@V?$input_adapter_character_source@V?$string_input_adapter@D@__crt_stdio_input@@@__crt_strtox@@M@__crt_strtox@@YA?AW4SLD_STATUS@@QAU__crt_locale_pointers@@V?$input_adapter_character_source@V?$string_input_adapter@D@__crt_stdio_input@@@0@QAM@Z 0042247e f i libucrt:input.obj
 0001:00021508       ??$parse_floating_point@V?$input_adapter_character_source@V?$string_input_adapter@D@__crt_stdio_input@@@__crt_strtox@@N@__crt_strtox@@YA?AW4SLD_STATUS@@QAU__crt_locale_pointers@@V?$input_adapter_character_source@V?$string_input_adapter@D@__crt_stdio_input@@@0@QAN@Z 00422508 f i libucrt:input.obj
 0001:00021592       ??$parse_floating_point_from_source@V?$input_adapter_character_source@V?$string_input_adapter@D@__crt_stdio_input@@@__crt_strtox@@@__crt_strtox@@YA?AW4floating_point_parse_result@0@QAU__crt_locale_pointers@@AAV?$input_adapter_character_source@V?$string_input_adapter@D@__crt_stdio_input@@@0@AAUfloating_point_string@0@@Z 00422592 f i libucrt:input.obj
 0001:000219ff       ??$parse_floating_point_possible_infinity@DV?$input_adapter_character_source@V?$string_input_adapter@D@__crt_stdio_input@@@__crt_strtox@@_K@__crt_strtox@@YA?AW4floating_point_parse_result@0@AADAAV?$input_adapter_character_source@V?$string_input_adapter@D@__crt_stdio_input@@@0@_K@Z 004229ff f i libucrt:input.obj
 0001:00021aba       ??$parse_floating_point_possible_nan@DV?$input_adapter_character_source@V?$string_input_adapter@D@__crt_stdio_input@@@__crt_strtox@@_K@__crt_strtox@@YA?AW4floating_point_parse_result@0@AADAAV?$input_adapter_character_source@V?$string_input_adapter@D@__crt_stdio_input@@@0@_K@Z 00422aba f i libucrt:input.obj
 0001:00021bc2       ??$parse_floating_point_possible_nan_is_ind@DV?$input_adapter_character_source@V?$string_input_adapter@D@__crt_stdio_input@@@__crt_strtox@@@__crt_strtox@@YA_NAADAAV?$input_adapter_character_source@V?$string_input_adapter@D@__crt_stdio_input@@@0@@Z 00422bc2 f i libucrt:input.obj
 0001:00021bfc       ??$parse_floating_point_possible_nan_is_snan@DV?$input_adapter_character_source@V?$string_input_adapter@D@__crt_stdio_input@@@__crt_strtox@@@__crt_strtox@@YA_NAADAAV?$input_adapter_character_source@V?$string_input_adapter@D@__crt_stdio_input@@@0@@Z 00422bfc f i libucrt:input.obj
 0001:00021c36       ??$parse_floating_point_write_result@M@__crt_strtox@@YA?AW4SLD_STATUS@@W4floating_point_parse_result@0@ABUfloating_point_string@0@QAM@Z 00422c36 f i libucrt:input.obj
 0001:00021d7e       ??$parse_floating_point_write_result@N@__crt_strtox@@YA?AW4SLD_STATUS@@W4floating_point_parse_result@0@ABUfloating_point_string@0@QAN@Z 00422d7e f i libucrt:input.obj
 0001:00021ea2       ??$parse_integer@_KV?$input_adapter_character_source@V?$string_input_adapter@D@__crt_stdio_input@@@__crt_strtox@@$00@__crt_strtox@@YA_KAAV__crt_cached_ptd_host@@V?$input_adapter_character_source@V?$string_input_adapter@D@__crt_stdio_input@@@0@H_N@Z 00422ea2 f i libucrt:input.obj
 0001:00022196       ??$parse_integer@_KV?$input_adapter_character_source@V?$string_input_adapter@D@__crt_stdio_input@@@__crt_strtox@@@__crt_strtox@@YA_KQAU__crt_locale_pointers@@V?$input_adapter_character_source@V?$string_input_adapter@D@__crt_stdio_input@@@0@H_N@Z 00423196 f i libucrt:input.obj
 0001:000221f2       ??$process_floating_point_specifier_t@M@?$input_processor@DV?$string_input_adapter@D@__crt_stdio_input@@@__crt_stdio_input@@AAE_NXZ 004231f2 f i libucrt:input.obj
 0001:0002225a       ??$process_floating_point_specifier_t@N@?$input_processor@DV?$string_input_adapter@D@__crt_stdio_input@@@__crt_stdio_input@@AAE_NXZ 0042325a f i libucrt:input.obj
 0001:000222c6       ??$process_string_specifier_tchar@D@?$input_processor@DV?$string_input_adapter@D@__crt_stdio_input@@@__crt_stdio_input@@AAE_NW4conversion_mode@1@D@Z 004232c6 f i libucrt:input.obj
 0001:00022432       ??$process_string_specifier_tchar@_W@?$input_processor@DV?$string_input_adapter@D@__crt_stdio_input@@@__crt_stdio_input@@AAE_NW4conversion_mode@1@_W@Z 00423432 f i libucrt:input.obj
 0001:000225aa       ??$skip_whitespace@Vstring_input_adapter@__crt_stdio_input@@D@__crt_stdio_input@@YAHAAV?$string_input_adapter@D@0@QAU__crt_locale_pointers@@@Z 004235aa f i libucrt:input.obj
 0001:000225d9       ??$write_floating_point@M@?$input_processor@DV?$string_input_adapter@D@__crt_stdio_input@@@__crt_stdio_input@@AAE_NABM@Z 004235d9 f i libucrt:input.obj
 0001:0002260e       ??$write_floating_point@N@?$input_processor@DV?$string_input_adapter@D@__crt_stdio_input@@@__crt_stdio_input@@AAE_NABN@Z 0042360e f i libucrt:input.obj
 0001:00022649       ??0?$format_string_parser@D@__crt_stdio_input@@QAE@_KQBE@Z 00423649 f i libucrt:input.obj
 0001:00022693       ??0?$input_adapter_character_source@V?$string_input_adapter@D@__crt_stdio_input@@@__crt_strtox@@QAE@$$QAV01@@Z 00423693 f i libucrt:input.obj
 0001:000226d0       ??0?$input_adapter_character_source@V?$string_input_adapter@D@__crt_stdio_input@@@__crt_strtox@@QAE@QAV?$string_input_adapter@D@__crt_stdio_input@@_KQA_N@Z 004236d0 f i libucrt:input.obj
 0001:00022701       ??0?$input_processor@DV?$string_input_adapter@D@__crt_stdio_input@@@__crt_stdio_input@@QAE@ABV?$string_input_adapter@D@1@_KQBDQAU__crt_locale_pointers@@QAD@Z 00423701 f i libucrt:input.obj
 0001:00022745       ??R<lambda_644f8ab42ed3fd1d660977a2364b3a7d>@@QBE@XZ 00423745 f i libucrt:input.obj
 0001:00022745       ??R<lambda_f1fa4c266c18b246f3ed9c36247dab4f>@@QBE@XZ 00423745 f i libucrt:input.obj
 0001:00022745       ??R<lambda_f765c90ab33e8386abf09c0f079d37e9>@@QBE@XZ 00423745 f i libucrt:input.obj
 0001:0002276f       ?advance@?$format_string_parser@D@__crt_stdio_input@@QAE_NXZ 0042376f f i libucrt:input.obj
 0001:00022887       ?as_double@floating_point_value@__crt_strtox@@QBEAANXZ 00423887 f i libucrt:input.obj
 0001:000228ac       ?as_float@floating_point_value@__crt_strtox@@QBEAAMXZ 004238ac f i libucrt:input.obj
 0001:000228d1       ?assemble_floating_point_infinity@__crt_strtox@@YAX_NABVfloating_point_value@1@@Z 004238d1 f i libucrt:input.obj
 0001:00022911       ?assemble_floating_point_value@__crt_strtox@@YA?AW4SLD_STATUS@@_KH_N1ABVfloating_point_value@1@@Z 00423911 f i libucrt:input.obj
 0001:00022caa       ?assemble_floating_point_value_from_big_integer@__crt_strtox@@YA?AW4SLD_STATUS@@ABUbig_integer@1@I_N1ABVfloating_point_value@1@@Z 00423caa f i libucrt:input.obj
 0001:00022e47       ?assemble_floating_point_zero@__crt_strtox@@YAX_NABVfloating_point_value@1@@Z 00423e47 f i libucrt:input.obj
 0001:00022e7c       ?convert_decimal_string_to_floating_type_common@__crt_strtox@@YA?AW4SLD_STATUS@@ABUfloating_point_string@1@ABVfloating_point_value@1@@Z 00423e7c f i libucrt:input.obj
 0001:00024b7b       ?convert_hexadecimal_string_to_floating_type_common@__crt_strtox@@YA?AW4SLD_STATUS@@ABUfloating_point_string@1@ABVfloating_point_value@1@@Z 00425b7b f i libucrt:input.obj
 0001:00024c2c       ?denormal_mantissa_mask@floating_point_value@__crt_strtox@@QBE_KXZ 00425c2c f i libucrt:input.obj
 0001:00024c50       ?divide@__crt_strtox@@YA_KAAUbig_integer@1@ABU21@@Z 00425c50 f i libucrt:input.obj
 0001:00025127       ?get@?$input_adapter_character_source@V?$string_input_adapter@D@__crt_stdio_input@@@__crt_strtox@@QAEDXZ 00426127 f i libucrt:input.obj
 0001:00025168       ?get@?$string_input_adapter@D@__crt_stdio_input@@QAEHXZ 00426168 f i libucrt:input.obj
 0001:0002517e       ?is_character_allowed_in_string@?$input_processor@DV?$string_input_adapter@D@__crt_stdio_input@@@__crt_stdio_input@@ABE_NW4conversion_mode@2@H@Z 0042617e f i libucrt:input.obj
 0001:000251ce       ?length@?$format_string_parser@D@__crt_stdio_input@@QBEIXZ 004261ce f i libucrt:input.obj
 0001:0002521c       ?normal_mantissa_mask@floating_point_value@__crt_strtox@@QBE_KXZ 0042621c f i libucrt:input.obj
 0001:00025233       ?process@?$input_processor@DV?$string_input_adapter@D@__crt_stdio_input@@@__crt_stdio_input@@QAEHXZ 00426233 f i libucrt:input.obj
 0001:000252b8       ?process_character_count_specifier@?$input_processor@DV?$string_input_adapter@D@__crt_stdio_input@@@__crt_stdio_input@@AAE_NXZ 004262b8 f i libucrt:input.obj
 0001:000252d0       ?process_conversion_specifier@?$input_processor@DV?$string_input_adapter@D@__crt_stdio_input@@@__crt_stdio_input@@AAE_NXZ 004262d0 f i libucrt:input.obj
 0001:00025344       ?process_floating_point_specifier@?$input_processor@DV?$string_input_adapter@D@__crt_stdio_input@@@__crt_stdio_input@@AAE_NXZ 00426344 f i libucrt:input.obj
 0001:00025374       ?process_integer_specifier@?$input_processor@DV?$string_input_adapter@D@__crt_stdio_input@@@__crt_stdio_input@@AAE_NI_N@Z 00426374 f i libucrt:input.obj
 0001:000253d9       ?process_literal_character@?$input_processor@DV?$string_input_adapter@D@__crt_stdio_input@@@__crt_stdio_input@@AAE_NXZ 004263d9 f i libucrt:input.obj
 0001:0002540f       ?process_literal_character_tchar@?$input_processor@DV?$string_input_adapter@D@__crt_stdio_input@@@__crt_stdio_input@@AAE_ND@Z 0042640f f i libucrt:input.obj
 0001:0002545d       ?process_state@?$input_processor@DV?$string_input_adapter@D@__crt_stdio_input@@@__crt_stdio_input@@AAE_NXZ 0042645d f i libucrt:input.obj
 0001:0002549f       ?process_string_specifier@?$input_processor@DV?$string_input_adapter@D@__crt_stdio_input@@@__crt_stdio_input@@AAE_NW4conversion_mode@2@@Z 0042649f f i libucrt:input.obj
 0001:000254e7       ?process_whitespace@?$input_processor@DV?$string_input_adapter@D@__crt_stdio_input@@@__crt_stdio_input@@AAE_NXZ 004264e7 f i libucrt:input.obj
 0001:00025504       ?restore_state@?$input_adapter_character_source@V?$string_input_adapter@D@__crt_stdio_input@@@__crt_strtox@@QAE_N_K@Z 00426504 f i libucrt:input.obj
 0001:00025529       ?scan_conversion_specifier@?$format_string_parser@D@__crt_stdio_input@@AAE_NXZ 00426529 f i libucrt:input.obj
 0001:000256a5       ?scan_optional_field_width@?$format_string_parser@D@__crt_stdio_input@@AAE_NXZ 004266a5 f i libucrt:input.obj
 0001:00025739       ?scan_optional_length_modifier@?$format_string_parser@D@__crt_stdio_input@@AAEXXZ 00426739 f i libucrt:input.obj
 0001:0002584e       ?scan_optional_literal_character_trail_bytes_tchar@?$format_string_parser@D@__crt_stdio_input@@AAE_ND@Z 0042684e f i libucrt:input.obj
 0001:000258a0       ?scan_optional_wide_modifier@?$format_string_parser@D@__crt_stdio_input@@AAEXXZ 004268a0 f i libucrt:input.obj
 0001:000258be       ?scan_scanset_range@?$format_string_parser@D@__crt_stdio_input@@AAE_NXZ 004268be f i libucrt:input.obj
 0001:00025a0e       ?set@?$scanset_buffer@E@__crt_stdio_input@@QAEXE@Z 00426a0e f i libucrt:input.obj
 0001:00025a39       ?set_wide_for_c_s_or_scanset@?$format_string_parser@D@__crt_stdio_input@@AAEXXZ 00426a39 f i libucrt:input.obj
 0001:00025a5a       ?to_floating_point_length@__crt_stdio_input@@YAIW4length_modifier@1@@Z 00426a5a f i libucrt:input.obj
 0001:00025a7d       ?to_integer_length@__crt_stdio_input@@YAIW4length_modifier@1@@Z 00426a7d f i libucrt:input.obj
 0001:00025ad0       ?unget@?$input_adapter_character_source@V?$string_input_adapter@D@__crt_stdio_input@@@__crt_strtox@@QAEXD@Z 00426ad0 f i libucrt:input.obj
 0001:00025b17       ?unget@?$string_input_adapter@D@__crt_stdio_input@@QAEXH@Z 00426b17 f i libucrt:input.obj
 0001:00025b36       ?validate@?$format_string_parser@D@__crt_stdio_input@@QBE_NXZ 00426b36 f i libucrt:input.obj
 0001:00025b52       ?validate@?$input_adapter_character_source@V?$string_input_adapter@D@__crt_stdio_input@@@__crt_strtox@@QBE_NXZ 00426b52 f i libucrt:input.obj
 0001:00025b73       ?validate@?$string_input_adapter@D@__crt_stdio_input@@QAE_NXZ 00426b73 f i libucrt:input.obj
 0001:00025b95       ?write_character@?$input_processor@DV?$string_input_adapter@D@__crt_stdio_input@@@__crt_stdio_input@@AAE_NQA_WIAAPA_WAAID@Z 00426b95 f i libucrt:input.obj
 0001:00025c02       ?write_integer@?$input_processor@DV?$string_input_adapter@D@__crt_stdio_input@@@__crt_stdio_input@@AAE_N_K@Z 00426c02 f i libucrt:input.obj
 0001:00025c71       ___stdio_common_vsscanf    00426c71 f   libucrt:input.obj
 0001:00025ec8       ___acrt_get_sigabrt_handler 00426ec8 f   libucrt:signal.obj
 0001:00025eef       ___acrt_initialize_signal_handlers 00426eef f   libucrt:signal.obj
 0001:00025f0d       _raise                     00426f0d f   libucrt:signal.obj
 0001:000260ff       _signal                    004270ff f   libucrt:signal.obj
 0001:00026910       __ftelli64_nolock_internal 00427910 f   libucrt:ftell.obj
 0001:0002691b       _ftell                     0042791b f   libucrt:ftell.obj
 0001:00026a7f       __fputc_nolock_internal    00427a7f f   libucrt:fputc.obj
 0001:00026aac       _fputc                     00427aac f   libucrt:fputc.obj
 0001:00026ae0       _strpbrk                   00427ae0 f   libucrt:strpbrk.obj
 0001:00026d58       ___acrt_stdio_flush_nolock 00427d58 f   libucrt:fflush.obj
 0001:00026dc1       __fflush_nolock            00427dc1 f   libucrt:fflush.obj
 0001:00026e26       __flushall                 00427e26 f   libucrt:fflush.obj
 0001:00026e2f       _fflush                    00427e2f f   libucrt:fflush.obj
 0001:00026e82       ?LongLongSub@@YAJ_J0PA_J@Z 00427e82 f i libucrt:fseek.obj
 0001:00027173       _fseek                     00428173 f   libucrt:fseek.obj
 0001:000271ad       __fgetc_nolock             004281ad f   libucrt:fgetc.obj
 0001:000271e9       __getc_nolock              004281e9 f   libucrt:fgetc.obj
 0001:000271f4       _fgetc                     004281f4 f   libucrt:fgetc.obj
 0001:000273df       _fgets                     004283df f   libucrt:fgets.obj
 0001:000273ea       _rename                    004283ea f   libucrt:rename.obj
 0001:00027657       _fputs                     00428657 f   libucrt:fputs.obj
 0001:0002768b       _feof                      0042868b f   libucrt:feoferr.obj
 0001:000276b7       __fread_nolock_s           004286b7 f   libucrt:fread.obj
 0001:0002788b       _fread                     0042888b f   libucrt:fread.obj
 0001:000278a8       _fread_s                   004288a8 f   libucrt:fread.obj
 0001:00027aa1       __beginthreadex            00428aa1 f   libucrt:thread.obj
 0001:00027b24       __endthreadex              00428b24 f   libucrt:thread.obj
 0001:00027b32       ??$__acrt_convert_wcs_mbs_cp@_WDV<lambda_0fec1a7b3f42a53036604e18c2d5e07e>@@U__crt_win32_buffer_no_resizing@@@@YAHQB_WAAV?$__crt_win32_buffer@DU__crt_win32_buffer_no_resizing@@@@ABV<lambda_0fec1a7b3f42a53036604e18c2d5e07e>@@I@Z 00428b32 f i libucrt:strftime.obj
 0001:00027bf4       ??$__acrt_wcs_to_mbs_cp@U__crt_win32_buffer_no_resizing@@@@YAHQB_WAAV?$__crt_win32_buffer@DU__crt_win32_buffer_no_resizing@@@@I@Z 00428bf4 f i libucrt:strftime.obj
 0001:00027c11       ??R<lambda_0fec1a7b3f42a53036604e18c2d5e07e>@@QBE@IQB_WQADI@Z 00428c11 f i libucrt:strftime.obj
 0001:00027c11       ??R<lambda_28bda7af82a03b66c1cb3803a755f95d>@@QBE@IQB_WQADI@Z 00428c11 f i libucrt:argv_wildcards.obj
 0001:00027c11       ??R<lambda_fecc33a432ccb74a901dff60d61ca385>@@QBE@IQB_WQADI@Z 00428c11 f i libucrt:getcwd.obj
 0001:00027c35       ?allocate@?$__crt_win32_buffer@DU__crt_win32_buffer_no_resizing@@@@QAEHI@Z 00428c35 f i libucrt:strftime.obj
 0001:00027c5c       ?set_to_nullptr@?$__crt_win32_buffer@DU__crt_win32_buffer_no_resizing@@@@QAEXXZ 00428c5c f i libucrt:strftime.obj
 0001:00027c70       __Strftime_l               00428c70 f   libucrt:strftime.obj
 0001:00027d6c       _strftime                  00428d6c f   libucrt:strftime.obj
 0001:00027d8b       ??$__crt_time_elapsed_leap_years@H@@YAHH@Z 00428d8b f i libucrt:gmtime.obj
 0001:00027dc5       ??$__crt_time_is_leap_year@H@@YA_NH@Z 00428dc5 f i libucrt:gmtime.obj
 0001:0002800c       ___getgmtimebuf            0042900c f   libucrt:gmtime.obj
 0001:0002804a       __gmtime64                 0042904a f   libucrt:gmtime.obj
 0001:00028072       __gmtime64_s               00429072 f   libucrt:gmtime.obj
 0001:0002830e       __localtime64              0042930e f   libucrt:localtime.obj
 0001:00028451       _system                    00429451 f   libucrt:system.obj
 0001:0002845c       ??$__acrt_convert_wcs_mbs_cp@_WDV<lambda_fecc33a432ccb74a901dff60d61ca385>@@U__crt_win32_buffer_public_dynamic_resizing@@@@YAHQB_WAAV?$__crt_win32_buffer@DU__crt_win32_buffer_public_dynamic_resizing@@@@ABV<lambda_fecc33a432ccb74a901dff60d61ca385>@@I@Z 0042945c f i libucrt:getcwd.obj
 0001:00028522       ??$__acrt_get_full_path_name_narrow_acp_or_utf8@U__crt_win32_buffer_no_resizing@@@@YAHQBDAAV?$__crt_win32_buffer@DU__crt_win32_buffer_no_resizing@@@@@Z 00429522 f i libucrt:getcwd.obj
 0001:00028629       ??$__acrt_get_full_path_name_narrow_acp_or_utf8@U__crt_win32_buffer_public_dynamic_resizing@@@@YAHQBDAAV?$__crt_win32_buffer@DU__crt_win32_buffer_public_dynamic_resizing@@@@@Z 00429629 f i libucrt:getcwd.obj
 0001:00028730       ??$__acrt_get_full_path_name_wide@U__crt_win32_buffer_internal_dynamic_resizing@@@@YAHQB_WAAV?$__crt_win32_buffer@_WU__crt_win32_buffer_internal_dynamic_resizing@@@@@Z 00429730 f i libucrt:getcwd.obj
 0001:0002874a       ??$__acrt_wcs_to_mbs_cp@U__crt_win32_buffer_public_dynamic_resizing@@@@YAHQB_WAAV?$__crt_win32_buffer@DU__crt_win32_buffer_public_dynamic_resizing@@@@I@Z 0042974a f i libucrt:getcwd.obj
 0001:00028767       ??$call_win32_function@V<lambda_44f1df80ccead0226c26eac3423fba1d>@@@?$__crt_win32_buffer@_WU__crt_win32_buffer_internal_dynamic_resizing@@@@QAEHABV<lambda_44f1df80ccead0226c26eac3423fba1d>@@@Z 00429767 f i libucrt:getcwd.obj
 0001:000288fc       ?_deallocate@?$__crt_win32_buffer@DU__crt_win32_buffer_public_dynamic_resizing@@@@AAEXXZ 004298fc f i libucrt:getcwd.obj
 0001:00028916       ?allocate@?$__crt_win32_buffer@DU__crt_win32_buffer_public_dynamic_resizing@@@@QAEHI@Z 00429916 f i libucrt:getcwd.obj
 0001:00028952       ?allocate@__crt_win32_buffer_public_dynamic_resizing@@SAHQAPAXIABV__crt_win32_buffer_debug_info@@@Z 00429952 f i libucrt:getcwd.obj
 0001:00028973       ?detach@?$__crt_win32_buffer@DU__crt_win32_buffer_public_dynamic_resizing@@@@QAEPADXZ 00429973 f i libucrt:getcwd.obj
 0001:00028a4e       __getcwd                   00429a4e f   libucrt:getcwd.obj
 0001:00028a70       _strncpy                   00429a70 f   libucrt:strncpy.obj
 0001:00028c48       __get_sys_err_msg          00429c48 f i libucrt:perror.obj
 0001:00028ca0       _perror                    00429ca0 f   libucrt:perror.obj
 0001:00028cd0       _malloc                    00429cd0 f   libucrt:malloc.obj
 0001:00028cdb       _abort                     00429cdb f   libucrt:abort.obj
 0001:00028d1f       ___acrt_initialize_locks   00429d1f f   libucrt:locks.obj
 0001:00028d60       ___acrt_lock               00429d60 f   libucrt:locks.obj
 0001:00028d77       ___acrt_uninitialize_locks 00429d77 f   libucrt:locks.obj
 0001:00028da8       ___acrt_unlock             00429da8 f   libucrt:locks.obj
 0001:00028dbf       __lock_locales             00429dbf f   libucrt:locks.obj
 0001:00028dcd       __unlock_locales           00429dcd f   libucrt:locks.obj
 0001:00028dd6       ___pctype_func             00429dd6 f   libucrt:ctype.obj
 0001:00028dfa       ____lc_codepage_func       00429dfa f   libucrt:initctype.obj
 0001:00028e1f       ____lc_locale_name_func    00429e1f f   libucrt:initctype.obj
 0001:00028e46       ____mb_cur_max_func        00429e46 f   libucrt:initctype.obj
 0001:00028e6b       ___acrt_locale_initialize_ctype 00429e6b f   libucrt:initctype.obj
 0001:000292d0       __wcsdup                   0042a2d0 f   libucrt:wcsdup.obj
 0001:000293b4       ___acrt_errno_from_os_error 0042a3b4 f   libucrt:errno.obj
 0001:00029413       ___acrt_errno_map_os_error 0042a413 f   libucrt:errno.obj
 0001:00029436       ___acrt_errno_map_os_error_ptd 0042a436 f   libucrt:errno.obj
 0001:0002945a       ___doserrno                0042a45a f   libucrt:errno.obj
 0001:0002946f       __errno                    0042a46f f   libucrt:errno.obj
 0001:00029490       _realloc                   0042a490 f   libucrt:realloc.obj
 0001:000294a0       __dclass                   0042a4a0 f i libucrt:nan.obj
 0001:000294a0       __ldclass                  0042a4a0 f i libucrt:nanl.obj
 0001:000294c0       ___strncnt                 0042a4c0 f   libucrt:strncnt.obj
 0001:0002a51f       __Wcsftime_l               0042b51f f   libucrt:wcsftime.obj
 0001:0002a680       _strnlen                   0042b680 f   libucrt:strnlen.obj
 0001:0002a7e0       _wcsnlen                   0042b7e0 f   libucrt:strnlen.obj
 0001:0002a9c0       __callnewh                 0042b9c0 f   libucrt:new_handler.obj
 0001:0002aa00       ___acrt_initialize_new_handler 0042ba00 f   libucrt:new_handler.obj
 0001:0002aa20       __query_new_handler        0042ba20 f   libucrt:new_handler.obj
 0001:0002aa80       __set_new_handler          0042ba80 f   libucrt:new_handler.obj
 0001:0002aaf0       ?_set_new_handler@@YAP6AHI@ZH@Z 0042baf0 f   libucrt:new_handler.obj
 0001:0002aafd       __seh_filter_exe           0042bafd f   libucrt:exception_filter.obj
 0001:0002aef2       ___acrt_allocate_buffer_for_argv 0042bef2 f   libucrt:argv_parsing.obj
 0001:0002af41       __configure_narrow_argv    0042bf41 f   libucrt:argv_parsing.obj
 0001:0002b3c4       ___dcrt_get_or_create_narrow_environment_nolock 0042c3c4 f   libucrt:environment_initialization.obj
 0001:0002b3c9       ___dcrt_get_or_create_wide_environment_nolock 0042c3c9 f   libucrt:environment_initialization.obj
 0001:0002b3ce       ___dcrt_uninitialize_environments_nolock 0042c3ce f   libucrt:environment_initialization.obj
 0001:0002b41f       __get_initial_narrow_environment 0042c41f f   libucrt:environment_initialization.obj
 0001:0002b433       __initialize_narrow_environment 0042c433 f   libucrt:environment_initialization.obj
 0001:0002b6db       __crt_atexit               0042c6db f   libucrt:onexit.obj
 0001:0002b6f1       __execute_onexit_table     0042c6f1 f   libucrt:onexit.obj
 0001:0002b72f       __initialize_onexit_table  0042c72f f   libucrt:onexit.obj
 0001:0002b758       __register_onexit_function 0042c758 f   libucrt:onexit.obj
 0001:0002b886       ___acrt_initialize         0042c886 f   libucrt:initialization.obj
 0001:0002b898       ___acrt_uninitialize       0042c898 f   libucrt:initialization.obj
 0001:0002b8c8       __query_app_type           0042c8c8 f   libucrt:report_runtime_error.obj
 0001:0002b8ce       __set_app_type             0042c8ce f   libucrt:report_runtime_error.obj
 0001:0002b8e0       ___acrt_has_user_matherr   0042c8e0 f   libucrt:matherr.obj
 0001:0002b900       ___acrt_initialize_user_matherr 0042c900 f   libucrt:matherr.obj
 0001:0002b910       ___acrt_invoke_user_matherr 0042c910 f   libucrt:matherr.obj
 0001:0002b950       ___setusermatherr          0042c950 f   libucrt:matherr.obj
 0001:0002b976       __initterm                 0042c976 f   libucrt:initterm.obj
 0001:0002b9a1       __initterm_e               0042c9a1 f   libucrt:initterm.obj
 0001:0002b9cf       __get_fmode                0042c9cf f   libucrt:setmode.obj
 0001:0002b9fc       __set_fmode                0042c9fc f   libucrt:setmode.obj
 0001:0002ba39       __setmode_nolock           0042ca39 f   libucrt:setmode.obj
 0001:0002bb0a       ___acrt_initialize_command_line 0042cb0a f   libucrt:argv_data.obj
 0001:0002bb23       ___p___argc                0042cb23 f   libucrt:argv_data.obj
 0001:0002bb29       ___p___argv                0042cb29 f   libucrt:argv_data.obj
 0001:0002bc2f       ??0_expandlocale_locale_name_cache@@QAE@QA_WIQAU__crt_qualified_locale_data@@@Z 0042cc2f f i libucrt:wsetlocale.obj
 0001:0002bc79       ??1_expandlocale_locale_name_cache@@QAE@XZ 0042cc79 f i libucrt:wsetlocale.obj
 0001:0002be11       ?commit_locale_name@_expandlocale_locale_name_cache@@QAEXQB_WI@Z 0042ce11 f i libucrt:wsetlocale.obj
 0001:0002be55       ?commit_locale_name_cache_already_updated@_expandlocale_locale_name_cache@@QAEXQB_WI@Z 0042ce55 f i libucrt:wsetlocale.obj
 0001:0002be8a       ___acrt_copy_locale_name   0042ce8a f   libucrt:wsetlocale.obj
 0001:0002beea       ___acrt_set_locale_changed 0042ceea f   libucrt:wsetlocale.obj
 0001:0002bef5       ___acrt_uninitialize_locale 0042cef5 f   libucrt:wsetlocale.obj
 0001:0002bf1c       ___lc_lctowcs              0042cf1c f   libucrt:wsetlocale.obj
 0001:0002bf8c       ___lc_wcstolc              0042cf8c f   libucrt:wsetlocale.obj
 0001:0002c0c9       __configthreadlocale       0042d0c9 f   libucrt:wsetlocale.obj
 0001:0002c530       __wcscats                  0042d530 f   libucrt:wsetlocale.obj
 0001:0002c571       __wsetlocale               0042d571 f   libucrt:wsetlocale.obj
 0001:0002d260       __query_new_mode           0042e260 f   libucrt:new_mode.obj
 0001:0002d270       __set_new_mode             0042e270 f   libucrt:new_mode.obj
 0001:0002d29f       ___p__commode              0042e29f f   libucrt:ncommode.obj
 0001:0002d2a5       _terminate                 0042e2a5 f   libucrt:terminate.obj
 0001:0002d2f0       __controlfp_s              0042e2f0 f   libucrt:contrlfp.obj
 0001:0002d360       _strcpy_s                  0042e360 f   libucrt:strcpy_s.obj
 0001:0002d3f0       @_guard_check_icall@4      0042e3f0 f i libucrt:checkcfg.obj
 0001:0002d400       _strncmp                   0042e400 f   libucrt:strncmp.obj
 0001:0002d478       ___acrt_app_verifier_enabled 0042e478 f   libucrt:peb_access.obj
 0001:0002d48a       ___acrt_is_secure_process  0042e48a f   libucrt:peb_access.obj
 0001:0002d49d       ___acrt_get_begin_thread_init_policy 0042e49d f   libucrt:win_policies.obj
 0001:0002d4d7       ___acrt_get_process_end_policy 0042e4d7 f   libucrt:win_policies.obj
 0001:0002d4fe       ?check_synchronize_global_state_index@__crt_cached_ptd_host@@AAEIXZ 0042e4fe f i libucrt:invalid_parameter.obj
 0001:0002d527       ___acrt_call_reportfault   0042e527 f   libucrt:invalid_parameter.obj
 0001:0002d660       ___acrt_initialize_invalid_parameter_handler 0042e660 f   libucrt:invalid_parameter.obj
 0001:0002d66f       __invalid_parameter        0042e66f f   libucrt:invalid_parameter.obj
 0001:0002d6a6       __invalid_parameter_internal 0042e6a6 f   libucrt:invalid_parameter.obj
 0001:0002d723       __invalid_parameter_noinfo 0042e723 f   libucrt:invalid_parameter.obj
 0001:0002d733       __invoke_watson            0042e733 f   libucrt:invalid_parameter.obj
 0001:0002d770       __calloc_base              0042e770 f   libucrt:calloc_base.obj
 0001:0002d7d0       __free_base                0042e7d0 f   libucrt:free_base.obj
 0001:0002d820       __malloc_base              0042e820 f   libucrt:malloc_base.obj
 0001:0002db17       _mbstowcs_s                0042eb17 f   libucrt:mbstowcs.obj
 0001:0002decb       __wcstombs_s_l             0042eecb f   libucrt:wcstombs.obj
 0001:0002e1fc       ?internal_get_ptd_head_slow@@YAPAU__acrt_ptd@@XZ 0042f1fc f   libucrt:per_thread_data.obj
 0001:0002e2ef       ___acrt_getptd             0042f2ef f   libucrt:per_thread_data.obj
 0001:0002e2fd       ___acrt_getptd_head        0042f2fd f   libucrt:per_thread_data.obj
 0001:0002e340       ___acrt_getptd_noexit      0042f340 f   libucrt:per_thread_data.obj
 0001:0002e3cc       ___acrt_getptd_noexit_explicit 0042f3cc f   libucrt:per_thread_data.obj
 0001:0002e415       ___acrt_initialize_ptd     0042f415 f   libucrt:per_thread_data.obj
 0001:0002e44b       ___acrt_uninitialize_ptd   0042f44b f   libucrt:per_thread_data.obj
 0001:0002e802       ___acrt_AppPolicyGetProcessTerminationMethodInternal@4 0042f802 f   libucrt:winapi_thunks.obj
 0001:0002e851       ___acrt_AppPolicyGetThreadInitializationTypeInternal@4 0042f851 f   libucrt:winapi_thunks.obj
 0001:0002e8a0       ___acrt_AreFileApisANSI@0  0042f8a0 f   libucrt:winapi_thunks.obj
 0001:0002e8bf       ___acrt_CompareStringEx@36 0042f8bf f   libucrt:winapi_thunks.obj
 0001:0002e91c       ___acrt_EnumSystemLocalesEx@16 0042f91c f   libucrt:winapi_thunks.obj
 0001:0002e970       ___acrt_FlsAlloc@4         0042f970 f   libucrt:winapi_thunks.obj
 0001:0002e97c       ___acrt_FlsFree@4          0042f97c f   libucrt:winapi_thunks.obj
 0001:0002e988       ___acrt_FlsGetValue2@4     0042f988 f   libucrt:winapi_thunks.obj
 0001:0002e995       ___acrt_FlsGetValue@4      0042f995 f   libucrt:winapi_thunks.obj
 0001:0002e9a1       ___acrt_FlsSetValue@8      0042f9a1 f   libucrt:winapi_thunks.obj
 0001:0002e9ad       ___acrt_GetDateFormatEx@28 0042f9ad f   libucrt:winapi_thunks.obj
 0001:0002ea04       ___acrt_GetLocaleInfoEx@16 0042fa04 f   libucrt:winapi_thunks.obj
 0001:0002ea43       ___acrt_GetTimeFormatEx@24 0042fa43 f   libucrt:winapi_thunks.obj
 0001:0002ea88       ___acrt_GetUserDefaultLocaleName@8 0042fa88 f   libucrt:winapi_thunks.obj
 0001:0002eac4       ___acrt_InitializeCriticalSectionEx@12 0042fac4 f   libucrt:winapi_thunks.obj
 0001:0002ead0       ___acrt_IsValidLocaleName@4 0042fad0 f   libucrt:winapi_thunks.obj
 0001:0002eb08       ___acrt_LCIDToLocaleName@16 0042fb08 f   libucrt:winapi_thunks.obj
 0001:0002eb47       ___acrt_LCMapStringEx@36   0042fb47 f   libucrt:winapi_thunks.obj
 0001:0002eba4       ___acrt_LocaleNameToLCID@8 0042fba4 f   libucrt:winapi_thunks.obj
 0001:0002ebd5       ___acrt_RoInitialize@4     0042fbd5 f   libucrt:winapi_thunks.obj
 0001:0002ec1f       ___acrt_RoUninitialize@0   0042fc1f f   libucrt:winapi_thunks.obj
 0001:0002ec5c       ___acrt_can_use_vista_locale_apis 0042fc5c f   libucrt:winapi_thunks.obj
 0001:0002ec67       ___acrt_eagerly_load_locale_apis 0042fc67 f   libucrt:winapi_thunks.obj
 0001:0002ec9e       ___acrt_initialize_winapi_thunks 0042fc9e f   libucrt:winapi_thunks.obj
 0001:0002ecc1       ___acrt_tls2_supported     0042fcc1 f   libucrt:winapi_thunks.obj
 0001:0002ecf2       ___acrt_uninitialize_winapi_thunks 0042fcf2 f   libucrt:winapi_thunks.obj
 0001:0002ed28       __isctype_l                0042fd28 f   libucrt:isctype.obj
 0001:0002edf3       ___acrt_update_locale_info 0042fdf3 f   libucrt:locale_update.obj
 0001:0002ee20       ___acrt_update_locale_info_explicit 0042fe20 f   libucrt:locale_update.obj
 0001:0002ee51       ___acrt_update_multibyte_info 0042fe51 f   libucrt:locale_update.obj
 0001:0002ee7e       ___acrt_update_multibyte_info_explicit 0042fe7e f   libucrt:locale_update.obj
 0001:0002f09c       ___acrt_LCMapStringA       0043009c f   libucrt:lcmapstringa.obj
 0001:0002f0e5       ?__acrt_stdio_allocate_stream@@YA?AV__crt_stdio_stream@@XZ 004300e5 f   libucrt:stream.obj
 0001:0002f14e       ?__acrt_stdio_free_stream@@YAXV__crt_stdio_stream@@@Z 0043014e f   libucrt:stream.obj
 0001:0002f24b       ??$__acrt_stdio_parse_mode@D@@YA?AU__acrt_stdio_stream_mode@@QBD@Z 0043024b f i libucrt:openfile.obj
 0001:0002f50f       ?__acrt_stdio_parse_mode_D@@YA_NAAU__acrt_stdio_stream_mode@@@Z 0043050f f i libucrt:openfile.obj
 0001:0002f52a       ?__acrt_stdio_parse_mode_T@@YA_NAAU__acrt_stdio_stream_mode@@@Z 0043052a f i libucrt:openfile.obj
 0001:0002f549       ?__acrt_stdio_parse_mode_b@@YA_NAAU__acrt_stdio_stream_mode@@@Z 00430549 f i libucrt:openfile.obj
 0001:0002f569       ?__acrt_stdio_parse_mode_c@@YA_NAAU__acrt_stdio_stream_mode@@AA_N@Z 00430569 f i libucrt:openfile.obj
 0001:0002f58b       ?__acrt_stdio_parse_mode_n@@YA_NAAU__acrt_stdio_stream_mode@@AA_N@Z 0043058b f i libucrt:openfile.obj
 0001:0002f5ad       ?__acrt_stdio_parse_mode_plus@@YA_NAAU__acrt_stdio_stream_mode@@AA_N@Z 004305ad f i libucrt:openfile.obj
 0001:0002f5e3       ?__acrt_stdio_parse_mode_t@@YA_NAAU__acrt_stdio_stream_mode@@@Z 004305e3 f i libucrt:openfile.obj
 0001:0002f603       ?__acrt_stdio_parse_mode_x@@YA_NAAU__acrt_stdio_stream_mode@@@Z 00430603 f i libucrt:openfile.obj
 0001:0002f623       __openfile                 00430623 f   libucrt:openfile.obj
 0001:0002f62e       __fcloseall                0043062e f   libucrt:closeall.obj
 0001:0002f6d9       ___acrt_stdio_free_buffer_nolock 004306d9 f   libucrt:_freebuf.obj
 0001:0002f879       ___acrt_initialize_lowio   00430879 f   libucrt:ioinit.obj
 0001:0002f8d9       ___acrt_uninitialize_lowio 004308d9 f   libucrt:ioinit.obj
 0001:0002f905       __fileno                   00430905 f   libucrt:fileno.obj
 0001:0002f9bd       __close_internal           004309bd f   libucrt:close.obj
 0001:0002fa60       __close_nolock             00430a60 f   libucrt:close.obj
 0001:0002fa90       __close_nolock_internal    00430a90 f   libucrt:close.obj
 0001:0002fbc8       ___acrt_MultiByteToWideChar 00430bc8 f   libucrt:multibytetowidechar.obj
 0001:0002fbf2       __wremove                  00430bf2 f   libucrt:wunlink.obj
 0001:0002fc1a       ?__acrt_fp_classify@@YA?AW4__acrt_fp_class@@ABN@Z 00430c1a f i libucrt:cvt.obj
 0001:000305c9       ___acrt_fp_format          004315c9 f   libucrt:cvt.obj
 0001:00030749       __wctomb_internal          00431749 f   libucrt:wctomb.obj
 0001:000308ad       __mbtowc_internal          004318ad f   libucrt:mbtowc.obj
 0001:000309dd       __mbtowc_l                 004319dd f   libucrt:mbtowc.obj
 0001:00030a15       ?__mblen_utf8@__crt_mbstring@@YAHPBD@Z 00431a15 f   libucrt:mbrtoc32.obj
 0001:00030a56       ?__mbrtoc32_utf8@__crt_mbstring@@YAIPA_UPBDIPAU_Mbstatet@@AAV__crt_cached_ptd_host@@@Z 00431a56 f   libucrt:mbrtoc32.obj
 0001:00030c0f       ?__c16rtomb_utf8@__crt_mbstring@@YAIPAD_SPAU_Mbstatet@@AAV__crt_cached_ptd_host@@@Z 00431c0f f   libucrt:c16rtomb.obj
 0001:00030ce6       ?__mbrtowc_utf8@__crt_mbstring@@YAIPA_WPBDIPAU_Mbstatet@@AAV__crt_cached_ptd_host@@@Z 00431ce6 f   libucrt:mbrtowc.obj
 0001:00030d29       ?__mbsrtowcs_utf8@__crt_mbstring@@YAIPA_WPAPBDIPAU_Mbstatet@@AAV__crt_cached_ptd_host@@@Z 00431d29 f   libucrt:mbrtowc.obj
 0001:00030e3c       __get_printf_count_output  00431e3c f   libucrt:printf_count_output.obj
 0001:00030e51       ___acrt_should_use_temporary_buffer 00431e51 f   libucrt:_sftbuf.obj
 0001:00030e8f       ___acrt_stdio_begin_temporary_buffering_nolock 00431e8f f   libucrt:_sftbuf.obj
 0001:00030f3a       ___acrt_stdio_end_temporary_buffering_nolock 00431f3a f   libucrt:_sftbuf.obj
 0001:0003171e       __write                    0043271e f   libucrt:write.obj
 0001:00031755       __write_internal           00432755 f   libucrt:write.obj
 0001:00031866       __write_nolock             00432866 f   libucrt:write.obj
 0001:00031cd9       ___acrt_stdio_flush_and_write_narrow_nolock 00432cd9 f   libucrt:_flsbuf.obj
 0001:00031ce4       _iswctype                  00432ce4 f   libucrt:iswctype.obj
 0001:00031d50       __except1                  00432d50 f   libucrt:fpexcept.obj
 0001:00031e90       __handle_exc               00432e90 f   libucrt:fpexcept.obj
 0001:000321c0       __raise_exc                004331c0 f   libucrt:fpexcept.obj
 0001:000321f0       __raise_exc_ex             004331f0 f   libucrt:fpexcept.obj
 0001:00032520       __set_errno_from_matherr   00433520 f   libucrt:fpexcept.obj
 0001:00032560       __umatherr                 00433560 f   libucrt:fpexcept.obj
 0001:00032660       ___set_fpsr_sse2           00433660 f   libucrt:fpctrl.obj
 0001:00032740       __clrfp                    00433740 f   libucrt:fpctrl.obj
 0001:00032760       __ctrlfp                   00433760 f   libucrt:fpctrl.obj
 0001:00032790       __set_statfp               00433790 f   libucrt:fpctrl.obj
 0001:000327f0       __statfp                   004337f0 f   libucrt:fpctrl.obj
 0001:00032810       _fegetround                00433810 f   libucrt:fegetround.obj
 0001:000329c7       __lseeki64                 004339c7 f   libucrt:lseek.obj
 0001:00032a07       __lseeki64_internal        00433a07 f   libucrt:lseek.obj
 0001:00032a25       __lseeki64_nolock          00433a25 f   libucrt:lseek.obj
 0001:00032a65       __lseeki64_nolock_internal 00433a65 f   libucrt:lseek.obj
 0001:00032f6a       __read                     00433f6a f   libucrt:read.obj
 0001:00033083       __read_nolock              00434083 f   libucrt:read.obj
 0001:000334b1       __commit                   004344b1 f   libucrt:commit.obj
 0001:000336b9       ___acrt_stdio_refill_and_read_narrow_nolock 004346b9 f   libucrt:_filbuf.obj
 0001:000336c4       __wrename                  004346c4 f   libucrt:wrename.obj
 0001:00033781       ___acrt_WideCharToMultiByte 00434781 f   libucrt:widechartomultibyte.obj
 0001:000337eb       ___acrt_initialize_timeset 004347eb f   libucrt:timeset.obj
 0001:00033820       ___daylight                00434820 f   libucrt:timeset.obj
 0001:00033826       ___dstbias                 00434826 f   libucrt:timeset.obj
 0001:0003382c       ___timezone                0043482c f   libucrt:timeset.obj
 0001:00033832       ___tzname                  00434832 f   libucrt:timeset.obj
 0001:00033838       ___wide_tzname             00434838 f   libucrt:timeset.obj
 0001:0003383e       __get_daylight             0043483e f   libucrt:timeset.obj
 0001:0003386a       __get_dstbias              0043486a f   libucrt:timeset.obj
 0001:00033896       __get_timezone             00434896 f   libucrt:timeset.obj
 0001:0003418b       ___tzset                   0043518b f   libucrt:tzset.obj
 0001:000341e8       __isindst                  004351e8 f   libucrt:tzset.obj
 0001:00034542       __dupenv_s                 00435542 f   libucrt:getenv.obj
 0001:00034560       __wgetenv_s                00435560 f   libucrt:getenv.obj
 0001:00034b93       __spawnve                  00435b93 f   libucrt:spawnv.obj
 0001:00034e9b       __spawnvpe                 00435e9b f   libucrt:spawnvp.obj
 0001:00034ea6       __waccess_s                00435ea6 f   libucrt:waccess.obj
 0001:00034f64       __access_s                 00435f64 f   libucrt:access.obj
 0001:00035004       __getdrive                 00436004 f   libucrt:drive.obj
 0001:000350a8       ___sys_errlist             004360a8 f   libucrt:syserr.obj
 0001:000350ae       ___sys_nerr                004360ae f   libucrt:syserr.obj
 0001:000350b4       ___acrt_lowio_create_handle_array 004360b4 f   libucrt:osfinfo.obj
 0001:0003512f       ___acrt_lowio_destroy_handle_array 0043612f f   libucrt:osfinfo.obj
 0001:00035164       ___acrt_lowio_ensure_fh_exists 00436164 f   libucrt:osfinfo.obj
 0001:00035202       ___acrt_lowio_lock_fh      00436202 f   libucrt:osfinfo.obj
 0001:00035225       ___acrt_lowio_set_os_handle 00436225 f   libucrt:osfinfo.obj
 0001:000352b7       ___acrt_lowio_unlock_fh    004362b7 f   libucrt:osfinfo.obj
 0001:000352da       __alloc_osfhnd             004362da f   libucrt:osfinfo.obj
 0001:000353ed       __free_osfhnd              004363ed f   libucrt:osfinfo.obj
 0001:0003547e       __get_osfhandle            0043647e f   libucrt:osfinfo.obj
 0001:000355c8       ___acrt_GetLocaleInfoA     004365c8 f   libucrt:getlocaleinfoa.obj
 0001:00035778       ___acrt_GetStringTypeA     00436778 f   libucrt:getstringtypea.obj
 0001:00035880       _wcscpy_s                  00436880 f   libucrt:wcscpy_s.obj
 0001:00035920       __realloc_base             00436920 f   libucrt:realloc_base.obj
 0001:00035990       __dtest_inline             00436990 f i libucrt:_test.obj
 0001:00035990       __ldtest_inline            00436990 f i libucrt:_test.obj
 0001:00035a00       ___ascii_wcsicmp           00436a00 f   libucrt:wcsicmp.obj
 0001:00035a50       __wcsicmp                  00436a50 f   libucrt:wcsicmp.obj
 0001:00035aa0       __wcsicmp_l                00436aa0 f   libucrt:wcsicmp.obj
 0001:00035c61       ??$__acrt_convert_wcs_mbs_cp@_WDV<lambda_28bda7af82a03b66c1cb3803a755f95d>@@U__crt_win32_buffer_internal_dynamic_resizing@@@@YAHQB_WAAV?$__crt_win32_buffer@DU__crt_win32_buffer_internal_dynamic_resizing@@@@ABV<lambda_28bda7af82a03b66c1cb3803a755f95d>@@I@Z 00436c61 f i libucrt:argv_wildcards.obj
 0001:00036206       ?allocate@?$__crt_win32_buffer@DU__crt_win32_buffer_internal_dynamic_resizing@@@@QAEHI@Z 00437206 f i libucrt:argv_wildcards.obj
 0001:000362c9       ___acrt_expand_narrow_argv_wildcards 004372c9 f   libucrt:argv_wildcards.obj
 0001:000362d4       ___acrt_GetModuleFileNameA 004372d4 f   libucrt:getmodulefilenamea.obj
 0001:000368f1       ___acrt_initialize_multibyte 004378f1 f   libucrt:mbctype.obj
 0001:00036939       ___acrt_update_thread_multibyte_data 00437939 f   libucrt:mbctype.obj
 0001:0003694c       __setmbcp_nolock           0043794c f   libucrt:mbctype.obj
 0001:00036ba1       __ismbblead                00437ba1 f   libucrt:ismbbyte.obj
 0001:00036bf0       ___dcrt_get_narrow_environment_from_os 00437bf0 f   libucrt:get_environment_from_os.obj
 0001:00036c90       ___dcrt_get_wide_environment_from_os 00437c90 f   libucrt:get_environment_from_os.obj
 0001:00037415       ___dcrt_set_variable_in_narrow_environment_nolock 00438415 f   libucrt:setenv.obj
 0001:00037420       ___dcrt_set_variable_in_wide_environment_nolock 00438420 f   libucrt:setenv.obj
 0001:00037430       __recalloc_base            00438430 f   libucrt:recalloc.obj
 0001:000374b0       __recalloc                 004384b0 f   libucrt:recalloc.obj
 0001:000374c0       __get_heap_handle          004384c0 f   libucrt:heap_handle.obj
 0001:000374d0       ___acrt_initialize_heap    004384d0 f   libucrt:heap_handle.obj
 0001:000374f0       ___acrt_uninitialize_heap  004384f0 f   libucrt:heap_handle.obj
 0001:00037500       ___acrt_getheap            00438500 f   libucrt:heap_handle.obj
 0001:00037506       ___acrt_execute_initializers 00438506 f   libucrt:shared_initialization.obj
 0001:0003756e       ___acrt_execute_uninitializers 0043856e f   libucrt:shared_initialization.obj
 0001:000375a0       _wcscat_s                  004385a0 f   libucrt:wcscat_s.obj
 0001:00037650       _wcsncpy_s                 00438650 f   libucrt:wcsncpy_s.obj
 0001:00037757       ___acrt_initialize_fmode   00438757 f   libucrt:txtmode.obj
 0001:0003776d       ___acrt_locale_free_monetary 0043876d f   libucrt:initmon.obj
 0001:0003786b       ___acrt_locale_initialize_monetary 0043886b f   libucrt:initmon.obj
 0001:00037bcc       ___acrt_locale_free_numeric 00438bcc f   libucrt:initnum.obj
 0001:00037c35       ___acrt_locale_initialize_numeric 00438c35 f   libucrt:initnum.obj
 0001:000380f3       ___acrt_locale_free_time   004390f3 f   libucrt:inittime.obj
 0001:000381d7       ___acrt_locale_initialize_time 004391d7 f   libucrt:inittime.obj
 0001:00038260       _wcsncat_s                 00439260 f   libucrt:wcsncat_s.obj
 0001:00038390       _wcscspn                   00439390 f   libucrt:wcscspn.obj
 0001:000383e0       _wcsncmp                   004393e0 f   libucrt:wcsncmp.obj
 0001:00038430       _wcspbrk                   00439430 f   libucrt:wcspbrk.obj
 0001:0003846f       ___acrt_add_locale_ref     0043946f f   libucrt:locale_refcounting.obj
 0001:000384ec       ___acrt_free_locale        004394ec f   libucrt:locale_refcounting.obj
 0001:00038634       ___acrt_locale_add_lc_time_reference 00439634 f   libucrt:locale_refcounting.obj
 0001:0003865d       ___acrt_locale_free_lc_time_if_unreferenced 0043965d f   libucrt:locale_refcounting.obj
 0001:0003868e       ___acrt_locale_release_lc_time_reference 0043968e f   libucrt:locale_refcounting.obj
 0001:000386b7       ___acrt_release_locale_ref 004396b7 f   libucrt:locale_refcounting.obj
 0001:00038738       ___acrt_update_thread_locale_data 00439738 f   libucrt:locale_refcounting.obj
 0001:000387b9       __updatetlocinfoEx_nolock  004397b9 f   libucrt:locale_refcounting.obj
 0001:00038efa       ___acrt_get_qualified_locale 00439efa f   libucrt:get_qualified_locale.obj
 0001:00039878       ___acrt_get_qualified_locale_downlevel 0043a878 f   libucrt:getqloc_downlevel.obj
 0001:00039b40       __clearfp                  0043ab40 f   libucrt:ieee87.obj
 0001:00039c60       __control87                0043ac60 f   libucrt:ieee87.obj
 0001:0003a0e2       ?__wcsrtombs_utf8@__crt_mbstring@@YAIPADPAPB_WIPAU_Mbstatet@@AAV__crt_cached_ptd_host@@@Z 0043b0e2 f   libucrt:wcrtomb.obj
 0001:0003a280       ___acrt_DownlevelLCIDToLocaleName 0043b280 f   libucrt:lcidtoname_downlevel.obj
 0001:0003a2fe       ___acrt_DownlevelLocaleNameToLCID 0043b2fe f   libucrt:lcidtoname_downlevel.obj
 0001:0003a330       ___ascii_wcsnicmp          0043b330 f   libucrt:wcsnicmp.obj
 0001:0003a3a0       __wcsnicmp                 0043b3a0 f   libucrt:wcsnicmp.obj
 0001:0003a3f0       __wcsnicmp_l               0043b3f0 f   libucrt:wcsnicmp.obj
 0001:0003a5f0       __strnicmp                 0043b5f0 f   libucrt:strnicmp.obj
 0001:0003a650       __strnicmp_l               0043b650 f   libucrt:strnicmp.obj
 0001:0003ad90       __sopen_nolock             0043bd90 f   libucrt:open.obj
 0001:0003adfe       __sopen_s                  0043bdfe f   libucrt:open.obj
 0001:0003ae1e       __wsopen_nolock            0043be1e f   libucrt:open.obj
 0001:0003b1fa       ___acrt_fp_strflt_to_string 0043c1fa f   libucrt:_fptostr.obj
 0001:0003b2f3       ___acrt_fltout             0043c2f3 f   libucrt:cfout.obj
 0001:0003c7c1       ?__c32rtomb_utf8@__crt_mbstring@@YAIPAD_UPAU_Mbstatet@@AAV__crt_cached_ptd_host@@@Z 0043d7c1 f   libucrt:c32rtomb.obj
 0001:0003c86f       ?reset_and_return@__crt_mbstring@@YAIIPAU_Mbstatet@@@Z 0043d86f f   libucrt:common_utf8.obj
 0001:0003c883       ?return_illegal_sequence@__crt_mbstring@@YAIPAU_Mbstatet@@AAV__crt_cached_ptd_host@@@Z 0043d883 f   libucrt:common_utf8.obj
 0001:0003c8a5       __isatty                   0043d8a5 f   libucrt:isatty.obj
 0001:0003c8fb       __putwch_nolock            0043d8fb f   libucrt:putwch.obj
 0001:0003c92d       ___acrt_stdio_allocate_buffer_nolock 0043d92d f   libucrt:_getbuf.obj
 0001:0003c989       ___acrt_GetStringTypeW     0043d989 f   libucrt:getstringtypew.obj
 0001:0003c9b0       ___acrt_fenv_get_common_round_control 0043d9b0 f   libucrt:_fenvutils.obj
 0001:0003c9e0       ___acrt_fenv_get_control   0043d9e0 f   libucrt:_fenvutils.obj
 0001:0003cbc0       ___acrt_fenv_get_status    0043dbc0 f   libucrt:_fenvutils.obj
 0001:0003cc70       ___acrt_fenv_set_control   0043dc70 f   libucrt:_fenvutils.obj
 0001:0003cec0       ___acrt_fenv_set_status    0043dec0 f   libucrt:_fenvutils.obj
 0001:0003cfd0       __wcsnicoll                0043dfd0 f   libucrt:wcsnicol.obj
 0001:0003d160       __strnicoll                0043e160 f   libucrt:strnicol.obj
 0001:0003d2d0       _strcat_s                  0043e2d0 f   libucrt:strcat_s.obj
 0001:0003d781       ___acrt_pack_narrow_command_line_and_environment 0043e781 f   libucrt:cenvarg.obj
 0001:0003d78c       ___acrt_CreateProcessA     0043e78c f   libucrt:createprocessa.obj
 0001:0003d93a       ___acrt_getpath            0043e93a f   libucrt:getpath.obj
 0001:0003d950       _strncpy_s                 0043e950 f   libucrt:strncpy_s.obj
 0001:0003da42       __towlower_l               0043ea42 f   libucrt:towlower.obj
 0001:0003db16       __mbsdec                   0043eb16 f   libucrt:mbsdec.obj
 0001:0003db2d       __mbsdec_l                 0043eb2d f   libucrt:mbsdec.obj
 0001:0003dbc6       ___acrt_SetEnvironmentVariableA 0043ebc6 f   libucrt:setenvironmentvariablea.obj
 0001:0003dc60       __msize_base               0043ec60 f   libucrt:msize.obj
 0001:0003dca0       __msize                    0043eca0 f   libucrt:msize.obj
 0001:0003ddcf       __itow_s                   0043edcf f   libucrt:xtoa.obj
 0001:0003de10       ___ascii_strnicmp          0043ee10 f   libucrt:_strnicm.obj
 0001:0003de71       ??0__crt_seek_guard@@QAE@H_J@Z 0043ee71 f i libucrt:chsize.obj
 0001:0003debe       __chsize_nolock            0043eebe f   libucrt:chsize.obj
 0001:0003def5       __chsize_nolock_internal   0043eef5 f   libucrt:chsize.obj
 0001:0003e090       _fegetenv                  0043f090 f   libucrt:fegetenv.obj
 0001:0003e0b0       _fesetenv                  0043f0b0 f   libucrt:fesetenv.obj
 0001:0003e110       _feholdexcept              0043f110 f   libucrt:feholdexcept.obj
 0001:0003e170       __libm_sse2_log10_precise  0043f170 f   libucrt:log10_sse2_precise.obj
 0001:0003e420       __ceil_no_sse41            0043f420 f   libucrt:ceil_pentium4.obj
 0001:0003e460       _ceil                      0043f460 f   libucrt:ceil_pentium4.obj
 0001:0003e480       __ceil_pentium4            0043f480 f   libucrt:ceil_pentium4.obj
 0001:0003e57c       ___dcrt_lowio_ensure_console_output_initialized 0043f57c f   libucrt:initcon.obj
 0001:0003e59b       ___dcrt_terminate_console_output 0043f59b f   libucrt:initcon.obj
 0001:0003e5b2       ___dcrt_write_console      0043f5b2 f   libucrt:initcon.obj
 0001:0003e607       ___acrt_CompareStringW     0043f607 f   libucrt:comparestringw.obj
 0001:0003e90c       ___acrt_CompareStringA     0043f90c f   libucrt:comparestringa.obj
 0001:0003e952       ___acrt_LCMapStringW       0043f952 f   libucrt:lcmapstringw.obj
 0001:0003e990       ___libm_error_support      0043f990 f   libucrt:libm_error.obj
 0001:0003ec30       __CIlog10                  0043fc30 f   libucrt:log10_impl.obj
 0001:0003ec6b       __CIlog10_default          0043fc6b f   libucrt:log10_impl.obj
 0001:0003ec7f       __log10_default            0043fc7f     libucrt:log10_impl.obj
 0001:0003ed40       ___acrt_initialize_sse2    0043fd40 f   libucrt:mathfcns.obj
 0001:0003ed50       __ceil_default             0043fd50 f   libucrt:ceil.obj
 0001:0003ee50       __CIlog10_pentium4         0043fe50 f   libucrt:log10_pentium4.obj
 0001:0003ee68       __log10_pentium4           0043fe68     libucrt:log10_pentium4.obj
 0001:0003f100       __fFEXP                    00440100 f   libucrt:87tran.obj
 0001:0003f157       __rtinfpopse               00440157     libucrt:87tran.obj
 0001:0003f159       __rtinfnpopse              00440159     libucrt:87tran.obj
 0001:0003f169       __fFLN                     00440169     libucrt:87tran.obj
 0001:0003f21e       __rtinfpop                 0044021e     libucrt:87tran.obj
 0001:0003f220       __rtinfnpop                00440220     libucrt:87tran.obj
 0001:0003f230       __rtforexpinf              00440230 f   libucrt:87tran.obj
 0001:0003f23d       __ffexpm1                  0044023d     libucrt:87tran.obj
 0001:0003f2f0       __trandisp1                004402f0 f   libucrt:87disp.obj
 0001:0003f365       __trandisp2                00440365 f   libucrt:87disp.obj
 0001:0003f3ff       __rttospopde               004403ff     libucrt:87disp.obj
 0001:0003f404       __rttospop                 00440404     libucrt:87disp.obj
 0001:0003f410       __rtnospop                 00440410 f   libucrt:87disp.obj
 0001:0003f420       __rttosnpop                00440420 f   libucrt:87disp.obj
 0001:0003f421       __rtnospopde               00440421     libucrt:87disp.obj
 0001:0003f428       __rtzeropop                00440428     libucrt:87disp.obj
 0001:0003f42a       __rtzeronpop               0044042a     libucrt:87disp.obj
 0001:0003f430       __rtzerospop               00440430 f   libucrt:87disp.obj
 0001:0003f43d       __rtonepop                 0044043d     libucrt:87disp.obj
 0001:0003f440       __rtonenpop                00440440 f   libucrt:87disp.obj
 0001:0003f450       __tosnan1                  00440450 f   libucrt:87disp.obj
 0001:0003f480       __nosnan2                  00440480 f   libucrt:87disp.obj
 0001:0003f490       __tosnan2                  00440490 f   libucrt:87disp.obj
 0001:0003f4c0       __nan2                     004404c0 f   libucrt:87disp.obj
 0001:0003f500       __rtindfpop                00440500 f   libucrt:87disp.obj
 0001:0003f502       __rtindfnpop               00440502     libucrt:87disp.obj
 0001:0003f513       __rttosnpopde              00440513     libucrt:87disp.obj
 0001:0003f520       __rtatan2inf               00440520 f   libucrt:87disp.obj
 0001:0003f53d       __rtchsifneg               0044053d     libucrt:87disp.obj
 0001:0003f550       __twoToTOS                 00440550 f   libucrt:common.obj
 0001:0003f565       __load_CW                  00440565 f   libucrt:common.obj
 0001:0003f57c       __convertTOStoQNaN         0044057c f   libucrt:common.obj
 0001:0003f595       __fload_withFB             00440595 f   libucrt:common.obj
 0001:0003f5d8       __checkTOS_withFB          004405d8 f   libucrt:common.obj
 0001:0003f5ee       __fast_exit                004405ee f   libucrt:common.obj
 0001:0003f5fb       __math_exit                004405fb f   libucrt:common.obj
 0001:0003f625       __check_overflow_exit      00440625 f   libucrt:common.obj
 0001:0003f639       __check_range_exit         00440639 f   libucrt:common.obj
 0001:0003f6e0       __startTwoArgErrorHandling 004406e0 f   libucrt:genexcep.obj
 0001:0003f6f7       __startOneArgErrorHandling 004406f7 f   libucrt:genexcep.obj
 0001:0003f740       __frnd                     00440740 f   libucrt:frnd.obj
 0001:0003f760       __powhlp                   00440760 f   libucrt:powhlp.obj
 0001:0003f960       __87except                 00440960 f   libucrt:87except.obj
 0001:0003faa0       __fpclass                  00440aa0 f   libucrt:ieeemisc.obj
 0001:0003fb70       __FindPESection            00440b70 f   LIBCMT:pesect.obj
 0001:0003fbc0       __IsNonwritableInCurrentImage 00440bc0 f   LIBCMT:pesect.obj
 0001:0003fc80       __ValidateImageBase        00440c80 f   LIBCMT:pesect.obj
 0001:0003fcc0       __aulldvrm                 00440cc0 f   LIBCMT:ulldvrm.obj
 0001:0003fd60       __alldiv                   00440d60 f   LIBCMT:lldiv.obj
 0001:0003fe10       __alldvrm                  00440e10 f   LIBCMT:lldvrm.obj
 0001:0003fef0       __allshl                   00440ef0 f   LIBCMT:llshl.obj
 0001:0003ff10       __aullrem                  00440f10 f   LIBCMT:ullrem.obj
 0001:0003ff90       __aullshr                  00440f90 f   LIBCMT:ullshr.obj
 0001:0003ffb0       __allrem                   00440fb0 f   LIBCMT:llrem.obj
 0001:00040062       _wcschr                    00441062 f   libvcruntime:wcschr.obj
 0001:000400fc       __filter_x86_sse2_floating_point_exception 004410fc f   LIBCMT:x86_exception_filter.obj
 0001:000400fc       __filter_x86_sse2_floating_point_exception_default 004410fc f   LIBCMT:x86_exception_filter.obj
 0001:00040180       ?to_hex@@YA?AV?$basic_string@DU?$char_traits@D@std@@V?$allocator@D@2@@std@@ABV12@@Z 00441180 f   encryption.obj
 0001:000404b0       ?xor_encrypt@@YA?AV?$basic_string@DU?$char_traits@D@std@@V?$allocator@D@2@@std@@ABV12@0@Z 004414b0 f   encryption.obj
 0001:00040560       ?http_post_json_bool@NetUtil@@SA_NABV?$basic_string@DU?$char_traits@D@std@@V?$allocator@D@2@@std@@ABV?$basic_string@_WU?$char_traits@_W@std@@V?$allocator@_W@2@@3@0PAJPAV23@@Z 00441560 f   netutil.obj
 0001:00040ba0       ?wutf8@NetUtil@@SA?AV?$basic_string@DU?$char_traits@D@std@@V?$allocator@D@2@@std@@ABV?$basic_string@_WU?$char_traits@_W@std@@V?$allocator@_W@2@@3@@Z 00441ba0 f   netutil.obj
 0001:00040ca0       ?fatal@@YAXPBDZZ           00441ca0 f   server.obj
 0001:00040d20       ?localservertoclient@@YAXHPAEH_N@Z 00441d20 f   server.obj
 0001:00040d30       ?initserver@@YAX_N@Z       00441d30 f   server.obj
 0001:00041680       ?restartlogging@@YAXXZ     00442680 f   server.obj
 0001:00041770       ?quitproc@@YAXH@Z          00442770 f   server.obj
 0001:00041790       ?processmasterinput@@YAXPBDH0@Z 00442790 f   server.obj
 0001:00041820       ?extinfo_teamscorebuf@@YAXAAU?$databuf@E@@@Z 00442820 f   server.obj
 0001:000419f0       ?extinfo_statsbuf@@YAXAAU?$databuf@E@@HHAAIAAU_ENetAddress@@AAUENetBuffer@@HPAH@Z 004429f0 f   server.obj
 0001:00041ce0       ?extinfo_cnbuf@@YAXAAU?$databuf@E@@H@Z 00442ce0 f   server.obj
 0001:00041d50       ?extping_uplinkstats@@YAXAAU?$databuf@E@@@Z 00442d50 f   server.obj
 0001:00041da0       ?extping_maprot@@YAXAAU?$databuf@E@@@Z 00442da0 f   server.obj
 0001:00041dc0       ?extping_serverinfo@@YAXAAU?$databuf@E@@0@Z 00442dc0 f   server.obj
 0001:00041f80       ?extping_namelist@@YAXAAU?$databuf@E@@@Z 00442f80 f   server.obj
 0001:00041ff0       ?getpongflags@@YAHI@Z      00442ff0 f   server.obj
 0001:00042080       ?cleanupserver@@YAXXZ      00443080 f   server.obj
 0001:00042110       ?serverslice@@YAXI@Z       00443110 f   server.obj
 0001:00043190       ?linequalitystats@@YAXH@Z  00444190 f   server.obj
 0001:000434b0       ?loggamestatus@@YAXPBD@Z   004444b0 f   server.obj
 0001:00043a90       ?sendworldstate@@YAXXZ     00444a90 f   server.obj
 0001:00043b00       ?resetserverifempty@@YAXXZ 00444b00 f   server.obj
 0001:00043b60       ?checkintermission@@YAXXZ  00444b60 f   server.obj
 0001:00043d10       ?addclient@@YAAAUclient@@XZ 00444d10 f   server.obj
 0001:00043e60       ?process@@YAXPAU_ENetPacket@@HH@Z 00444e60 f   server.obj
 0001:00049340       ?polldeferredprocessing@@YAXXZ 0044a340 f   server.obj
 0001:00049620       ?deferredprocessingthread@@YAHPAX@Z 0044a620 f   server.obj
 0001:00049720       ?checktype@@YAHHPAUclient@@@Z 0044a720 f   server.obj
 0001:000497a0       ?forcedeath@@YAXPAUclient@@@Z 0044a7a0 f   server.obj
 0001:00049800       ?sendwelcome@@YAXPAUclient@@H@Z 0044a800 f   server.obj
 0001:000498a0       ?welcomepacket@@YAXAAUpacketbuf@@H@Z 0044a8a0 f   server.obj
 0001:00049e30       ?welcomeinitclient@@YAXAAUpacketbuf@@H@Z 0044ae30 f   server.obj
 0001:00049e80       ?sendinitclient@@YAXAAUclient@@@Z 0044ae80 f   server.obj
 0001:00049f10       ?putinitclient@@YAXAAUclient@@AAUpacketbuf@@@Z 0044af10 f   server.obj
 0001:00049fd0       ?sendservinfo@@YAXAAUclient@@@Z 0044afd0 f   server.obj
 0001:0004a050       ?restorescore@@YA_NAAUclient@@@Z 0044b050 f   server.obj
 0001:0004a190       ?sendresume@@YAXAAUclient@@_N@Z 0044b190 f   server.obj
 0001:0004a200       ?sendiplist@@YAXHH@Z       0044b200 f   server.obj
 0001:0004a330       ?disconnect_client@@YAXHH@Z 0044b330 f   server.obj
 0001:0004a850       ?senddisconnectedscores@@YAXH@Z 0044b850 f   server.obj
 0001:0004a9a0       ?changeclientrole@@YAXHHPAD_N@Z 0044b9a0 f   server.obj
 0001:0004ac00       ?callvotepacket@@YAXHPAUvoteinfo@@@Z 0044bc00 f   server.obj
 0001:0004ae10       ?scallvote@@YA_NPAUvoteinfo@@PAU_ENetPacket@@@Z 0044be10 f   server.obj
 0001:0004b360       ?scallvoteerr@@YAXPAUvoteinfo@@H@Z 0044c360 f   server.obj
 0001:0004b460       ?scallvotesuc@@YAXPAUvoteinfo@@@Z 0044c460 f   server.obj
 0001:0004b560       ?svote@@YA_NHHPAU_ENetPacket@@@Z 0044c560 f   server.obj
 0001:0004b620       ?kick_abuser@@YAXHAAH0H@Z  0044c620 f   server.obj
 0001:0004b6a0       ?roleconf@@YAHH@Z          0044c6a0 f   server.obj
 0001:0004b700       ?sendserveropinfo@@YAXH@Z  0044c700 f   server.obj
 0001:0004b760       ?serveroperator@@YAHXZ     0044c760 f   server.obj
 0001:0004b790       ?getbantype@@YAHH@Z        0044c790 f   server.obj
 0001:0004b8a0       ?addgban@@YAXPBD@Z         0044c8a0 f   server.obj
 0001:0004ba20       ?checkgban@@YA_NI@Z        0044ca20 f   server.obj
 0001:0004ba50       ?cleargbans@@YAXXZ         0044ca50 f   server.obj
 0001:0004ba70       ?startgame@@YAXPBDHH_N@Z   0044ca70 f   server.obj
 0001:0004c4b0       ?startdemoplayback@@YAXPBD@Z 0044d4b0 f   server.obj
 0001:0004c680       ?resetserver@@YAXPBDHH@Z   0044d680 f   server.obj
 0001:0004c880       ?refillteams@@YA_N_NH@Z    0044d880 f   server.obj
 0001:0004cbc0       ?shuffleteams@@YAXH@Z      0044dbc0 f   server.obj
 0001:0004d010       ?calcscores@@YAHXZ         0044e010 f   server.obj
 0001:0004d160       ?calcscoresmatch@@YAHXZ    0044e160 f   server.obj
 0001:0004d220       ?calcscoresvita@@YAHXZ     0044e220 f   server.obj
 0001:0004d2c0       ?updateclientteam@@YA_NHHH@Z 0044e2c0 f   server.obj
 0001:0004d7b0       ?autospawncheck@@YAXXZ     0044e7b0 f   server.obj
 0001:0004d860       ?canspawn@@YAHPAUclient@@@Z 0044e860 f   server.obj
 0001:0004da60       ?updatesdesc@@YAXPBDPAU_ENetAddress@@@Z 0044ea60 f   server.obj
 0001:0004db00       ?updatedescallowed@@YA_NXZ 0044eb00 f   server.obj
 0001:0004db20       ?processevents@@YAXXZ      0044eb20 f   server.obj
 0001:0004dd10       ?clearevent@@YAXPAUclient@@@Z 0044ed10 f   server.obj
 0001:0004dda0       ?processevent@@YAXPAUclient@@AAUakimboevent@@@Z 0044eda0 f   server.obj
 0001:0004dde0       ?processevent@@YAXPAUclient@@AAUreloadevent@@@Z 0044ede0 f   server.obj
 0001:0004e080       ?processevent@@YAXPAUclient@@AAUpickupevent@@@Z 0044f080 f   server.obj
 0001:0004e0e0       ?processevent@@YAXPAUclient@@AAUsuicideevent@@@Z 0044f0e0 f   server.obj
 0001:0004e120       ?processevent@@YAXPAUclient@@AAUshotevent@@@Z 0044f120 f   server.obj
 0001:0004e610       ?processevent@@YAXPAUclient@@AAUexplodeevent@@@Z 0044f610 f   server.obj
 0001:0004e800       ?serverdamage@@YAXPAUclient@@0HH_NABUvec@@@Z 0044f800 f   server.obj
 0001:0004efb0       ?checkitemspawns@@YAXH@Z   0044ffb0 f   server.obj
 0001:0004f030       ?serverpickup@@YA_NHH@Z    00450030 f   server.obj
 0001:0004f430       ?spawntime@@YAHH@Z         00450430 f   server.obj
 0001:0004f4c0       ?numplayers@@YAHXZ         004504c0 f   server.obj
 0001:0004f4d0       ?sendvoicecomteam@@YAXHH@Z 004504d0 f   server.obj
 0001:0004f630       ?sendteamtext@@YAXPADHH@Z  00450630 f   server.obj
 0001:0004f7f0       ?spamdetect@@YA_NPAUclient@@PAD@Z 004507f0 f   server.obj
 0001:0004f930       ?arenacheck@@YAXXZ         00450930 f   server.obj
 0001:0004fc90       ?distributespawns@@YAXXZ   00450c90 f   server.obj
 0001:0004fe80       ?distributeteam@@YAXH@Z    00450e80 f   server.obj
 0001:0004fff0       ?cmpscore@@YAHPBH0@Z       00450ff0 f   server.obj
 0001:00050020       ?htf_forceflag@@YAXH@Z     00451020 f   server.obj
 0001:00050230       ?resetflag@@YAXH@Z         00451230 f   server.obj
 0001:00050250       ?sdropflag@@YAXH@Z         00451250 f   server.obj
 0001:00050270       ?ctfreset@@YAXXZ           00451270 f   server.obj
 0001:000502f0       ?clienthasflag@@YAHH@Z     004512f0 f   server.obj
 0001:00050360       ?flagaction@@YAXHHH@Z      00451360 f   server.obj
 0001:00050a00       ?flagmessage@@YAXHHHH@Z    00451a00 f   server.obj
 0001:00050a70       ?sendflaginfo@@YAXHH@Z     00451a70 f   server.obj
 0001:00050b30       ?flagdistance@@YA_NAAUsflaginfo@@H@Z 00451b30 f   server.obj
 0001:00050d00       ?check_ffire@@YAXPAUclient@@0H@Z 00451d00 f   server.obj
 0001:00050dd0       ?check_afk@@YAXXZ          00451dd0 f   server.obj
 0001:00050fe0       ?putflaginfo@@YAXAAUpacketbuf@@H@Z 00451fe0 f   server.obj
 0001:00051070       ?setupdemoplayback@@YAXXZ  00452070 f   server.obj
 0001:00051370       ?enddemoplayback@@YAXXZ    00452370 f   server.obj
 0001:000514a0       ?checkdemotransmissions@@YAXXZ 004524a0 f   server.obj
 0001:00051740       ?senddemo@@YAXHH@Z         00452740 f   server.obj
 0001:000519d0       ?listdemos@@YAXH@Z         004529d0 f   server.obj
 0001:00051c20       ?donedemosort@@YAHPAPAUdemo_s@@0@Z 00452c20 f   server.obj
 0001:00051c40       ?setupdemorecord@@YAXXZ    00452c40 f   server.obj
 0001:00052050       ?enddemorecord@@YAXXZ      00453050 f   server.obj
 0001:00052400       ?demorecord_beginintermission@@YAXXZ 00453400 f   server.obj
 0001:000524c0       ?recordpacket@@YAXHPAU_ENetPacket@@@Z 004534c0 f   server.obj
 0001:000524f0       ?recordpacket@@YAXHPAXH@Z  004534f0 f   server.obj
 0001:00052510       ?writedemo@@YAXHPAXH@Z     00453510 f   server.obj
 0001:00052680       ?demoworkerthread@@YAHPAX@Z 00453680 f   server.obj
 0001:00052d60       ?initdemoslot@@YAPAUdemo_s@@XZ 00453d60 f   server.obj
 0001:000531b0       ?sendspawn@@YAXPAUclient@@@Z 004541b0 f   server.obj
 0001:00053280       ?sendservmsgverbose@@YAXPBDH@Z 00454280 f   server.obj
 0001:000532a0       ?sendservmsg@@YAXPBDH@Z    004542a0 f   server.obj
 0001:000532c0       ?sendf@@YAXHHPBDZZ         004542c0 f   server.obj
 0001:00053c90       ?findscore@@YAPAUsavedscore@@AAUclient@@_N@Z 00454c90 f   server.obj
 0001:00053ee0       ?findcnbyaddress@@YAHPAU_ENetAddress@@@Z 00454ee0 f   server.obj
 0001:00053f20       ?setpausemode@@YAXH@Z      00454f20 f   server.obj
 0001:00053f90       ?changemastermode@@YAXH@Z  00454f90 f   server.obj
 0001:00054050       ?changematchteamsize@@YAXH@Z 00455050 f   server.obj
 0001:00054170       ?sendservermode@@YAH_N@Z   00455170 f   server.obj
 0001:000541b0       ?numteamclients@@YAPAHH@Z  004551b0 f   server.obj
 0001:00054220       ?numactiveclients@@YAHXZ   00455220 f   server.obj
 0001:00054270       ?numnonlocalclients@@YAHXZ 00455270 f   server.obj
 0001:00054280       ?numlocalclients@@YAHXZ    00455280 f   server.obj
 0001:00054290       ?numclients@@YAHXZ         00455290 f   server.obj
 0001:000542a0       ?countclients@@YAHH_N@Z    004552a0 f   server.obj
 0001:000542f0       ?getclientbysequence@@YAPAUclient@@H@Z 004552f0 f   server.obj
 0001:00054330       ?buildworldstate@@YA_NXZ   00455330 f   server.obj
 0001:00054820       ?sendpacket@@YAXHHPAU_ENetPacket@@H_N@Z 00455820 f   server.obj
 0001:000548d0       ?cleanworldstate@@YAXPAU_ENetPacket@@@Z 004558d0 f   server.obj
 0001:00054960       ?valid_client@@YA_NH@Z     00455960 f   server.obj
 0001:00054980       ?getservermap@@YAPAUservermap@@PBD@Z 00455980 f   server.obj
 0001:00054a10       ?recalcgamesuggestions@servermaprot@@QAEPAUservermap@@H@Z 00455a10 f   server.obj
 0001:00054f80       ?randommap@@YAPAUservermap@@XZ 00455f80 f   server.obj
 0001:00054fc0       ?calcmappenalties@servermaprot@@QAEXXZ 00455fc0 f   server.obj
 0001:00055170       ?poll_serverthreads@@YAXXZ 00456170 f   server.obj
 0001:00055a50       ?pushvitasforsaving@@YA_N_N@Z 00456a50 f   server.obj
 0001:00055c60       ?export_match_results@@YAXXZ 00456c60 f   server.obj
 0001:00056e10       ?readvitas@@YAHPBD@Z       00457e10 f   server.obj
 0001:00056f30       ?parsevitas@@YAHPADH@Z     00457f30 f   server.obj
 0001:000574a0       ?addcc@vita_s@@QAEXPBD@Z   004584a0 f   server.obj
 0001:00057500       ?addip@vita_s@@QAEXI@Z     00458500 f   server.obj
 0001:00057540       ?addname@vita_s@@QAEXPBD@Z 00458540 f   server.obj
 0001:000575a0       ?servparallfun@@YAXXZ      004585a0 f   server.obj
 0001:000575f0       ?initserverparameter@@YAXPBD0@Z 004585f0 f   server.obj
 0001:00057690       ?initserverparameter@@YAXPBDH@Z 00458690 f   server.obj
 0001:000576c0       ?addservparstr@@YA_NPBDHHH0PAD1P6AXXZ_N30@Z 004586c0 f   server.obj
 0001:00057780       ?addservparint@@YAHPBDHHHQAPBDPAH2P6AXXZ_N40@Z 00458780 f   server.obj
 0001:00057840       ?findpattern@@YA_NPAD0@Z   00458840 f   server.obj
 0001:00057940       ?issimilar@@YA_NDD@Z       00458940 f   server.obj
 0001:00057a00       ?filter_use_hx_modeinfo@@YAXXZ 00458a00 f   server.obj
 0001:00057b30       ?filterconfigset@@YAXPADPAX@Z 00458b30 f   server.obj
 0001:00057c50       ?parse@configsetvalues@@QAE_NPAD@Z 00458c50 f   server.obj
 0001:00057d50       ?add@configsetvalues@@QAEXU1@@Z 00458d50 f   server.obj
 0001:00057dc0       ?readserverconfigsthread@@YAHPAX@Z 00458dc0 f   server.obj
 0001:00058270       ?process@serverconfigfile@@QAEXXZ 00459270 f   server.obj
 0001:00058330       ?trypreload@serverconfigfile@@QAEXXZ 00459330 f   server.obj
 0001:000583d0       ?isbusy@serverconfigfile@@QAE_NXZ 004593d0 f   server.obj
 0001:000583f0       ?load@serverconfigfile@@UAE_NXZ 004593f0 f   server.obj
 0001:00058540       ?init@serverconfigfile@@QAEXPBD_N@Z 00459540 f   server.obj
 0001:00058630       ?serverwritemap@@YA_NPBDHHHPAE@Z 00459630 f   server.obj
 0001:000587f0       ?readmapsthread@@YAHPAX@Z  004597f0 f   server.obj
 0001:00058d80       ?tagmapfile@@YAXPBD0H@Z    00459d80 f   server.obj
 0001:00058da0       ?trymapfiles@@YAXPBD0H@Z   00459da0 f   server.obj
 0001:00058f90       ?getmapfilenameindex@@YAHPBD0@Z 00459f90 f   server.obj
 0001:00059010       ?updateservermap@@YAXH_N@Z 0045a010 f   server.obj
 0001:000590f0       ?servermapsortweight@@YAHPAPAUservermap@@0@Z 0045a0f0 f   server.obj
 0001:00059110       ?servermapsortname@@YAHPAPAUservermap@@0@Z 0045a110 f   server.obj
 0001:00059240       ?writevitas@@YAXPAUstream@@AAU?$vector@Uvitakey_s@@@@@Z 0045a240 f   server.obj
 0001:000595d0       _main                      0045a5d0 f   server.obj
 0001:00059820       ?flushmasterinput@@YAXXZ   0045a820 f   serverms.obj
 0001:00059a20       ?flushmasteroutput@@YAXXZ  0045aa20 f   serverms.obj
 0001:00059aa0       ?processmasterinput@@YAXXZ 0045aaa0 f   serverms.obj
 0001:00059c30       ?requestmasterf@@YA_NPBDZZ 0045ac30 f   serverms.obj
 0001:00059de0       ?requestmaster@@YA_NPBD@Z  0045ade0 f   serverms.obj
 0001:00059f30       ?connectmaster@@YAIXZ      0045af30 f   serverms.obj
 0001:0005a020       ?disconnectmaster@@YAXXZ   0045b020 f   serverms.obj
 0001:0005a080       ?connectwithtimeout@@YAHIPBDAAU_ENetAddress@@@Z 0045b080 f   serverms.obj
 0001:0005a0b0       ?resolverwait@@YA_NPBDPAU_ENetAddress@@@Z 0045b0b0 f   serverms.obj
 0001:0005a0d0       ?serverms@@YAXHHHPADHABU_ENetAddress@@PAH22222HPBDH@Z 0045b0d0 f   serverms.obj
 0001:0005a860       ?servermsinit@@YAX_N@Z     0045b860 f   serverms.obj
 0001:0005aaf0       ??1makecert@@QAE@XZ        0045baf0 f   crypto.obj
 0001:0005ab20       ?ge25519_scalarmult_base@@YAXPAUge25519@@PBUsc25519@@@Z 0045bb20 f   crypto.obj
 0001:0005adc0       ?ge25519_double_scalarmult_vartime@@YAXPAUge25519@@PBU1@PBUsc25519@@12@Z 0045bdc0 f   crypto.obj
 0001:0005b9b0       ?ge25519_pack@@YAXQAEPBUge25519@@@Z 0045c9b0 f   crypto.obj
 0001:0005bb10       ?ge25519_unpackneg_vartime@@YAHPAUge25519@@QBE@Z 0045cb10 f   crypto.obj
 0001:0005c620       ?sc25519_2interleave2@@YAXQAEPBUsc25519@@1@Z 0045d620 f   crypto.obj
 0001:0005c6f0       ?sc25519_window3@@YAXQACPBUsc25519@@@Z 0045d6f0 f   crypto.obj
 0001:0005cb50       ?sc25519_mul@@YAXPAUsc25519@@PBU1@1@Z 0045db50 f   crypto.obj
 0001:0005cf60       ?sc25519_add@@YAXPAUsc25519@@PBU1@1@Z 0045df60 f   crypto.obj
 0001:0005d140       ?sc25519_to32bytes@@YAXQAEPBUsc25519@@@Z 0045e140 f   crypto.obj
 0001:0005d1b0       ?sc25519_from64bytes@@YAXPAUsc25519@@QBE@Z 0045e1b0 f   crypto.obj
 0001:0005d4a0       ?sc25519_from32bytes@@YAXPAUsc25519@@QBE@Z 0045e4a0 f   crypto.obj
 0001:0005db40       ?fe25519_pow2523@@YAXPAUfe25519@@PBU1@@Z 0045eb40 f   crypto.obj
 0001:0005de30       ?fe25519_invert@@YAXPAUfe25519@@PBU1@@Z 0045ee30 f   crypto.obj
 0001:0005e2c0       ?fe25519_square@@YAXPAUfe25519@@PBU1@@Z 0045f2c0 f   crypto.obj
 0001:0005e2d0       ?fe25519_mul@@YAXPAUfe25519@@PBU1@1@Z 0045f2d0 f   crypto.obj
 0001:0005e510       ?fe25519_sub@@YAXPAUfe25519@@PBU1@1@Z 0045f510 f   crypto.obj
 0001:0005e690       ?fe25519_add@@YAXPAUfe25519@@PBU1@1@Z 0045f690 f   crypto.obj
 0001:0005e790       ?fe25519_neg@@YAXPAUfe25519@@PBU1@@Z 0045f790 f   crypto.obj
 0001:0005e970       ?fe25519_setzero@@YAXPAUfe25519@@@Z 0045f970 f   crypto.obj
 0001:0005e9a0       ?fe25519_setone@@YAXPAUfe25519@@@Z 0045f9a0 f   crypto.obj
 0001:0005e9e0       ?fe25519_getparity@@YAEPBUfe25519@@@Z 0045f9e0 f   crypto.obj
 0001:0005ea30       ?fe25519_cmov@@YAXPAUfe25519@@PBU1@E@Z 0045fa30 f   crypto.obj
 0001:0005ead0       ?fe25519_iseq_vartime@@YAHPBUfe25519@@0@Z 0045fad0 f   crypto.obj
 0001:0005eb70       ?fe25519_pack@@YAXQAEPBUfe25519@@@Z 0045fb70 f   crypto.obj
 0001:0005ec60       ?fe25519_unpack@@YAXPAUfe25519@@QBE@Z 0045fc60 f   crypto.obj
 0001:0005ecf0       ?fe25519_freeze@@YAXPAUfe25519@@@Z 0045fcf0 f   crypto.obj
 0001:0005ee90       ?entropy_get@@YAXPAEH@Z    0045fe90 f   crypto.obj
 0001:0005efd0       ?seedMT@@YAXI@Z            0045ffd0 f   crypto.obj
 0001:0005f030       ?seedMT_do@@YAXIPAII@Z     00460030 f   crypto.obj
 0001:0005f060       ?sha512@@YAXPAEPBEH@Z      00460060 f   crypto.obj
 0001:0005f280       ?sha512_compress@@YAXPA_KPBE@Z 00460280 f   crypto.obj
 0001:00060010       ?hash@tiger@@YAXPBEHAAThashval@1@@Z 00461010 f   crypto.obj
 0001:00060170       ?hash_finish@tiger@@YAXAAThashval@1@PAUincremental_buffer@1@@Z 00461170 f   crypto.obj
 0001:00060240       ?hash_incremental@tiger@@YAXPBEHAAThashval@1@PAUincremental_buffer@1@@Z 00461240 f   crypto.obj
 0001:000602d0       ?hash_init@tiger@@YAPAUincremental_buffer@1@AAThashval@1@@Z 004612d0 f   crypto.obj
 0001:00060330       ?gensboxes@tiger@@YAXXZ    00461330 f   crypto.obj
 0001:00060550       ?compress@tiger@@YAXPB_KQA_K@Z 00461550 f   crypto.obj
 0001:00060fa0       ?genpwdhash@@YAPBDPBD0H@Z  00461fa0 f   crypto.obj
 0001:00061110       ?entropy_init@@YAXI@Z      00462110 f   crypto.obj
 0001:00061350       ?ed25519_sign_check@@YAPAEPAEHPBE@Z 00462350 f   crypto.obj
 0001:00061480       ?tigerhash@@YAXPAEPBEH@Z   00462480 f   crypto.obj
 0001:00061490       ?hex2bin@@YAHPAEPBDH@Z     00462490 f   crypto.obj
 0001:00061510       ?tigerhash_add@@YAXPAEPBXHPAX@Z 00462510 f   crypto.obj
 0001:000615b0       ?bin2hex@@YAPBDPADPBEH@Z   004625b0 f   crypto.obj
 0001:00061600       ?tigerhash_init@@YAPAXPAE@Z 00462600 f   crypto.obj
 0001:00061660       ?entropy_save@@YAXXZ       00462660 f   crypto.obj
 0001:000616e0       ?entropy_add_block@@YAXPBEH@Z 004626e0 f   crypto.obj
 0001:000617f0       ?ed25519_pubkey_from_private@@YAXPAEPBE@Z 004627f0 f   crypto.obj
 0001:00061870       ?ed25519_sign@@YAXPAEPAHPBEH2@Z 00462870 f   crypto.obj
 0001:00061a90       ?tigerhash_finish@@YAXPAEPAX@Z 00462a90 f   crypto.obj
 0001:00061ab0       ?randomMT@@YAIXZ           00462ab0 f   crypto.obj
 0001:00061bb0       ?entropy_add_byte@@YAXE@Z  00462bb0 f   crypto.obj
 0001:00061c10       ?logworkerthread@@YAHPAX@Z 00462c10 f   log.obj
 0001:00061e60       ?mlog@@YAXHPBDZZ           00462e60 f   log.obj
 0001:00061f60       ?tlog@@YAXHPBDZZ           00462f60 f   log.obj
 0001:000620a0       ?poll_logbuffers@@YAXXZ    004630a0 f   log.obj
 0001:00062280       ?xlog@@YAXHPBDZZ           00463280 f   log.obj
 0001:00062470       ?initlogging@@YA_NPBDHHHH_N0@Z 00463470 f   log.obj
 0001:00062880       ?exitlogging@@YAXXZ        00463880 f   log.obj
 0001:000628c0       ?logcheck@@YA_NH@Z         004638c0 f   log.obj
 0001:00062900       ?openrawfile@@YAPAUstream@@PBD0@Z 00463900 f   stream.obj
 0001:00062960       ?getline@stream@@UAE_NPADH@Z 00463960 f   stream.obj
 0001:000629d0       ?size@stream@@UAEJXZ       004639d0 f   stream.obj
 0001:00062a20       ?listdir@@YA_NPBD0AAU?$vector@PAD@@@Z 00463a20 f   stream.obj
 0001:00062b80       ?findfile@@YAPBDPBD0@Z     00463b80 f   stream.obj
 0001:00062db0       ?createdir@@YA_NPBD@Z      00463db0 f   stream.obj
 0001:00062e00       ?behindpath@@YAPBDPBD@Z    00463e00 f   stream.obj
 0001:00062e30       ?fileexists@@YA_NPBD0@Z    00463e30 f   stream.obj
 0001:00062e60       ?opengzfile@@YAPAUstream@@PBD0PAU1@H@Z 00463e60 f   stream.obj
 0001:00062f30       ?listfiles@@YAXPBD0AAU?$vector@PAD@@P6AHPAPBD2@Z@Z 00463f30 f   stream.obj
 0001:00063070       ?openfile@@YAPAUstream@@PBD0@Z 00464070 f   stream.obj
 0001:000630d0       ?loadfile@@YAPADPBDPAH0@Z  004640d0 f   stream.obj
 0001:00063160       ?openvecfile@@YAPAUstream@@PAU?$vector@E@@_N@Z 00464160 f   stream.obj
 0001:000631b0       ?getfilesize@@YAHPBD@Z     004641b0 f   stream.obj
 0001:00063230       ?parentdir@@YAPBDPBD@Z     00464230 f   stream.obj
 0001:00063280       ?backup@@YAXPAD0@Z         00464280 f   stream.obj
 0001:00063300       ?path@@YAPADPAD@Z          00464300 f   stream.obj
 0001:00063490       ?cvecconcat@@YAHAAU?$vector@D@@PBD@Z 00464490 f   tools.obj
 0001:000634e0       ?stringsortignorecase@@YAHPAPBD0@Z 004644e0 f   tools.obj
 0001:00063500       ?cmpintdesc@@YAHPBH0@Z     00464500 f   tools.obj
 0001:00063510       ?cvecprintf@@YAHAAU?$vector@D@@PBDZZ 00464510 f   tools.obj
 0001:000635b0       ?asctimestr@@YAPBDXZ       004645b0 f   tools.obj
 0001:00063600       ?transformoldentitytypes@@YAXHAAE@Z 00464600 f   tools.obj
 0001:00063630       ?cmpiprange@@YAHPBUiprange@@0@Z 00464630 f   tools.obj
 0001:00063650       ?numtime@@YAPBDXZ          00464650 f   tools.obj
 0001:000636b0       ?strtoupper@@YAXPADPBD@Z   004646b0 f   tools.obj
 0001:000636e0       ?strtok_r@@YAPADPADPBDPAPAD@Z 004646e0 f   tools.obj
 0001:00063730       ?sl_createthread@@YAPAXP6AHPAX@Z0PBD@Z 00464730 f   tools.obj
 0001:00063770       ?stringsort@@YAHPAPBD0@Z   00464770 f   tools.obj
 0001:000637b0       ?formatdemofilename@@YAPADPBD00HHHHIPAD@Z 004647b0 f   tools.obj
 0001:00063e40       ?cmpintasc@@YAHPBH0@Z      00464e40 f   tools.obj
 0001:00063e50       ?post@sl_semaphore@@QAEXXZ 00464e50 f   tools.obj
 0001:00063e70       ?getvalue@sl_semaphore@@QAEHXZ 00464e70 f   tools.obj
 0001:00063e80       ?timedwait@sl_semaphore@@QAEHH@Z 00464e80 f   tools.obj
 0001:00063ea0       ?trywait@sl_semaphore@@QAEHXZ 00464ea0 f   tools.obj
 0001:00063eb0       ?wait@sl_semaphore@@QAEXXZ 00464eb0 f   tools.obj
 0001:00063ed0       ??1sl_semaphore@@QAE@XZ    00464ed0 f   tools.obj
 0001:00063ee0       ??0sl_semaphore@@QAE@HPAH@Z 00464ee0 f   tools.obj
 0001:00063f10       ?getlistindex@@YAHPBDQAPBD_NH@Z 00464f10 f   tools.obj
 0001:00063f50       ?cmpipmatch@@YAHPBUiprange@@0@Z 00464f50 f   tools.obj
 0001:00063f70       ?calcmapdims@@YAHAAUmapdim_s@@PBUservsqr@@H@Z 00464f70 f   tools.obj
 0001:000640b0       ?ismainthread@@YA_NXZ      004650b0 f   tools.obj
 0001:000640c0       ?stackdumper@@YAXIPAU_EXCEPTION_POINTERS@@@Z 004650c0 f   tools.obj
 0001:00064320       ?timestring@@YAPBD_J_NPBDPAD@Z 00465320 f   tools.obj
 0001:00064370       ?iprtoa@@YAPBDABUiprange@@PAD@Z 00465370 f   tools.obj
 0001:00064400       ?atoipr@@YAPBDPBDPAUiprange@@@Z 00465400 f   tools.obj
 0001:000644b0       ?hiddenpwd@@YAPBDPBDH@Z    004654b0 f   tools.obj
 0001:00064510       ?peekmapheader@@YAPAUheader@@PAEH@Z 00465510 f   tools.obj
 0001:00064590       ?atoip@@YAPBDPBDPAI@Z      00465590 f   tools.obj
 0001:00064660       ?calcmapareastats@@YAHAAUmapareastats_s@@PAUservsqr@@HABUmapdim_s@@@Z 00465660 f   tools.obj
 0001:00064e40       ?calcentitystats@@YAXAAUentitystats_s@@PBUpersistent_entity@@H@Z 00465e40 f   tools.obj
 0001:000651f0       ?fixmapheadersize@@YAHHH@Z 004661f0 f   tools.obj
 0001:00065220       ?iptoa@@YAPBDIPAD@Z        00466220 f   tools.obj
 0001:00065260       ?concatformatstring@@YAPADPADPBDZZ 00466260 f   tools.obj
 0001:00065610       ?wizardmain@@YAHHPAPAD@Z   00466610 f   wizard.obj
 0001:00066ae0       ?gmode_possible@@YAH_N00@Z 00467ae0 f   protocol1.obj
 0001:00066b20       ?acronymmodestr@@YAPBDH@Z  00467b20 f   protocol1.obj
 0001:00066b40       ?fullmodestr@@YAPBDH@Z     00467b40 f   protocol1.obj
 0001:00066b60       ?getstring@@YAXPADAAU?$databuf@E@@H@Z 00467b60 f   protocol1.obj
 0001:00066c40       ?decodeyaw@@YAMH@Z         00467c40 f   protocol1.obj
 0001:00066c60       ?getuintn@@YA_KAAU?$databuf@E@@H@Z 00467c60 f   protocol1.obj
 0001:00066d70       ?getip4@@YAIAAU?$databuf@E@@@Z 00467d70 f   protocol1.obj
 0001:00066e10       ?getuint@@YAHAAU?$databuf@E@@@Z 00467e10 f   protocol1.obj
 0001:00066ee0       ?disc_reason@@YAPBDH@Z     00467ee0 f   protocol1.obj
 0001:00066fb0       ?msgsizelookup@@YAHH@Z     00467fb0 f   protocol1.obj
 0001:00067010       ?mmfullname@@YAPBDH@Z      00468010 f   protocol1.obj
 0001:00067030       ?gmode_parse@@YAHPBD@Z     00468030 f   protocol1.obj
 0001:00067110       ?putint@@YAXAAU?$databuf@E@@H@Z 00468110 f   protocol1.obj
 0001:00067120       ?putint@@YAXAAUpacketbuf@@H@Z 00468120 f   protocol1.obj
 0001:000671f0       ?putint@@YAXAAU?$vector@E@@H@Z 004681f0 f   protocol1.obj
 0001:00067200       ?putuint@@YAXAAUpacketbuf@@H@Z 00468200 f   protocol1.obj
 0001:000672e0       ?putuint@@YAXAAU?$vector@E@@H@Z 004682e0 f   protocol1.obj
 0001:000672f0       ?putip4@@YAXAAUpacketbuf@@I@Z 004682f0 f   protocol1.obj
 0001:00067350       ?putaint@@YAXAAUpacketbuf@@H@Z 00468350 f   protocol1.obj
 0001:00067420       ?sendstring@@YAXPBDAAU?$databuf@E@@@Z 00468420 f   protocol1.obj
 0001:00067450       ?sendstring@@YAXPBDAAUpacketbuf@@@Z 00468450 f   protocol1.obj
 0001:00067480       ?sendstring@@YAXPBDAAU?$vector@E@@@Z 00468480 f   protocol1.obj
 0001:000674b0       ?validmapname@@YA_NPBD@Z   004684b0 f   protocol1.obj
 0001:00067570       ?escapestring@@YAPBDPBD_N1PAU?$vector@D@@@Z 00468570 f   protocol1.obj
 0001:000678b0       ?decodepitch@@YAMH@Z       004688b0 f   protocol1.obj
 0001:00067910       ?gmode_enum@@YAPADHPAD@Z   00468910 f   protocol1.obj
 0001:00067a50       ?getgzbuf@@YAPAU?$databuf@E@@AAU1@@Z 00468a50 f   protocol1.obj
 0001:00067b40       ?voteerrorstr@@YAPBDH@Z    00468b40 f   protocol1.obj
 0001:00067b60       ?getint@@YAHAAU?$databuf@E@@@Z 00468b60 f   protocol1.obj
 0001:00067c80       ?defaultgamelimit@@YAHH@Z  00468c80 f   protocol1.obj
 0001:00067cd0       ?lastclactionslookup@@YAHH@Z 00468cd0 f   protocol1.obj
 0001:00067cf0       ?filterrichtext@@YAXPADPBDH@Z 00468cf0 f   protocol1.obj
 0001:00067ea0       ?filtertext@@YAPADPADPBDHH@Z 00468ea0 f   protocol1.obj
 0001:00068260       ?filtercountrycode@@YAXPADPBD@Z 00469260 f   protocol1.obj
 0001:000682c0       ?filterlang@@YAXPADPBD@Z   004692c0 f   protocol1.obj
 0001:00068320       ?modestr@@YAPBDH_N@Z       00469320 f   protocol1.obj
 0001:00068370       ?freegzbuf@@YAXPAU?$databuf@E@@@Z 00469370 f   protocol1.obj
 0001:00068390       __ftol3                    00469390 f   LIBCMT:ftol3.obj
 0001:00068400       __libm_sse2_sqrt_precise   00469400 f   libucrt:sqrt_sse2_precise.obj
 0001:00068500       _sqrt                      00469500 f   libucrt:sqrt.obj
 0001:00068510       __CIsqrt                   00469510 f   libucrt:sqrt_impl.obj
 0001:00068524       __sqrt_common              00469524     libucrt:sqrt_impl.obj
 0002:00000000       __imp__CreateServiceA@52   0046b000     advapi32:ADVAPI32.dll
 0002:00000004       __imp__CloseServiceHandle@4 0046b004     advapi32:ADVAPI32.dll
 0002:00000008       __imp__OpenSCManagerA@12   0046b008     advapi32:ADVAPI32.dll
 0002:0000000c       __imp__OpenServiceA@12     0046b00c     advapi32:ADVAPI32.dll
 0002:00000010       __imp__StartServiceCtrlDispatcherA@4 0046b010     advapi32:ADVAPI32.dll
 0002:00000014       __imp__SetServiceStatus@8  0046b014     advapi32:ADVAPI32.dll
 0002:00000018       __imp__RegisterServiceCtrlHandlerA@8 0046b018     advapi32:ADVAPI32.dll
 0002:0000001c       \177ADVAPI32_NULL_THUNK_DATA 0046b01c     advapi32:ADVAPI32.dll
 0002:00000020       __imp__IsValidCodePage@4   0046b020     kernel32:KERNEL32.dll
 0002:00000024       __imp__FindNextFileW@8     0046b024     kernel32:KERNEL32.dll
 0002:00000028       __imp__FindFirstFileExW@24 0046b028     kernel32:KERNEL32.dll
 0002:0000002c       __imp__HeapReAlloc@16      0046b02c     kernel32:KERNEL32.dll
 0002:00000030       __imp__SetStdHandle@8      0046b030     kernel32:KERNEL32.dll
 0002:00000034       __imp__GetCurrentDirectoryW@8 0046b034     kernel32:KERNEL32.dll
 0002:00000038       __imp__GetFileAttributesExW@12 0046b038     kernel32:KERNEL32.dll
 0002:0000003c       __imp__CreateProcessW@40   0046b03c     kernel32:KERNEL32.dll
 0002:00000040       __imp__GetExitCodeProcess@8 0046b040     kernel32:KERNEL32.dll
 0002:00000044       __imp__GetTimeZoneInformation@4 0046b044     kernel32:KERNEL32.dll
 0002:00000048       __imp__MoveFileExW@12      0046b048     kernel32:KERNEL32.dll
 0002:0000004c       __imp__FlushFileBuffers@4  0046b04c     kernel32:KERNEL32.dll
 0002:00000050       __imp__ReadConsoleW@20     0046b050     kernel32:KERNEL32.dll
 0002:00000054       __imp__SetFilePointerEx@20 0046b054     kernel32:KERNEL32.dll
 0002:00000058       __imp__GetFileSizeEx@8     0046b058     kernel32:KERNEL32.dll
 0002:0000005c       __imp__GetConsoleMode@8    0046b05c     kernel32:KERNEL32.dll
 0002:00000060       __imp__GetConsoleOutputCP@0 0046b060     kernel32:KERNEL32.dll
 0002:00000064       __imp__DeleteFileW@4       0046b064     kernel32:KERNEL32.dll
 0002:00000068       __imp__GetFileType@4       0046b068     kernel32:KERNEL32.dll
 0002:0000006c       __imp__EnumSystemLocalesW@8 0046b06c     kernel32:KERNEL32.dll
 0002:00000070       __imp__GetUserDefaultLCID@0 0046b070     kernel32:KERNEL32.dll
 0002:00000074       __imp__IsValidLocale@8     0046b074     kernel32:KERNEL32.dll
 0002:00000078       __imp__GetLocaleInfoW@16   0046b078     kernel32:KERNEL32.dll
 0002:0000007c       __imp__LCMapStringW@24     0046b07c     kernel32:KERNEL32.dll
 0002:00000080       __imp__CompareStringW@24   0046b080     kernel32:KERNEL32.dll
 0002:00000084       __imp__GetTimeFormatW@24   0046b084     kernel32:KERNEL32.dll
 0002:00000088       __imp__GetDateFormatW@24   0046b088     kernel32:KERNEL32.dll
 0002:0000008c       __imp__LoadLibraryExW@12   0046b08c     kernel32:KERNEL32.dll
 0002:00000090       __imp__VirtualProtect@16   0046b090     kernel32:KERNEL32.dll
 0002:00000094       __imp__HeapFree@12         0046b094     kernel32:KERNEL32.dll
 0002:00000098       __imp__HeapAlloc@12        0046b098     kernel32:KERNEL32.dll
 0002:0000009c       __imp__UnhandledExceptionFilter@4 0046b09c     kernel32:KERNEL32.dll
 0002:000000a0       __imp__IsDebuggerPresent@0 0046b0a0     kernel32:KERNEL32.dll
 0002:000000a4       __imp__GetACP@0            0046b0a4     kernel32:KERNEL32.dll
 0002:000000a8       __imp__GetCommandLineA@0   0046b0a8     kernel32:KERNEL32.dll
 0002:000000ac       __imp__WriteFile@20        0046b0ac     kernel32:KERNEL32.dll
 0002:000000b0       __imp__GetStdHandle@4      0046b0b0     kernel32:KERNEL32.dll
 0002:000000b4       __imp__GetModuleFileNameW@12 0046b0b4     kernel32:KERNEL32.dll
 0002:000000b8       __imp__GetFullPathNameW@16 0046b0b8     kernel32:KERNEL32.dll
 0002:000000bc       __imp__GetDriveTypeW@4     0046b0bc     kernel32:KERNEL32.dll
 0002:000000c0       __imp__FreeLibraryAndExitThread@8 0046b0c0     kernel32:KERNEL32.dll
 0002:000000c4       __imp__ExitThread@4        0046b0c4     kernel32:KERNEL32.dll
 0002:000000c8       __imp__CreateThread@24     0046b0c8     kernel32:KERNEL32.dll
 0002:000000cc       __imp__ReadFile@20         0046b0cc     kernel32:KERNEL32.dll
 0002:000000d0       __imp__SetConsoleCtrlHandler@8 0046b0d0     kernel32:KERNEL32.dll
 0002:000000d4       __imp__GetProcAddress@8    0046b0d4     kernel32:KERNEL32.dll
 0002:000000d8       __imp__GetModuleHandleExW@12 0046b0d8     kernel32:KERNEL32.dll
 0002:000000dc       __imp__FreeLibrary@4       0046b0dc     kernel32:KERNEL32.dll
 0002:000000e0       __imp__TerminateProcess@8  0046b0e0     kernel32:KERNEL32.dll
 0002:000000e4       __imp__ExitProcess@4       0046b0e4     kernel32:KERNEL32.dll
 0002:000000e8       __imp__FlsFree@4           0046b0e8     kernel32:KERNEL32.dll
 0002:000000ec       __imp__FlsSetValue@8       0046b0ec     kernel32:KERNEL32.dll
 0002:000000f0       __imp__FlsGetValue@4       0046b0f0     kernel32:KERNEL32.dll
 0002:000000f4       __imp__FlsAlloc@4          0046b0f4     kernel32:KERNEL32.dll
 0002:000000f8       __imp__WideCharToMultiByte@32 0046b0f8     kernel32:KERNEL32.dll
 0002:000000fc       __imp__SetPriorityClass@8  0046b0fc     kernel32:KERNEL32.dll
 0002:00000100       __imp__GetCurrentProcess@0 0046b100     kernel32:KERNEL32.dll
 0002:00000104       __imp__WaitForSingleObject@8 0046b104     kernel32:KERNEL32.dll
 0002:00000108       __imp__SetCurrentDirectoryA@4 0046b108     kernel32:KERNEL32.dll
 0002:0000010c       __imp__SetEvent@4          0046b10c     kernel32:KERNEL32.dll
 0002:00000110       __imp__CloseHandle@4       0046b110     kernel32:KERNEL32.dll
 0002:00000114       __imp__CreateEventA@16     0046b114     kernel32:KERNEL32.dll
 0002:00000118       __imp__FindFirstFileA@8    0046b118     kernel32:KERNEL32.dll
 0002:0000011c       __imp__FindNextFileA@8     0046b11c     kernel32:KERNEL32.dll
 0002:00000120       __imp__FindClose@4         0046b120     kernel32:KERNEL32.dll
 0002:00000124       __imp__GetFileAttributesA@4 0046b124     kernel32:KERNEL32.dll
 0002:00000128       __imp__CreateDirectoryA@8  0046b128     kernel32:KERNEL32.dll
 0002:0000012c       __imp__GetCurrentThread@0  0046b12c     kernel32:KERNEL32.dll
 0002:00000130       __imp__GetLastError@0      0046b130     kernel32:KERNEL32.dll
 0002:00000134       __imp__SetLastError@4      0046b134     kernel32:KERNEL32.dll
 0002:00000138       __imp__GetOEMCP@0          0046b138     kernel32:KERNEL32.dll
 0002:0000013c       __imp__GetEnvironmentStringsW@0 0046b13c     kernel32:KERNEL32.dll
 0002:00000140       __imp__FreeEnvironmentStringsW@4 0046b140     kernel32:KERNEL32.dll
 0002:00000144       __imp__SetEnvironmentVariableW@8 0046b144     kernel32:KERNEL32.dll
 0002:00000148       __imp__GetProcessHeap@0    0046b148     kernel32:KERNEL32.dll
 0002:0000014c       __imp__CreateFileW@28      0046b14c     kernel32:KERNEL32.dll
 0002:00000150       __imp__HeapSize@12         0046b150     kernel32:KERNEL32.dll
 0002:00000154       __imp__SetEndOfFile@4      0046b154     kernel32:KERNEL32.dll
 0002:00000158       __imp__GetCommandLineW@0   0046b158     kernel32:KERNEL32.dll
 0002:0000015c       __imp__LeaveCriticalSection@4 0046b15c     kernel32:KERNEL32.dll
 0002:00000160       __imp__EnterCriticalSection@4 0046b160     kernel32:KERNEL32.dll
 0002:00000164       __imp__WriteConsoleW@20    0046b164     kernel32:KERNEL32.dll
 0002:00000168       __imp__InitializeCriticalSectionEx@12 0046b168     kernel32:KERNEL32.dll
 0002:0000016c       __imp__DeleteCriticalSection@4 0046b16c     kernel32:KERNEL32.dll
 0002:00000170       __imp__EncodePointer@4     0046b170     kernel32:KERNEL32.dll
 0002:00000174       __imp__DecodePointer@4     0046b174     kernel32:KERNEL32.dll
 0002:00000178       __imp__MultiByteToWideChar@24 0046b178     kernel32:KERNEL32.dll
 0002:0000017c       __imp__LCMapStringEx@36    0046b17c     kernel32:KERNEL32.dll
 0002:00000180       __imp__GetStringTypeW@16   0046b180     kernel32:KERNEL32.dll
 0002:00000184       __imp__GetCPInfo@8         0046b184     kernel32:KERNEL32.dll
 0002:00000188       __imp__ReleaseSRWLockExclusive@4 0046b188     kernel32:KERNEL32.dll
 0002:0000018c       __imp__AcquireSRWLockExclusive@4 0046b18c     kernel32:KERNEL32.dll
 0002:00000190       __imp__WakeAllConditionVariable@4 0046b190     kernel32:KERNEL32.dll
 0002:00000194       __imp__SleepConditionVariableSRW@16 0046b194     kernel32:KERNEL32.dll
 0002:00000198       __imp__IsProcessorFeaturePresent@4 0046b198     kernel32:KERNEL32.dll
 0002:0000019c       __imp__SetUnhandledExceptionFilter@4 0046b19c     kernel32:KERNEL32.dll
 0002:000001a0       __imp__GetStartupInfoW@4   0046b1a0     kernel32:KERNEL32.dll
 0002:000001a4       __imp__GetModuleHandleW@4  0046b1a4     kernel32:KERNEL32.dll
 0002:000001a8       __imp__QueryPerformanceCounter@4 0046b1a8     kernel32:KERNEL32.dll
 0002:000001ac       __imp__GetCurrentProcessId@0 0046b1ac     kernel32:KERNEL32.dll
 0002:000001b0       __imp__GetCurrentThreadId@0 0046b1b0     kernel32:KERNEL32.dll
 0002:000001b4       __imp__GetSystemTimeAsFileTime@4 0046b1b4     kernel32:KERNEL32.dll
 0002:000001b8       __imp__InitializeSListHead@4 0046b1b8     kernel32:KERNEL32.dll
 0002:000001bc       __imp__RaiseException@16   0046b1bc     kernel32:KERNEL32.dll
 0002:000001c0       __imp__RtlUnwind@16        0046b1c0     kernel32:KERNEL32.dll
 0002:000001c4       \177KERNEL32_NULL_THUNK_DATA 0046b1c4     kernel32:KERNEL32.dll
 0002:000001c8       __imp__SDL_SemTryWait      0046b1c8     SDL2:SDL2.dll
 0002:000001cc       __imp__SDL_SemPost         0046b1cc     SDL2:SDL2.dll
 0002:000001d0       __imp__SDL_SemWait         0046b1d0     SDL2:SDL2.dll
 0002:000001d4       __imp__SDL_DestroySemaphore 0046b1d4     SDL2:SDL2.dll
 0002:000001d8       __imp__SDL_ThreadID        0046b1d8     SDL2:SDL2.dll
 0002:000001dc       __imp__SDL_CreateSemaphore 0046b1dc     SDL2:SDL2.dll
 0002:000001e0       __imp__SDL_SemWaitTimeout  0046b1e0     SDL2:SDL2.dll
 0002:000001e4       __imp__SDL_CreateThread    0046b1e4     SDL2:SDL2.dll
 0002:000001e8       __imp__SDL_SemValue        0046b1e8     SDL2:SDL2.dll
 0002:000001ec       \177SDL2_NULL_THUNK_DATA   0046b1ec     SDL2:SDL2.dll
 0002:000001f0       __imp__timeGetTime@0       0046b1f0     winmm:WINMM.dll
 0002:000001f4       __imp__timeEndPeriod@4     0046b1f4     winmm:WINMM.dll
 0002:000001f8       __imp__timeBeginPeriod@4   0046b1f8     winmm:WINMM.dll
 0002:000001fc       \177WINMM_NULL_THUNK_DATA  0046b1fc     winmm:WINMM.dll
 0002:00000200       __imp__shutdown@8          0046b200     ws2_32:WS2_32.dll
 0002:00000204       __imp__ntohs@4             0046b204     ws2_32:WS2_32.dll
 0002:00000208       __imp__accept@12           0046b208     ws2_32:WS2_32.dll
 0002:0000020c       __imp__closesocket@4       0046b20c     ws2_32:WS2_32.dll
 0002:00000210       __imp__connect@12          0046b210     ws2_32:WS2_32.dll
 0002:00000214       __imp__ioctlsocket@12      0046b214     ws2_32:WS2_32.dll
 0002:00000218       __imp__setsockopt@20       0046b218     ws2_32:WS2_32.dll
 0002:0000021c       __imp__socket@12           0046b21c     ws2_32:WS2_32.dll
 0002:00000220       __imp__listen@8            0046b220     ws2_32:WS2_32.dll
 0002:00000224       __imp__WSASendTo@36        0046b224     ws2_32:WS2_32.dll
 0002:00000228       __imp__htons@4             0046b228     ws2_32:WS2_32.dll
 0002:0000022c       __imp__gethostbyaddr@12    0046b22c     ws2_32:WS2_32.dll
 0002:00000230       __imp__inet_ntoa@4         0046b230     ws2_32:WS2_32.dll
 0002:00000234       __imp__inet_addr@4         0046b234     ws2_32:WS2_32.dll
 0002:00000238       __imp__gethostbyname@4     0046b238     ws2_32:WS2_32.dll
 0002:0000023c       __imp__WSACleanup@0        0046b23c     ws2_32:WS2_32.dll
 0002:00000240       __imp__WSAStartup@8        0046b240     ws2_32:WS2_32.dll
 0002:00000244       __imp____WSAFDIsSet@8      0046b244     ws2_32:WS2_32.dll
 0002:00000248       __imp__ntohl@4             0046b248     ws2_32:WS2_32.dll
 0002:0000024c       __imp__htonl@4             0046b24c     ws2_32:WS2_32.dll
 0002:00000250       __imp__WSARecvFrom@36      0046b250     ws2_32:WS2_32.dll
 0002:00000254       __imp__select@20           0046b254     ws2_32:WS2_32.dll
 0002:00000258       __imp__bind@12             0046b258     ws2_32:WS2_32.dll
 0002:0000025c       __imp__WSAGetLastError@0   0046b25c     ws2_32:WS2_32.dll
 0002:00000260       \177WS2_32_NULL_THUNK_DATA 0046b260     ws2_32:WS2_32.dll
 0002:00000264       __imp__SymGetLineFromAddr@16 0046b264     Dbghelp:dbghelp.dll
 0002:00000268       __imp__SymFunctionTableAccess@8 0046b268     Dbghelp:dbghelp.dll
 0002:0000026c       __imp__SymGetModuleBase@8  0046b26c     Dbghelp:dbghelp.dll
 0002:00000270       __imp__SymInitialize@12    0046b270     Dbghelp:dbghelp.dll
 0002:00000274       __imp__StackWalk@36        0046b274     Dbghelp:dbghelp.dll
 0002:00000278       __imp__SymGetSymFromAddr@16 0046b278     Dbghelp:dbghelp.dll
 0002:0000027c       \177dbghelp_NULL_THUNK_DATA 0046b27c     Dbghelp:dbghelp.dll
 0002:00000280       __imp__curl_easy_getinfo   0046b280     libcurl_imp:libcurl.dll
 0002:00000284       __imp__curl_global_init    0046b284     libcurl_imp:libcurl.dll
 0002:00000288       __imp__curl_global_cleanup 0046b288     libcurl_imp:libcurl.dll
 0002:0000028c       __imp__curl_easy_init      0046b28c     libcurl_imp:libcurl.dll
 0002:00000290       __imp__curl_slist_append   0046b290     libcurl_imp:libcurl.dll
 0002:00000294       __imp__curl_slist_free_all 0046b294     libcurl_imp:libcurl.dll
 0002:00000298       __imp__curl_easy_perform   0046b298     libcurl_imp:libcurl.dll
 0002:0000029c       __imp__curl_easy_cleanup   0046b29c     libcurl_imp:libcurl.dll
 0002:000002a0       __imp__curl_easy_setopt    0046b2a0     libcurl_imp:libcurl.dll
 0002:000002a4       \177libcurl_NULL_THUNK_DATA 0046b2a4     libcurl_imp:libcurl.dll
 0002:000002a8       __imp__uncompress          0046b2a8     zdll:zlib1.dll
 0002:000002ac       __imp__compress2           0046b2ac     zdll:zlib1.dll
 0002:000002b0       __imp__inflateEnd          0046b2b0     zdll:zlib1.dll
 0002:000002b4       __imp__inflate             0046b2b4     zdll:zlib1.dll
 0002:000002b8       __imp__deflateInit2_       0046b2b8     zdll:zlib1.dll
 0002:000002bc       __imp__inflateReset        0046b2bc     zdll:zlib1.dll
 0002:000002c0       __imp__deflateEnd          0046b2c0     zdll:zlib1.dll
 0002:000002c4       __imp__crc32               0046b2c4     zdll:zlib1.dll
 0002:000002c8       __imp__deflate             0046b2c8     zdll:zlib1.dll
 0002:000002cc       __imp__inflateInit2_       0046b2cc     zdll:zlib1.dll
 0002:000002d0       \177zlib1_NULL_THUNK_DATA  0046b2d0     zdll:zlib1.dll
 0002:000002d4       ___guard_check_icall_fptr  0046b2d4     LIBCMT:guard_support.obj
 0002:000002d8       ___castguard_check_failure_os_handled_fptr 0046b2d8     LIBCMT:guard_support.obj
 0002:000002dc       ___xc_a                    0046b2dc     LIBCMT:initializers.obj
 0002:00000418       ___xc_z                    0046b418     LIBCMT:initializers.obj
 0002:0000041c       ___xi_a                    0046b41c     LIBCMT:initializers.obj
 0002:00000428       ___acrt_stdio_initializer  0046b428     libucrt:stdio_initializer.obj
 0002:0000042c       ___acrt_timeset_initializer 0046b42c     libucrt:timeset_initializer.obj
 0002:00000430       ___acrt_multibyte_initializer 0046b430     libucrt:multibyte_initializer.obj
 0002:00000434       ___acrt_fmode_initializer  0046b434     libucrt:fmode_initializer.obj
 0002:00000438       ___acrt_tran_sse2_initializer 0046b438     libucrt:sse2_initializer.obj
 0002:0000043c       ___xi_z                    0046b43c     LIBCMT:initializers.obj
 0002:00000440       ___xl_a                    0046b440     LIBCMT:tlssup.obj
 0002:00000444       ___xl_z                    0046b444     LIBCMT:tlssup.obj
 0002:00000448       ___xp_a                    0046b448     LIBCMT:initializers.obj
 0002:0000044c       ___acrt_locale_terminator  0046b44c     libucrt:locale_initializer.obj
 0002:00000450       ___dcrt_console_output_terminator 0046b450     libucrt:console_output_initializer.obj
 0002:00000454       ___acrt_stdio_terminator   0046b454     libucrt:stdio_initializer.obj
 0002:00000458       ___xp_z                    0046b458     LIBCMT:initializers.obj
 0002:0000045c       ___xt_a                    0046b45c     LIBCMT:initializers.obj
 0002:00000460       ___xt_z                    0046b460     LIBCMT:initializers.obj
 0002:000005a4       ??_7exception@std@@6B@     0046b5a4     libcpmt:xthrow.obj
 0002:000005b0       ??_7bad_alloc@std@@6B@     0046b5b0     libcpmt:xthrow.obj
 0002:000005b8       ??_C@_0P@GHFPNOJB@bad?5allocation@ 0046b5b8     libcpmt:xthrow.obj
 0002:000005cc       ??_7logic_error@std@@6B@   0046b5cc     libcpmt:xthrow.obj
 0002:000005d8       ??_7length_error@std@@6B@  0046b5d8     libcpmt:xthrow.obj
 0002:000005e4       ??_7out_of_range@std@@6B@  0046b5e4     libcpmt:xthrow.obj
 0002:000005f0       ??_7runtime_error@std@@6B@ 0046b5f0     libcpmt:xthrow.obj
 0002:00002b20       __ymm@0000001f0000001f0000001f0000001f0000001f0000001f0000001f0000001f 0046db20     libcpmt:vector_algorithms.obj
 0002:00002b44       ??_7_Facet_base@std@@6B@   0046db44     libcpmt:locale0.obj
 0002:00002b54       ??_7_Locimp@locale@std@@6B@ 0046db54     libcpmt:locale0.obj
 0002:00002b60       ??_C@_01GFHCPBMG@C@        0046db60     libcpmt:locale0.obj
 0002:00002b68       ?_BADOFF@std@@3_JB         0046db68     libcpmt:ios.obj
 0002:00003088       ??_C@_07IPNMCAN@success@   0046e088     libcpmt:syserror.obj
 0002:00003090       ??_C@_0BN@LKKBCCDB@address?5family?5not?5supported@ 0046e090     libcpmt:syserror.obj
 0002:000030b0       ??_C@_0P@LDMLAFHI@address?5in?5use@ 0046e0b0     libcpmt:syserror.obj
 0002:000030c0       ??_C@_0BG@DHPCNBJB@address?5not?5available@ 0046e0c0     libcpmt:syserror.obj
 0002:000030d8       ??_C@_0BC@DFIBIBIL@already?5connected@ 0046e0d8     libcpmt:syserror.obj
 0002:000030ec       ??_C@_0BH@CAKOHOMI@argument?5list?5too?5long@ 0046e0ec     libcpmt:syserror.obj
 0002:00003104       ??_C@_0BH@CGIMPKIM@argument?5out?5of?5domain@ 0046e104     libcpmt:syserror.obj
 0002:0000311c       ??_C@_0M@KGHGGJGL@bad?5address@ 0046e11c     libcpmt:syserror.obj
 0002:00003128       ??_C@_0BE@MPJPGCEO@bad?5file?5descriptor@ 0046e128     libcpmt:syserror.obj
 0002:0000313c       ??_C@_0M@PMMIEFCP@bad?5message@ 0046e13c     libcpmt:syserror.obj
 0002:00003148       ??_C@_0M@KPHOFDBE@broken?5pipe@ 0046e148     libcpmt:syserror.obj
 0002:00003154       ??_C@_0BD@MGNDDEGM@connection?5aborted@ 0046e154     libcpmt:syserror.obj
 0002:00003168       ??_C@_0BP@KAIHPOGN@connection?5already?5in?5progress@ 0046e168     libcpmt:syserror.obj
 0002:00003188       ??_C@_0BB@IECNJNOI@connection?5reset@ 0046e188     libcpmt:syserror.obj
 0002:0000319c       ??_C@_0BC@PPHBOELF@cross?5device?5link@ 0046e19c     libcpmt:syserror.obj
 0002:000031b0       ??_C@_0BN@KDMIFEIP@destination?5address?5required@ 0046e1b0     libcpmt:syserror.obj
 0002:000031d0       ??_C@_0BI@NGCEHDD@device?5or?5resource?5busy@ 0046e1d0     libcpmt:syserror.obj
 0002:000031e8       ??_C@_0BE@JIDOCPHM@directory?5not?5empty@ 0046e1e8     libcpmt:syserror.obj
 0002:000031fc       ??_C@_0BI@BNCLIGPB@executable?5format?5error@ 0046e1fc     libcpmt:syserror.obj
 0002:00003214       ??_C@_0M@MIDIAGJP@file?5exists@ 0046e214     libcpmt:syserror.obj
 0002:00003220       ??_C@_0P@DNAJLBJK@file?5too?5large@ 0046e220     libcpmt:syserror.obj
 0002:00003230       ??_C@_0BC@EJHOMAAK@filename?5too?5long@ 0046e230     libcpmt:syserror.obj
 0002:00003244       ??_C@_0BH@KEFGLDAF@function?5not?5supported@ 0046e244     libcpmt:syserror.obj
 0002:0000325c       ??_C@_0BB@DHFDFGDM@host?5unreachable@ 0046e25c     libcpmt:syserror.obj
 0002:00003270       ??_C@_0BD@JPHBMONG@identifier?5removed@ 0046e270     libcpmt:syserror.obj
 0002:00003284       ??_C@_0BG@CDNPAGJK@illegal?5byte?5sequence@ 0046e284     libcpmt:syserror.obj
 0002:0000329c       ??_C@_0CD@BNPLBMNA@inappropriate?5io?5control?5operat@ 0046e29c     libcpmt:syserror.obj
 0002:000032c0       ??_C@_0M@EGEKIIMP@interrupted@ 0046e2c0     libcpmt:syserror.obj
 0002:000032cc       ??_C@_0BB@FCMFBGOM@invalid?5argument@ 0046e2cc     libcpmt:syserror.obj
 0002:000032e0       ??_C@_0N@OHAFKDEK@invalid?5seek@ 0046e2e0     libcpmt:syserror.obj
 0002:000032f0       ??_C@_08GLNPIFBN@io?5error@ 0046e2f0     libcpmt:syserror.obj
 0002:000032fc       ??_C@_0P@FLLDBIDK@is?5a?5directory@ 0046e2fc     libcpmt:syserror.obj
 0002:0000330c       ??_C@_0N@IFLPBIOP@message?5size@ 0046e30c     libcpmt:syserror.obj
 0002:0000331c       ??_C@_0N@KIIEAAIO@network?5down@ 0046e31c     libcpmt:syserror.obj
 0002:0000332c       ??_C@_0O@FNPDBHEE@network?5reset@ 0046e32c     libcpmt:syserror.obj
 0002:0000333c       ??_C@_0BE@IFNCKGE@network?5unreachable@ 0046e33c     libcpmt:syserror.obj
 0002:00003350       ??_C@_0BA@PFFCAOFK@no?5buffer?5space@ 0046e350     libcpmt:syserror.obj
 0002:00003360       ??_C@_0BB@IEPBLJHK@no?5child?5process@ 0046e360     libcpmt:syserror.obj
 0002:00003374       ??_C@_07PLECNNKG@no?5link@ 0046e374     libcpmt:syserror.obj
 0002:0000337c       ??_C@_0BC@NJECKMKE@no?5lock?5available@ 0046e37c     libcpmt:syserror.obj
 0002:00003390       ??_C@_0BF@PBGGPKKE@no?5message?5available@ 0046e390     libcpmt:syserror.obj
 0002:000033a8       ??_C@_0L@EDOLMPAK@no?5message@ 0046e3a8     libcpmt:syserror.obj
 0002:000033b4       ??_C@_0BD@EAMBFIDF@no?5protocol?5option@ 0046e3b4     libcpmt:syserror.obj
 0002:000033c8       ??_C@_0BD@IJDJKDEA@no?5space?5on?5device@ 0046e3c8     libcpmt:syserror.obj
 0002:000033dc       ??_C@_0BE@MKFDAFMP@no?5stream?5resources@ 0046e3dc     libcpmt:syserror.obj
 0002:000033f0       ??_C@_0BK@IMCPHCBI@no?5such?5device?5or?5address@ 0046e3f0     libcpmt:syserror.obj
 0002:0000340c       ??_C@_0P@FDINDDOK@no?5such?5device@ 0046e40c     libcpmt:syserror.obj
 0002:0000341c       ??_C@_0BK@NDOCBPGE@no?5such?5file?5or?5directory@ 0046e41c     libcpmt:syserror.obj
 0002:00003438       ??_C@_0BA@ENLPPKBN@no?5such?5process@ 0046e438     libcpmt:syserror.obj
 0002:00003448       ??_C@_0BA@DOCPFFJG@not?5a?5directory@ 0046e448     libcpmt:syserror.obj
 0002:00003458       ??_C@_0N@POEIPGGF@not?5a?5socket@ 0046e458     libcpmt:syserror.obj
 0002:00003468       ??_C@_0N@LGAPMMPI@not?5a?5stream@ 0046e468     libcpmt:syserror.obj
 0002:00003478       ??_C@_0O@GLMIBBEG@not?5connected@ 0046e478     libcpmt:syserror.obj
 0002:00003488       ??_C@_0BC@ENOOLCNF@not?5enough?5memory@ 0046e488     libcpmt:syserror.obj
 0002:0000349c       ??_C@_0O@NHEDABJP@not?5supported@ 0046e49c     libcpmt:syserror.obj
 0002:000034ac       ??_C@_0BD@MOLBPMEA@operation?5canceled@ 0046e4ac     libcpmt:syserror.obj
 0002:000034c0       ??_C@_0BG@KDKHOPCO@operation?5in?5progress@ 0046e4c0     libcpmt:syserror.obj
 0002:000034d8       ??_C@_0BI@OHIEJAAB@operation?5not?5permitted@ 0046e4d8     libcpmt:syserror.obj
 0002:000034f0       ??_C@_0BI@LNEGIFLN@operation?5not?5supported@ 0046e4f0     libcpmt:syserror.obj
 0002:00003508       ??_C@_0BG@OEMDKMEE@operation?5would?5block@ 0046e508     libcpmt:syserror.obj
 0002:00003520       ??_C@_0L@BLPOFLNJ@owner?5dead@ 0046e520     libcpmt:syserror.obj
 0002:0000352c       ??_C@_0BC@CIJDGCDI@permission?5denied@ 0046e52c     libcpmt:syserror.obj
 0002:00003540       ??_C@_0P@FNPOCJBE@protocol?5error@ 0046e540     libcpmt:syserror.obj
 0002:00003550       ??_C@_0BH@JPPPLHJB@protocol?5not?5supported@ 0046e550     libcpmt:syserror.obj
 0002:00003568       ??_C@_0BG@EICBIHDP@read?5only?5file?5system@ 0046e568     libcpmt:syserror.obj
 0002:00003580       ??_C@_0BO@BJBOMOEJ@resource?5deadlock?5would?5occur@ 0046e580     libcpmt:syserror.obj
 0002:000035a0       ??_C@_0BP@LKNGHENJ@resource?5unavailable?5try?5again@ 0046e5a0     libcpmt:syserror.obj
 0002:000035c0       ??_C@_0BE@GOIPJJHG@result?5out?5of?5range@ 0046e5c0     libcpmt:syserror.obj
 0002:000035d4       ??_C@_0BG@MPLKFPAE@state?5not?5recoverable@ 0046e5d4     libcpmt:syserror.obj
 0002:000035ec       ??_C@_0P@DIIFGFCG@stream?5timeout@ 0046e5ec     libcpmt:syserror.obj
 0002:000035fc       ??_C@_0P@IPFDMIFL@text?5file?5busy@ 0046e5fc     libcpmt:syserror.obj
 0002:0000360c       ??_C@_09KJPPMAOI@timed?5out@ 0046e60c     libcpmt:syserror.obj
 0002:00003618       ??_C@_0BO@HACHBEKI@too?5many?5files?5open?5in?5system@ 0046e618     libcpmt:syserror.obj
 0002:00003638       ??_C@_0BE@GHAFMPAH@too?5many?5files?5open@ 0046e638     libcpmt:syserror.obj
 0002:0000364c       ??_C@_0P@HCOMKFCC@too?5many?5links@ 0046e64c     libcpmt:syserror.obj
 0002:0000365c       ??_C@_0BO@EFGOJEF@too?5many?5symbolic?5link?5levels@ 0046e65c     libcpmt:syserror.obj
 0002:0000367c       ??_C@_0BA@KGKGOOJA@value?5too?5large@ 0046e67c     libcpmt:syserror.obj
 0002:0000368c       ??_C@_0BE@MIEJDDNH@wrong?5protocol?5type@ 0046e68c     libcpmt:syserror.obj
 0002:000036a0       ??_C@_0O@BFJCFAAK@unknown?5error@ 0046e6a0     libcpmt:syserror.obj
 0002:000036b4       ??_7bad_array_new_length@std@@6B@ 0046e6b4     libcpmt:locale.obj
 0002:000036c0       ??_7bad_cast@std@@6B@      0046e6c0     libcpmt:locale.obj
 0002:000036cc       ??_7?$ctype@D@std@@6B@     0046e6cc     libcpmt:locale.obj
 0002:000036fc       ??_7?$num_put@DV?$ostreambuf_iterator@DU?$char_traits@D@std@@@std@@@std@@6B@ 0046e6fc     libcpmt:locale.obj
 0002:0000372c       ??_7?$numpunct@D@std@@6B@  0046e72c     libcpmt:locale.obj
 0002:00003854       ??_7_System_error@std@@6B@ 0046e854     libcpmt:wlocale.obj
 0002:00003860       ??_7system_error@std@@6B@  0046e860     libcpmt:wlocale.obj
 0002:0000386c       ??_7_Iostream_error_category2@std@@6B@ 0046e86c     libcpmt:wlocale.obj
 0002:00003888       ??_7failure@ios_base@std@@6B@ 0046e888     libcpmt:wlocale.obj
 0002:00003890       ??_C@_01JOAMLHOP@?9@       0046e890     libcpmt:wlocale.obj
 0002:00003894       ??_C@_11LOCGONAA@@         0046e894     libcpmt:wlocale.obj
 0002:00003898       ??_C@_13IMODFHAA@?$AA?9@   0046e898     libcpmt:wlocale.obj
 0002:000038a0       __xmm@80000000000000008000000000000000 0046e8a0     libcpmt:wlocale.obj
 0002:00003954       ??_7type_info@@6B@         0046e954     LIBCMT:std_type_info_static.obj
 0002:00003958       __pDestructExceptionObject 0046e958     libvcruntime:ehhelpers.obj
 0002:00003960       ??_7bad_exception@std@@6B@ 0046e960     libvcruntime:frame.obj
 0002:00003968       ??_C@_0O@DPKOEFFH@bad?5exception@ 0046e968     libvcruntime:frame.obj
 0002:00003d00       ??_C@_08EHJDFFNH@__based?$CI@ 0046ed00     libvcruntime:undname.obj
 0002:00003d0c       ??_C@_07KOLFKCDI@__cdecl@  0046ed0c     libvcruntime:undname.obj
 0002:00003d14       ??_C@_09IFJBGAPI@__stdcall@ 0046ed14     libvcruntime:undname.obj
 0002:00003d20       ??_C@_0L@NPHFGOKO@__thiscall@ 0046ed20     libvcruntime:undname.obj
 0002:00003d2c       ??_C@_0L@JMKHOMEK@__fastcall@ 0046ed2c     libvcruntime:undname.obj
 0002:00003d38       ??_C@_0N@BCKKPABJ@__vectorcall@ 0046ed38     libvcruntime:undname.obj
 0002:00003d48       ??_C@_0BA@NAGGFLJK@__preserve_none@ 0046ed48     libvcruntime:undname.obj
 0002:00003d58       ??_C@_09HIJEGCPM@__clrcall@ 0046ed58     libvcruntime:undname.obj
 0002:00003d64       ??_C@_06GHPCKEAG@__eabi@   0046ed64     libvcruntime:undname.obj
 0002:00003d6c       ??_C@_09IOPIDJLG@__swift_1@ 0046ed6c     libvcruntime:undname.obj
 0002:00003d78       ??_C@_09KFNFGKHF@__swift_2@ 0046ed78     libvcruntime:undname.obj
 0002:00003d84       ??_C@_09LMMOFLDE@__swift_3@ 0046ed84     libvcruntime:undname.obj
 0002:00003d90       ??_C@_07JOMMBBKO@__ptr64@  0046ed90     libvcruntime:undname.obj
 0002:00003d98       ??_C@_0L@PILCLIHE@__restrict@ 0046ed98     libvcruntime:undname.obj
 0002:00003da4       ??_C@_0M@GFIIJFMG@__unaligned@ 0046eda4     libvcruntime:undname.obj
 0002:00003db0       ??_C@_09DHDLOLLB@restrict?$CI@ 0046edb0     libvcruntime:undname.obj
 0002:00003dbc       ??_C@_04NIHEBCM@?5new@     0046edbc     libvcruntime:undname.obj
 0002:00003dc4       ??_C@_07FPCDHGMM@?5delete@ 0046edc4     libvcruntime:undname.obj
 0002:00003dcc       ??_C@_01NEMOKFLO@?$DN@     0046edcc     libvcruntime:undname.obj
 0002:00003dd0       ??_C@_02GPIOPFAK@?$DO?$DO@ 0046edd0     libvcruntime:undname.obj
 0002:00003dd4       ??_C@_02FODMEDOG@?$DM?$DM@ 0046edd4     libvcruntime:undname.obj
 0002:00003dd8       ??_C@_01DCLJPIOD@?$CB@     0046edd8     libvcruntime:undname.obj
 0002:00003ddc       ??_C@_02EGOFBIJA@?$DN?$DN@ 0046eddc     libvcruntime:undname.obj
 0002:00003de0       ??_C@_02FDNJECIE@?$CB?$DN@ 0046ede0     libvcruntime:undname.obj
 0002:00003de4       ??_C@_02GPECMEKF@?$FL?$FN@ 0046ede4     libvcruntime:undname.obj
 0002:00003de8       ??_C@_08LHJFAFGD@operator@ 0046ede8     libvcruntime:undname.obj
 0002:00003df4       ??_C@_02HBOOOICD@?9?$DO@   0046edf4     libvcruntime:undname.obj
 0002:00003df8       ??_C@_02ECNGHCIF@?$CL?$CL@ 0046edf8     libvcruntime:undname.obj
 0002:00003dfc       ??_C@_01MIFGBAGJ@?$CL@     0046edfc     libvcruntime:undname.obj
 0002:00003e00       ??_C@_01HNPIGOCE@?$CG@     0046ee00     libvcruntime:undname.obj
 0002:00003e04       ??_C@_03MNHNFDLC@?9?$DO?$CK@ 0046ee04     libvcruntime:undname.obj
 0002:00003e08       ??_C@_01KMDKNFGN@?1@       0046ee08     libvcruntime:undname.obj
 0002:00003e0c       ??_C@_01FGNFDNOH@?$CF@     0046ee0c     libvcruntime:undname.obj
 0002:00003e10       ??_C@_01MNNFJEPP@?$DM@     0046ee10     libvcruntime:undname.obj
 0002:00003e14       ??_C@_02EHCHHCKH@?$DM?$DN@ 0046ee14     libvcruntime:undname.obj
 0002:00003e18       ??_C@_01PPODPGHN@?$DO@     0046ee18     libvcruntime:undname.obj
 0002:00003e1c       ??_C@_02EEKDKGMJ@?$DO?$DN@ 0046ee1c     libvcruntime:undname.obj
 0002:00003e20       ??_C@_02HCKGKOFO@?$CI?$CJ@ 0046ee20     libvcruntime:undname.obj
 0002:00003e24       ??_C@_01PJKLJHI@?$HO@      0046ee24     libvcruntime:undname.obj
 0002:00003e28       ??_C@_01JKBOJNNK@?$FO@     0046ee28     libvcruntime:undname.obj
 0002:00003e2c       ??_C@_02PPKAJPJL@?$CG?$CG@ 0046ee2c     libvcruntime:undname.obj
 0002:00003e30       ??_C@_02NONPIBCD@?$HM?$HM@ 0046ee30     libvcruntime:undname.obj
 0002:00003e34       ??_C@_02FPIMKNGF@?$CK?$DN@ 0046ee34     libvcruntime:undname.obj
 0002:00003e38       ??_C@_02FOEOMHFC@?$CL?$DN@ 0046ee38     libvcruntime:undname.obj
 0002:00003e3c       ??_C@_02FKMDLLOA@?9?$DN@   0046ee3c     libvcruntime:undname.obj
 0002:00003e40       ??_C@_02FJEHGPIO@?1?$DN@   0046ee40     libvcruntime:undname.obj
 0002:00003e44       ??_C@_02FENAOKFI@?$CF?$DN@ 0046ee44     libvcruntime:undname.obj
 0002:00003e48       ??_C@_03IKFCCPFF@?$DO?$DO?$DN@ 0046ee48     libvcruntime:undname.obj
 0002:00003e4c       ??_C@_03CDNPDDLA@?$DM?$DM?$DN@ 0046ee4c     libvcruntime:undname.obj
 0002:00003e50       ??_C@_02FGJGFEAB@?$CG?$DN@ 0046ee50     libvcruntime:undname.obj
 0002:00003e54       ??_C@_02DHLNPPGH@?$HM?$DN@ 0046ee54     libvcruntime:undname.obj
 0002:00003e58       ??_C@_02MHEGNOJ@?$FO?$DN@  0046ee58     libvcruntime:undname.obj
 0002:00003e5c       ??_C@_09IFPLHPGF@?$GAvftable?8@ 0046ee5c     libvcruntime:undname.obj
 0002:00003e68       ??_C@_09BLBHBJP@?$GAvbtable?8@ 0046ee68     libvcruntime:undname.obj
 0002:00003e74       ??_C@_07FEEIOKP@?$GAvcall?8@ 0046ee74     libvcruntime:undname.obj
 0002:00003e7c       ??_C@_08LLFFHHDJ@?$GAtypeof?8@ 0046ee7c     libvcruntime:undname.obj
 0002:00003e88       ??_C@_0BF@KDPPACIK@?$GAlocal?5static?5guard?8@ 0046ee88     libvcruntime:undname.obj
 0002:00003ea0       ??_C@_08OBABFOLI@?$GAstring?8@ 0046eea0     libvcruntime:undname.obj
 0002:00003eac       ??_C@_0BD@JDLKDPAB@?$GAvbase?5destructor?8@ 0046eeac     libvcruntime:undname.obj
 0002:00003ec0       ??_C@_0BN@DEGPLNFK@?$GAvector?5deleting?5destructor?8@ 0046eec0     libvcruntime:undname.obj
 0002:00003ee0       ??_C@_0BO@OBMKPJIG@?$GAdefault?5constructor?5closure?8@ 0046eee0     libvcruntime:undname.obj
 0002:00003f00       ??_C@_0BN@IMDCHIKM@?$GAscalar?5deleting?5destructor?8@ 0046ef00     libvcruntime:undname.obj
 0002:00003f20       ??_C@_0BO@PFGOCPJJ@?$GAvector?5constructor?5iterator?8@ 0046ef20     libvcruntime:undname.obj
 0002:00003f40       ??_C@_0BN@LFPFMEDL@?$GAvector?5destructor?5iterator?8@ 0046ef40     libvcruntime:undname.obj
 0002:00003f60       ??_C@_0CE@IKBNEHA@?$GAvector?5vbase?5constructor?5itera@ 0046ef60     libvcruntime:undname.obj
 0002:00003f84       ??_C@_0BL@NILFHHPC@?$GAvirtual?5displacement?5map?8@ 0046ef84     libvcruntime:undname.obj
 0002:00003fa0       ??_C@_0CB@JONCMFFK@?$GAeh?5vector?5constructor?5iterator@ 0046efa0     libvcruntime:undname.obj
 0002:00003fc4       ??_C@_0CA@GCEOPDGL@?$GAeh?5vector?5destructor?5iterator?8@ 0046efc4     libvcruntime:undname.obj
 0002:00003fe4       ??_C@_0CH@OOJPLCPH@?$GAeh?5vector?5vbase?5constructor?5it@ 0046efe4     libvcruntime:undname.obj
 0002:0000400c       ??_C@_0BL@LLKPOHJI@?$GAcopy?5constructor?5closure?8@ 0046f00c     libvcruntime:undname.obj
 0002:00004028       ??_C@_0BA@KBCDOMBN@?$GAudt?5returning?8@ 0046f028     libvcruntime:undname.obj
 0002:00004038       ??_C@_03KLGMFNMG@?$GAEH@   0046f038     libvcruntime:undname.obj
 0002:0000403c       ??_C@_05KHLCHHI@?$GARTTI@  0046f03c     libvcruntime:undname.obj
 0002:00004044       ??_C@_0BA@KKLDJDLB@?$GAlocal?5vftable?8@ 0046f044     libvcruntime:undname.obj
 0002:00004054       ??_C@_0CE@IIHCMGGL@?$GAlocal?5vftable?5constructor?5clos@ 0046f054     libvcruntime:undname.obj
 0002:00004078       ??_C@_06FHBGPFGH@?5new?$FL?$FN@ 0046f078     libvcruntime:undname.obj
 0002:00004080       ??_C@_09LBNFPBCA@?5delete?$FL?$FN@ 0046f080     libvcruntime:undname.obj
 0002:0000408c       ??_C@_0P@HJKNJFNN@?$GAomni?5callsig?8@ 0046f08c     libvcruntime:undname.obj
 0002:0000409c       ??_C@_0BL@CNOONJFP@?$GAplacement?5delete?5closure?8@ 0046f09c     libvcruntime:undname.obj
 0002:000040b8       ??_C@_0BN@CKNJLHMB@?$GAplacement?5delete?$FL?$FN?5closure?8@ 0046f0b8     libvcruntime:undname.obj
 0002:000040d8       ??_C@_0CG@CFDHKGGD@?$GAmanaged?5vector?5constructor?5ite@ 0046f0d8     libvcruntime:undname.obj
 0002:00004100       ??_C@_0CF@IMGKMJNO@?$GAmanaged?5vector?5destructor?5iter@ 0046f100     libvcruntime:undname.obj
 0002:00004128       ??_C@_0CG@HLDDJMAG@?$GAeh?5vector?5copy?5constructor?5ite@ 0046f128     libvcruntime:undname.obj
 0002:00004150       ??_C@_0CM@FCBBDIGB@?$GAeh?5vector?5vbase?5copy?5construct@ 0046f150     libvcruntime:undname.obj
 0002:0000417c       ??_C@_0BL@CLIPGLGB@?$GAdynamic?5initializer?5for?5?8@ 0046f17c     libvcruntime:undname.obj
 0002:00004198       ??_C@_0CB@PDBIFEP@?$GAdynamic?5atexit?5destructor?5for?5@ 0046f198     libvcruntime:undname.obj
 0002:000041bc       ??_C@_0CD@CGAJBKEJ@?$GAvector?5copy?5constructor?5iterat@ 0046f1bc     libvcruntime:undname.obj
 0002:000041e0       ??_C@_0CJ@GJELGAMM@?$GAvector?5vbase?5copy?5constructor?5@ 0046f1e0     libvcruntime:undname.obj
 0002:0000420c       ??_C@_0CL@FGIJHLCE@?$GAmanaged?5vector?5copy?5constructo@ 0046f20c     libvcruntime:undname.obj
 0002:00004238       ??_C@_0BM@PMGGMLDN@?$GAlocal?5static?5thread?5guard?8@ 0046f238     libvcruntime:undname.obj
 0002:00004254       ??_C@_0N@BDNMDMOL@operator?5?$CC?$CC?5@ 0046f254     libvcruntime:undname.obj
 0002:00004264       ??_C@_0BC@GGEBGALA@operator?5co_await@ 0046f264     libvcruntime:undname.obj
 0002:00004278       ??_C@_0M@GAAIMMOH@operator?$DM?$DN?$DO@ 0046f278     libvcruntime:undname.obj
 0002:00004284       ??_C@_0BC@DAFEJGAK@?5Type?5Descriptor?8@ 0046f284     libvcruntime:undname.obj
 0002:00004298       ??_C@_0BM@LDKODKLH@?5Base?5Class?5Descriptor?5at?5?$CI@ 0046f298     libvcruntime:undname.obj
 0002:000042b4       ??_C@_0BD@LGICGFMM@?5Base?5Class?5Array?8@ 0046f2b4     libvcruntime:undname.obj
 0002:000042c8       ??_C@_0BN@MECKDCOJ@?5Class?5Hierarchy?5Descriptor?8@ 0046f2c8     libvcruntime:undname.obj
 0002:000042e8       ??_C@_0BK@CFCOFLF@?5Complete?5Object?5Locator?8@ 0046f2e8     libvcruntime:undname.obj
 0002:00004304       ??_C@_0BG@JNJLAMPM@?$GAanonymous?5namespace?8@ 0046f304     libvcruntime:undname.obj
 0002:0000431c       ??_C@_1BI@BGOHAHKC@?$AAm?$AAs?$AAc?$AAo?$AAr?$AAe?$AAe?$AA?4?$AAd?$AAl?$AAl@ 0046f31c     libucrt:exit.obj
 0002:00004334       ??_C@_0P@MIGLKIOC@CorExitProcess@ 0046f334     libucrt:exit.obj
 0002:00004348       ?standard_lookup_table_spectre@__crt_stdio_output@@3V?$spectre_mitigated_lookup_table@Ustate_transition_pair@__crt_stdio_output@@$0IA@@1@B 0046f348     libucrt:output.obj
 0002:00004448       ?format_validation_lookup_table_spectre@__crt_stdio_output@@3V?$spectre_mitigated_lookup_table@Ustate_transition_pair@__crt_stdio_output@@$0IA@@1@B 0046f448     libucrt:output.obj
 0002:00004548       ??_C@_1O@CEDCILHN@?$AA?$CI?$AAn?$AAu?$AAl?$AAl?$AA?$CJ@ 0046f548     libucrt:output.obj
 0002:00004558       ??_C@_06OJHGLDPL@?$CInull?$CJ@ 0046f558     libucrt:output.obj
 0002:00004560       __d_inf                    0046f560     libucrt:frexp.obj
 0002:00004568       __d_max                    0046f568     libucrt:frexp.obj
 0002:00004570       __d_mzero                  0046f570     libucrt:frexp.obj
 0002:00004578       __real@0000000000000000    0046f578     libucrt:frexp.obj
 0002:00004580       __real@3ff0000000000000    0046f580     libucrt:frexp.obj
 0002:00004588       ?large_power_data@?1??multiply_by_power_of_ten@__crt_strtox@@YA_NAAUbig_integer@2@I@Z@4QBIB 0046f588     libucrt:input.obj
 0002:00004e90       ?large_power_indices@?1??multiply_by_power_of_ten@__crt_strtox@@YA_NAAUbig_integer@2@I@Z@4QBUunpack_index@?1??12@YA_N0I@Z@B 0046fe90     libucrt:input.obj
 0002:00004f28       ?small_powers_of_ten@?1??multiply_by_power_of_ten@__crt_strtox@@YA_NAAUbig_integer@2@I@Z@4QBIB 0046ff28     libucrt:input.obj
 0002:00004f50       ??_C@_1GE@DPGDJKLM@?$AAm?$AAi?$AAn?$AAk?$AAe?$AAr?$AAn?$AAe?$AAl?$AA?2?$AAc?$AAr?$AAt?$AAs?$AA?2@ 0046ff50     libucrt:input.obj
 0002:00004fb8       ??_C@_1FM@FELNCOBF@?$AA_?$AA_?$AAc?$AAr?$AAt?$AA_?$AAs?$AAt?$AAr?$AAt?$AAo?$AAx?$AA?3?$AA?3?$AAf@ 0046ffb8     libucrt:input.obj
 0002:00005014       ??_C@_1BG@GEMHBGAF@?$AA_?$AAi?$AAs?$AA_?$AAd?$AAo?$AAu?$AAb?$AAl?$AAe@ 00470014     libucrt:input.obj
 0002:00005030       ??_C@_1FK@JOJELFFO@?$AA_?$AA_?$AAc?$AAr?$AAt?$AA_?$AAs?$AAt?$AAr?$AAt?$AAo?$AAx?$AA?3?$AA?3?$AAf@ 00470030     libucrt:input.obj
 0002:0000508c       ??_C@_1BI@BANMPGJI@?$AA?$CB?$AA_?$AAi?$AAs?$AA_?$AAd?$AAo?$AAu?$AAb?$AAl?$AAe@ 0047008c     libucrt:input.obj
 0002:000050a8       ?constraints@?1??is_length_valid@__crt_stdio_input@@YA_NW4conversion_mode@2@W4length_modifier@2@@Z@4QAY0M@$$CBEA 004700a8     libucrt:input.obj
 0002:00005120       ?inf_uppercase@?1???$parse_floating_point_possible_infinity@DV?$input_adapter_character_source@V?$string_input_adapter@D@__crt_stdio_input@@@__crt_strtox@@_K@__crt_strtox@@YA?AW4floating_point_parse_result@1@AADAAV?$input_adapter_character_source@V?$string_input_adapter@D@__crt_stdio_input@@@1@_K@Z@4QBDB 00470120     libucrt:input.obj
 0002:00005124       ?inf_lowercase@?1???$parse_floating_point_possible_infinity@DV?$input_adapter_character_source@V?$string_input_adapter@D@__crt_stdio_input@@@__crt_strtox@@_K@__crt_strtox@@YA?AW4floating_point_parse_result@1@AADAAV?$input_adapter_character_source@V?$string_input_adapter@D@__crt_stdio_input@@@1@_K@Z@4QBDB 00470124     libucrt:input.obj
 0002:00005128       ?inity_uppercase@?1???$parse_floating_point_possible_infinity@DV?$input_adapter_character_source@V?$string_input_adapter@D@__crt_stdio_input@@@__crt_strtox@@_K@__crt_strtox@@YA?AW4floating_point_parse_result@1@AADAAV?$input_adapter_character_source@V?$string_input_adapter@D@__crt_stdio_input@@@1@_K@Z@4QBDB 00470128     libucrt:input.obj
 0002:00005130       ?inity_lowercase@?1???$parse_floating_point_possible_infinity@DV?$input_adapter_character_source@V?$string_input_adapter@D@__crt_stdio_input@@@__crt_strtox@@_K@__crt_strtox@@YA?AW4floating_point_parse_result@1@AADAAV?$input_adapter_character_source@V?$string_input_adapter@D@__crt_stdio_input@@@1@_K@Z@4QBDB 00470130     libucrt:input.obj
 0002:00005138       ?uppercase@?1???$parse_floating_point_possible_nan@DV?$input_adapter_character_source@V?$string_input_adapter@D@__crt_stdio_input@@@__crt_strtox@@_K@__crt_strtox@@YA?AW4floating_point_parse_result@1@AADAAV?$input_adapter_character_source@V?$string_input_adapter@D@__crt_stdio_input@@@1@_K@Z@4QBDB 00470138     libucrt:input.obj
 0002:0000513c       ?lowercase@?1???$parse_floating_point_possible_nan@DV?$input_adapter_character_source@V?$string_input_adapter@D@__crt_stdio_input@@@__crt_strtox@@_K@__crt_strtox@@YA?AW4floating_point_parse_result@1@AADAAV?$input_adapter_character_source@V?$string_input_adapter@D@__crt_stdio_input@@@1@_K@Z@4QBDB 0047013c     libucrt:input.obj
 0002:00005140       ?uppercase@?1???$parse_floating_point_possible_nan_is_snan@DV?$input_adapter_character_source@V?$string_input_adapter@D@__crt_stdio_input@@@__crt_strtox@@@__crt_strtox@@YA_NAADAAV?$input_adapter_character_source@V?$string_input_adapter@D@__crt_stdio_input@@@1@@Z@4QBDB 00470140     libucrt:input.obj
 0002:00005148       ?lowercase@?1???$parse_floating_point_possible_nan_is_snan@DV?$input_adapter_character_source@V?$string_input_adapter@D@__crt_stdio_input@@@__crt_strtox@@@__crt_strtox@@YA_NAADAAV?$input_adapter_character_source@V?$string_input_adapter@D@__crt_stdio_input@@@1@@Z@4QBDB 00470148     libucrt:input.obj
 0002:00005150       ?uppercase@?1???$parse_floating_point_possible_nan_is_ind@DV?$input_adapter_character_source@V?$string_input_adapter@D@__crt_stdio_input@@@__crt_strtox@@@__crt_strtox@@YA_NAADAAV?$input_adapter_character_source@V?$string_input_adapter@D@__crt_stdio_input@@@1@@Z@4QBDB 00470150     libucrt:input.obj
 0002:00005154       ?lowercase@?1???$parse_floating_point_possible_nan_is_ind@DV?$input_adapter_character_source@V?$string_input_adapter@D@__crt_stdio_input@@@__crt_strtox@@@__crt_strtox@@YA_NAADAAV?$input_adapter_character_source@V?$string_input_adapter@D@__crt_stdio_input@@@1@@Z@4QBDB 00470154     libucrt:input.obj
 0002:00005170       ___newctype                00470170     libucrt:ctype.obj
 0002:00005470       ___newclmap                00470470     libucrt:ctype.obj
 0002:000055f0       ___newcumap                004705f0     libucrt:ctype.obj
 0002:00005770       __wctype                   00470770     libucrt:ctype.obj
 0002:00005ae0       ??_C@_1M@PBPMMENC@?$AAa?$AAm?$AA?1?$AAp?$AAm@ 00470ae0     libucrt:wcsftime.obj
 0002:00005aec       ??_C@_17BLFJJHMM@?$AAa?$AA?1?$AAp@ 00470aec     libucrt:wcsftime.obj
 0002:00005af4       ??_C@_13HOIJIPNN@?$AA?5@   00470af4     libucrt:wcsftime.obj
 0002:00005af8       ??_C@_13CGOKJPIL@?$AA?1@   00470af8     libucrt:wcsftime.obj
 0002:00005afc       ??_C@_13LBAGMAIH@?$AA?6@   00470afc     libucrt:wcsftime.obj
 0002:00005b00       ??_C@_13EBCNDICG@?$AA?3@   00470b00     libucrt:wcsftime.obj
 0002:00005b04       ??_C@_13KDLDGPGJ@?$AA?7@   00470b04     libucrt:wcsftime.obj
 0002:00005b08       ??_C@_13KJIIAINM@?$AA?$CL@ 00470b08     libucrt:wcsftime.obj
 0002:00005b0c       ??_C@_13EJFHHPOP@?$AA?$CF@ 00470b0c     libucrt:wcsftime.obj
 0002:00005b10       ___acrt_exception_action_table 00470b10     libucrt:exception_filter.obj
 0002:00005ba0       ___acrt_signal_action_table_count 00470ba0     libucrt:exception_filter.obj
 0002:00005ba4       ___acrt_signal_action_table_size 00470ba4     libucrt:exception_filter.obj
 0002:00005ba8       ___acrt_signal_action_first_fpe_index 00470ba8     libucrt:exception_filter.obj
 0002:00005bac       ___acrt_signal_action_fpe_count 00470bac     libucrt:exception_filter.obj
 0002:00005cb0       ___lc_category             00470cb0     libucrt:wsetlocale.obj
 0002:00005cf8       ??_C@_1O@GIFLHMA@?$AAL?$AAC?$AA_?$AAA?$AAL?$AAL@ 00470cf8     libucrt:wsetlocale.obj
 0002:00005d08       ??_C@_1BG@PPOMIBNJ@?$AAL?$AAC?$AA_?$AAC?$AAO?$AAL?$AAL?$AAA?$AAT?$AAE@ 00470d08     libucrt:wsetlocale.obj
 0002:00005d20       ??_C@_1BC@FFJGAPJM@?$AAL?$AAC?$AA_?$AAC?$AAT?$AAY?$AAP?$AAE@ 00470d20     libucrt:wsetlocale.obj
 0002:00005d34       ??_C@_1BI@PCKFNJFB@?$AAL?$AAC?$AA_?$AAM?$AAO?$AAN?$AAE?$AAT?$AAA?$AAR?$AAY@ 00470d34     libucrt:wsetlocale.obj
 0002:00005d4c       ??_C@_1BG@ENIEDKID@?$AAL?$AAC?$AA_?$AAN?$AAU?$AAM?$AAE?$AAR?$AAI?$AAC@ 00470d4c     libucrt:wsetlocale.obj
 0002:00005d64       ??_C@_1BA@HAAOMIIG@?$AAL?$AAC?$AA_?$AAT?$AAI?$AAM?$AAE@ 00470d64     libucrt:wsetlocale.obj
 0002:00005d74       ??_C@_15NBPDDFIP@?$AA?$DN?$AA?$DL@ 00470d74     libucrt:wsetlocale.obj
 0002:00005d7c       ??_C@_13PJJBFPED@?$AA?$DL@ 00470d7c     libucrt:wsetlocale.obj
 0002:00005d80       ??_C@_13NMPKAAJP@?$AA?$DN@ 00470d80     libucrt:wsetlocale.obj
 0002:00005d84       ??_C@_17EFJLDFDO@?$AA?9?$AA_?$AA?4@ 00470d84     libucrt:wsetlocale.obj
 0002:00005d8c       ??_C@_13FHBKNHDA@?$AAC@    00470d8c     libucrt:wsetlocale.obj
 0002:00005d90       ??_C@_17MBJJLFDM@?$AA_?$AA?4?$AA?0@ 00470d90     libucrt:wsetlocale.obj
 0002:00005d98       ??_C@_13ENNFDPBH@?$AA_@    00470d98     libucrt:wsetlocale.obj
 0002:00005d9c       ??_C@_13JOFGPIOO@?$AA?4@   00470d9c     libucrt:wsetlocale.obj
 0002:00005e00       ??_C@_1EA@JGEFHKEI@?$AAa?$AAp?$AAi?$AA?9?$AAm?$AAs?$AA?9?$AAw?$AAi?$AAn?$AA?9?$AAc?$AAo?$AAr?$AAe@ 00470e00     libucrt:winapi_thunks.obj
 0002:00005e40       ??_C@_1DM@LFJCLCKP@?$AAa?$AAp?$AAi?$AA?9?$AAm?$AAs?$AA?9?$AAw?$AAi?$AAn?$AA?9?$AAc?$AAo?$AAr?$AAe@ 00470e40     libucrt:winapi_thunks.obj
 0002:00005e7c       ??_C@_1DI@KMEPCBPN@?$AAa?$AAp?$AAi?$AA?9?$AAm?$AAs?$AA?9?$AAw?$AAi?$AAn?$AA?9?$AAc?$AAo?$AAr?$AAe@ 00470e7c     libucrt:winapi_thunks.obj
 0002:00005eb4       ??_C@_1DI@IJCEHOCB@?$AAa?$AAp?$AAi?$AA?9?$AAm?$AAs?$AA?9?$AAw?$AAi?$AAn?$AA?9?$AAc?$AAo?$AAr?$AAe@ 00470eb4     libucrt:winapi_thunks.obj
 0002:00005eec       ??_C@_1DI@FFFOPEOO@?$AAa?$AAp?$AAi?$AA?9?$AAm?$AAs?$AA?9?$AAw?$AAi?$AAn?$AA?9?$AAc?$AAo?$AAr?$AAe@ 00470eec     libucrt:winapi_thunks.obj
 0002:00005f28       ??_C@_1EI@MPIAOHOC@?$AAa?$AAp?$AAi?$AA?9?$AAm?$AAs?$AA?9?$AAw?$AAi?$AAn?$AA?9?$AAc?$AAo?$AAr?$AAe@ 00470f28     libucrt:winapi_thunks.obj
 0002:00005f70       ??_C@_1FK@FPHCKFIE@?$AAa?$AAp?$AAi?$AA?9?$AAm?$AAs?$AA?9?$AAw?$AAi?$AAn?$AA?9?$AAc?$AAo?$AAr?$AAe@ 00470f70     libucrt:winapi_thunks.obj
 0002:00005fd0       ??_C@_1EM@DILCGIIO@?$AAa?$AAp?$AAi?$AA?9?$AAm?$AAs?$AA?9?$AAw?$AAi?$AAn?$AA?9?$AAc?$AAo?$AAr?$AAe@ 00470fd0     libucrt:winapi_thunks.obj
 0002:0000601c       ??_C@_1DM@LNCGDDPN@?$AAa?$AAp?$AAi?$AA?9?$AAm?$AAs?$AA?9?$AAw?$AAi?$AAn?$AA?9?$AAc?$AAo?$AAr?$AAe@ 0047101c     libucrt:winapi_thunks.obj
 0002:00006058       ??_C@_1DK@LPPGFMPP@?$AAa?$AAp?$AAi?$AA?9?$AAm?$AAs?$AA?9?$AAw?$AAi?$AAn?$AA?9?$AAc?$AAo?$AAr?$AAe@ 00471058     libucrt:winapi_thunks.obj
 0002:00006094       ??_C@_1DO@FPAPJEMD@?$AAa?$AAp?$AAi?$AA?9?$AAm?$AAs?$AA?9?$AAw?$AAi?$AAn?$AA?9?$AAc?$AAo?$AAr?$AAe@ 00471094     libucrt:winapi_thunks.obj
 0002:000060d4       ??_C@_1DK@NDHNAHIO@?$AAa?$AAp?$AAi?$AA?9?$AAm?$AAs?$AA?9?$AAw?$AAi?$AAn?$AA?9?$AAc?$AAo?$AAr?$AAe@ 004710d4     libucrt:winapi_thunks.obj
 0002:00006110       ??_C@_1DM@KGHDGBCM@?$AAa?$AAp?$AAi?$AA?9?$AAm?$AAs?$AA?9?$AAw?$AAi?$AAn?$AA?9?$AAc?$AAo?$AAr?$AAe@ 00471110     libucrt:winapi_thunks.obj
 0002:00006150       ??_C@_1EO@IJIOEFOH@?$AAa?$AAp?$AAi?$AA?9?$AAm?$AAs?$AA?9?$AAw?$AAi?$AAn?$AA?9?$AAr?$AAt?$AAc?$AAo@ 00471150     libucrt:winapi_thunks.obj
 0002:000061a0       ??_C@_1FG@HHGEKANL@?$AAa?$AAp?$AAi?$AA?9?$AAm?$AAs?$AA?9?$AAw?$AAi?$AAn?$AA?9?$AAs?$AAe?$AAc?$AAu@ 004711a0     libucrt:winapi_thunks.obj
 0002:000061f8       ??_C@_1EG@DBIOJECG@?$AAe?$AAx?$AAt?$AA?9?$AAm?$AAs?$AA?9?$AAw?$AAi?$AAn?$AA?9?$AAn?$AAt?$AAu?$AAs@ 004711f8     libucrt:winapi_thunks.obj
 0002:00006240       ??_C@_1EO@FIHMJCLF@?$AAe?$AAx?$AAt?$AA?9?$AAm?$AAs?$AA?9?$AAw?$AAi?$AAn?$AA?9?$AAn?$AAt?$AAu?$AAs@ 00471240     libucrt:winapi_thunks.obj
 0002:00006290       ??_C@_1BC@DNHGCMLG@?$AAa?$AAd?$AAv?$AAa?$AAp?$AAi?$AA3?$AA2@ 00471290     libucrt:winapi_thunks.obj
 0002:000062a4       ??_C@_1BC@GDMECMAK@?$AAk?$AAe?$AAr?$AAn?$AAe?$AAl?$AA3?$AA2@ 004712a4     libucrt:winapi_thunks.obj
 0002:000062b8       ??_C@_1BG@CJPGBMEF@?$AAk?$AAe?$AAr?$AAn?$AAe?$AAl?$AAb?$AAa?$AAs?$AAe@ 004712b8     libucrt:winapi_thunks.obj
 0002:000062d0       ??_C@_1M@OAIMIKLP@?$AAn?$AAt?$AAd?$AAl?$AAl@ 004712d0     libucrt:winapi_thunks.obj
 0002:000062e0       ??_C@_1EG@DPGNFKGC@?$AAa?$AAp?$AAi?$AA?9?$AAm?$AAs?$AA?9?$AAw?$AAi?$AAn?$AA?9?$AAa?$AAp?$AAp?$AAm@ 004712e0     libucrt:winapi_thunks.obj
 0002:00006328       ??_C@_1O@BCCLBEOE@?$AAu?$AAs?$AAe?$AAr?$AA3?$AA2@ 00471328     libucrt:winapi_thunks.obj
 0002:00006338       ??_C@_1BA@PFFKHIOG@?$AAa?$AAp?$AAi?$AA?9?$AAm?$AAs?$AA?9@ 00471338     libucrt:winapi_thunks.obj
 0002:00006348       ??_C@_1BA@IAIFMGEF@?$AAe?$AAx?$AAt?$AA?9?$AAm?$AAs?$AA?9@ 00471348     libucrt:winapi_thunks.obj
 0002:0000635c       ??_C@_0BA@FHFNEAED@AreFileApisANSI@ 0047135c     libucrt:winapi_thunks.obj
 0002:00006374       ??_C@_0BA@IHGNDAEB@CompareStringEx@ 00471374     libucrt:winapi_thunks.obj
 0002:0000638c       ??_C@_0BE@LJANKFHF@EnumSystemLocalesEx@ 0047138c     libucrt:winapi_thunks.obj
 0002:000063a8       ??_C@_0N@MFBBDCAC@FlsGetValue2@ 004713a8     libucrt:winapi_thunks.obj
 0002:000063c0       ??_C@_0BA@EPCJIIPD@GetDateFormatEx@ 004713c0     libucrt:winapi_thunks.obj
 0002:000063d8       ??_C@_0BA@ONOKGCMP@GetLocaleInfoEx@ 004713d8     libucrt:winapi_thunks.obj
 0002:000063f0       ??_C@_0BA@CIJJKCJJ@GetTimeFormatEx@ 004713f0     libucrt:winapi_thunks.obj
 0002:00006408       ??_C@_0BJ@PBCCBIPI@GetUserDefaultLocaleName@ 00471408     libucrt:winapi_thunks.obj
 0002:0000642c       ??_C@_0BC@CELBKLLA@IsValidLocaleName@ 0047142c     libucrt:winapi_thunks.obj
 0002:00006448       ??_C@_0O@KKBNKAPF@LCMapStringEx@ 00471448     libucrt:winapi_thunks.obj
 0002:00006460       ??_C@_0BB@CDHDDLLP@LCIDToLocaleName@ 00471460     libucrt:winapi_thunks.obj
 0002:0000647c       ??_C@_0BB@HBDEELFH@LocaleNameToLCID@ 0047147c     libucrt:winapi_thunks.obj
 0002:00006494       ??_C@_0N@PPOMPGGK@RoInitialize@ 00471494     libucrt:winapi_thunks.obj
 0002:000064a8       ??_C@_0P@LLFHBIJD@RoUninitialize@ 004714a8     libucrt:winapi_thunks.obj
 0002:000064bc       ??_C@_0CF@OJOFEIGO@AppPolicyGetProcessTerminationM@ 004714bc     libucrt:winapi_thunks.obj
 0002:000064e8       ??_C@_0CF@NNDFDCOC@AppPolicyGetThreadInitializatio@ 004714e8     libucrt:winapi_thunks.obj
 0002:00006510       ___lc_time_c               00471510     libucrt:nlsdata.obj
 0002:00006674       ??_C@_03KOEHGMDN@Sun@      00471674     libucrt:nlsdata.obj
 0002:00006678       ??_C@_03PDAGKDH@Mon@       00471678     libucrt:nlsdata.obj
 0002:0000667c       ??_C@_03NAGEINEP@Tue@      0047167c     libucrt:nlsdata.obj
 0002:00006680       ??_C@_03MHOMLAJA@Wed@      00471680     libucrt:nlsdata.obj
 0002:00006684       ??_C@_03IOFIKPDN@Thu@      00471684     libucrt:nlsdata.obj
 0002:00006688       ??_C@_03IDIOELNC@Fri@      00471688     libucrt:nlsdata.obj
 0002:0000668c       ??_C@_03FEFJNEK@Sat@       0047168c     libucrt:nlsdata.obj
 0002:00006690       ??_C@_06OOPIFAJ@Sunday@    00471690     libucrt:nlsdata.obj
 0002:00006698       ??_C@_06JLEDEDGH@Monday@   00471698     libucrt:nlsdata.obj
 0002:000066a0       ??_C@_07BAAGCFCM@Tuesday@  004716a0     libucrt:nlsdata.obj
 0002:000066a8       ??_C@_09DLIGFAKA@Wednesday@ 004716a8     libucrt:nlsdata.obj
 0002:000066b4       ??_C@_08HACCIKIA@Thursday@ 004716b4     libucrt:nlsdata.obj
 0002:000066c0       ??_C@_06JECMNKMI@Friday@   004716c0     libucrt:nlsdata.obj
 0002:000066c8       ??_C@_08INBOOONO@Saturday@ 004716c8     libucrt:nlsdata.obj
 0002:000066d4       ??_C@_03JIHJHPIE@Jan@      004716d4     libucrt:nlsdata.obj
 0002:000066d8       ??_C@_03HJBDCHOM@Feb@      004716d8     libucrt:nlsdata.obj
 0002:000066dc       ??_C@_03ODNJBKGA@Mar@      004716dc     libucrt:nlsdata.obj
 0002:000066e0       ??_C@_03LEOLGMJP@Apr@      004716e0     libucrt:nlsdata.obj
 0002:000066e4       ??_C@_03CNMDKL@May@        004716e4     libucrt:nlsdata.obj
 0002:000066e8       ??_C@_03IDFGHECI@Jun@      004716e8     libucrt:nlsdata.obj
 0002:000066ec       ??_C@_03LBGABGKK@Jul@      004716ec     libucrt:nlsdata.obj
 0002:000066f0       ??_C@_03IFJFEIGA@Aug@      004716f0     libucrt:nlsdata.obj
 0002:000066f4       ??_C@_03GGCAPAJC@Sep@      004716f4     libucrt:nlsdata.obj
 0002:000066f8       ??_C@_03BMAOKBAD@Oct@      004716f8     libucrt:nlsdata.obj
 0002:000066fc       ??_C@_03JPJOFNIA@Nov@      004716fc     libucrt:nlsdata.obj
 0002:00006700       ??_C@_03MKABNOCG@Dec@      00471700     libucrt:nlsdata.obj
 0002:00006704       ??_C@_07CGJPFGJA@January@  00471704     libucrt:nlsdata.obj
 0002:0000670c       ??_C@_08GNJGEPFN@February@ 0047170c     libucrt:nlsdata.obj
 0002:00006718       ??_C@_05HPCKOFNC@March@    00471718     libucrt:nlsdata.obj
 0002:00006720       ??_C@_05DMJDNLEJ@April@    00471720     libucrt:nlsdata.obj
 0002:00006728       ??_C@_04CNLMGBGM@June@     00471728     libucrt:nlsdata.obj
 0002:00006730       ??_C@_04MIEPOIFP@July@     00471730     libucrt:nlsdata.obj
 0002:00006738       ??_C@_06LBBHFDDG@August@   00471738     libucrt:nlsdata.obj
 0002:00006740       ??_C@_09BHHEALKD@September@ 00471740     libucrt:nlsdata.obj
 0002:0000674c       ??_C@_07JJNFCEND@October@  0047174c     libucrt:nlsdata.obj
 0002:00006754       ??_C@_08HCHEGEOA@November@ 00471754     libucrt:nlsdata.obj
 0002:00006760       ??_C@_08EDHMEBNP@December@ 00471760     libucrt:nlsdata.obj
 0002:0000676c       ??_C@_02DEDBPAFC@AM@       0047176c     libucrt:nlsdata.obj
 0002:00006770       ??_C@_02CJNFDJBF@PM@       00471770     libucrt:nlsdata.obj
 0002:00006774       ??_C@_08BPBNCDIB@MM?1dd?1yy@ 00471774     libucrt:nlsdata.obj
 0002:00006780       ??_C@_0BE@CKGJFCPC@dddd?0?5MMMM?5dd?0?5yyyy@ 00471780     libucrt:nlsdata.obj
 0002:00006794       ??_C@_08JCCMCCIL@HH?3mm?3ss@ 00471794     libucrt:nlsdata.obj
 0002:000067a0       ??_C@_17MBGCMIPB@?$AAS?$AAu?$AAn@ 004717a0     libucrt:nlsdata.obj
 0002:000067a8       ??_C@_17KBOMKBF@?$AAM?$AAo?$AAn@ 004717a8     libucrt:nlsdata.obj
 0002:000067b0       ??_C@_17BMKGEGOJ@?$AAT?$AAu?$AAe@ 004717b0     libucrt:nlsdata.obj
 0002:000067b8       ??_C@_17CJEDCEPE@?$AAW?$AAe?$AAd@ 004717b8     libucrt:nlsdata.obj
 0002:000067c0       ??_C@_17PDPHAADD@?$AAT?$AAh?$AAu@ 004717c0     libucrt:nlsdata.obj
 0002:000067c8       ??_C@_17HFOLPPLP@?$AAF?$AAr?$AAi@ 004717c8     libucrt:nlsdata.obj
 0002:000067d0       ??_C@_17GGIBDPIH@?$AAS?$AAa?$AAt@ 004717d0     libucrt:nlsdata.obj
 0002:000067d8       ??_C@_1O@IHNHDHPB@?$AAS?$AAu?$AAn?$AAd?$AAa?$AAy@ 004717d8     libucrt:nlsdata.obj
 0002:000067e8       ??_C@_1O@MMNBFLIA@?$AAM?$AAo?$AAn?$AAd?$AAa?$AAy@ 004717e8     libucrt:nlsdata.obj
 0002:000067f8       ??_C@_1BA@ENFBFFEK@?$AAT?$AAu?$AAe?$AAs?$AAd?$AAa?$AAy@ 004717f8     libucrt:nlsdata.obj
 0002:00006808       ??_C@_1BE@EBOGMDOH@?$AAW?$AAe?$AAd?$AAn?$AAe?$AAs?$AAd?$AAa?$AAy@ 00471808     libucrt:nlsdata.obj
 0002:0000681c       ??_C@_1BC@HHMNLIHE@?$AAT?$AAh?$AAu?$AAr?$AAs?$AAd?$AAa?$AAy@ 0047181c     libucrt:nlsdata.obj
 0002:00006830       ??_C@_1O@PDICJHAG@?$AAF?$AAr?$AAi?$AAd?$AAa?$AAy@ 00471830     libucrt:nlsdata.obj
 0002:00006840       ??_C@_1BC@ENMNNPAJ@?$AAS?$AAa?$AAt?$AAu?$AAr?$AAd?$AAa?$AAy@ 00471840     libucrt:nlsdata.obj
 0002:00006854       ??_C@_17DKNBKCHM@?$AAJ?$AAa?$AAn@ 00471854     libucrt:nlsdata.obj
 0002:0000685c       ??_C@_17LMDJEKJN@?$AAF?$AAe?$AAb@ 0047185c     libucrt:nlsdata.obj
 0002:00006864       ??_C@_17CKNLEDEC@?$AAM?$AAa?$AAr@ 00471864     libucrt:nlsdata.obj
 0002:0000686c       ??_C@_17LFPOIHDD@?$AAA?$AAp?$AAr@ 0047186c     libucrt:nlsdata.obj
 0002:00006874       ??_C@_17PNNKMEED@?$AAM?$AAa?$AAy@ 00471874     libucrt:nlsdata.obj
 0002:0000687c       ??_C@_17KCJGOCPB@?$AAJ?$AAu?$AAn@ 0047187c     libucrt:nlsdata.obj
 0002:00006884       ??_C@_17IJPCKHK@?$AAJ?$AAu?$AAl@ 00471884     libucrt:nlsdata.obj
 0002:0000688c       ??_C@_17ICPELBCN@?$AAA?$AAu?$AAg@ 0047188c     libucrt:nlsdata.obj
 0002:00006894       ??_C@_17HCHCOKMG@?$AAS?$AAe?$AAp@ 00471894     libucrt:nlsdata.obj
 0002:0000689c       ??_C@_17FNLKOI@?$AAO?$AAc?$AAt@ 0047189c     libucrt:nlsdata.obj
 0002:000068a4       ??_C@_17BBDMLCIG@?$AAN?$AAo?$AAv@ 004718a4     libucrt:nlsdata.obj
 0002:000068ac       ??_C@_17EGKACKIF@?$AAD?$AAe?$AAc@ 004718ac     libucrt:nlsdata.obj
 0002:000068b4       ??_C@_1BA@EFMEIEBA@?$AAJ?$AAa?$AAn?$AAu?$AAa?$AAr?$AAy@ 004718b4     libucrt:nlsdata.obj
 0002:000068c4       ??_C@_1BC@JGDDFFAM@?$AAF?$AAe?$AAb?$AAr?$AAu?$AAa?$AAr?$AAy@ 004718c4     libucrt:nlsdata.obj
 0002:000068d8       ??_C@_1M@IKEENEDF@?$AAM?$AAa?$AAr?$AAc?$AAh@ 004718d8     libucrt:nlsdata.obj
 0002:000068e4       ??_C@_1M@GJNLMHFD@?$AAA?$AAp?$AAr?$AAi?$AAl@ 004718e4     libucrt:nlsdata.obj
 0002:000068f0       ??_C@_19EPFLPGAP@?$AAJ?$AAu?$AAn?$AAe@ 004718f0     libucrt:nlsdata.obj
 0002:000068fc       ??_C@_19BIFMLPCD@?$AAJ?$AAu?$AAl?$AAy@ 004718fc     libucrt:nlsdata.obj
 0002:00006908       ??_C@_1O@PAHLKOAC@?$AAA?$AAu?$AAg?$AAu?$AAs?$AAt@ 00471908     libucrt:nlsdata.obj
 0002:00006918       ??_C@_1BE@DKAAMBJL@?$AAS?$AAe?$AAp?$AAt?$AAe?$AAm?$AAb?$AAe?$AAr@ 00471918     libucrt:nlsdata.obj
 0002:0000692c       ??_C@_1BA@EPANDLNG@?$AAO?$AAc?$AAt?$AAo?$AAb?$AAe?$AAr@ 0047192c     libucrt:nlsdata.obj
 0002:0000693c       ??_C@_1BC@BGLIFPF@?$AAN?$AAo?$AAv?$AAe?$AAm?$AAb?$AAe?$AAr@ 0047193c     libucrt:nlsdata.obj
 0002:00006950       ??_C@_1BC@FEMKIFH@?$AAD?$AAe?$AAc?$AAe?$AAm?$AAb?$AAe?$AAr@ 00471950     libucrt:nlsdata.obj
 0002:00006964       ??_C@_15ODEHAHHF@?$AAA?$AAM@ 00471964     libucrt:nlsdata.obj
 0002:0000696c       ??_C@_15CLMNNGEL@?$AAP?$AAM@ 0047196c     libucrt:nlsdata.obj
 0002:00006974       ??_C@_1BC@IEBCMHCM@?$AAM?$AAM?$AA?1?$AAd?$AAd?$AA?1?$AAy?$AAy@ 00471974     libucrt:nlsdata.obj
 0002:00006988       ??_C@_1CI@KNAKOEBC@?$AAd?$AAd?$AAd?$AAd?$AA?0?$AA?5?$AAM?$AAM?$AAM?$AAM?$AA?5?$AAd?$AAd?$AA?0?$AA?5@ 00471988     libucrt:nlsdata.obj
 0002:000069b0       ??_C@_1BC@GDGBMEMK@?$AAH?$AAH?$AA?3?$AAm?$AAm?$AA?3?$AAs?$AAs@ 004719b0     libucrt:nlsdata.obj
 0002:000069c4       ??_C@_1M@BMHNFIME@?$AAe?$AAn?$AA?9?$AAU?$AAS@ 004719c4     libucrt:nlsdata.obj
 0002:000069d0       ?ccs@?1???$__acrt_stdio_parse_mode@D@@YA?AU__acrt_stdio_stream_mode@@QBD@Z@4QBDB 004719d0     libucrt:openfile.obj
 0002:000069d4       ?utf8_encoding@?1???$__acrt_stdio_parse_mode@D@@YA?AU__acrt_stdio_stream_mode@@QBD@Z@4QBDB 004719d4     libucrt:openfile.obj
 0002:000069dc       ?utf16_encoding@?1???$__acrt_stdio_parse_mode@D@@YA?AU__acrt_stdio_stream_mode@@QBD@Z@4QBDB 004719dc     libucrt:openfile.obj
 0002:000069e4       ?unicode_encoding@?1???$__acrt_stdio_parse_mode@D@@YA?AU__acrt_stdio_stream_mode@@QBD@Z@4QBDB 004719e4     libucrt:openfile.obj
 0002:00006a30       ??_C@_03OEIAHPBN@INF@      00471a30     libucrt:cvt.obj
 0002:00006a34       ??_C@_03OJHLLCGB@inf@      00471a34     libucrt:cvt.obj
 0002:00006a38       ??_C@_03LKNCIKJB@NAN@      00471a38     libucrt:cvt.obj
 0002:00006a3c       ??_C@_03LHCJEHON@nan@      00471a3c     libucrt:cvt.obj
 0002:00006a40       ??_C@_09OFJJIMPC@NAN?$CISNAN?$CJ@ 00471a40     libucrt:cvt.obj
 0002:00006a4c       ??_C@_09IPFBKMDL@nan?$CIsnan?$CJ@ 00471a4c     libucrt:cvt.obj
 0002:00006a58       ??_C@_08IKHNHAJ@NAN?$CIIND?$CJ@ 00471a58     libucrt:cvt.obj
 0002:00006a64       ??_C@_08OFCDMILK@nan?$CIind?$CJ@ 00471a64     libucrt:cvt.obj
 0002:00006a70       ??_C@_05KLBDPFGC@e?$CL000@ 00471a70     libucrt:cvt.obj
 0002:00006b60       ??_C@_03KHJOGHMM@exp@      00471b60     libucrt:fpexcept.obj
 0002:00006b64       ??_C@_03JGHBODFD@pow@      00471b64     libucrt:fpexcept.obj
 0002:00006b68       ??_C@_03MGHMBJCF@log@      00471b68     libucrt:fpexcept.obj
 0002:00006b6c       ??_C@_05HGHHAHAP@log10@    00471b6c     libucrt:fpexcept.obj
 0002:00006b74       ??_C@_04COOMCNPB@sinh@     00471b74     libucrt:fpexcept.obj
 0002:00006b7c       ??_C@_04HPJJNFIM@cosh@     00471b7c     libucrt:fpexcept.obj
 0002:00006b84       ??_C@_04FJHINJAO@tanh@     00471b84     libucrt:fpexcept.obj
 0002:00006b8c       ??_C@_04FIHNOPOL@asin@     00471b8c     libucrt:fpexcept.obj
 0002:00006b94       ??_C@_04PDIFKINK@acos@     00471b94     libucrt:fpexcept.obj
 0002:00006b9c       ??_C@_04MLLJIGOK@atan@     00471b9c     libucrt:fpexcept.obj
 0002:00006ba4       ??_C@_05KNGEOGJB@atan2@    00471ba4     libucrt:fpexcept.obj
 0002:00006bac       ??_C@_04EIAKFFMI@sqrt@     00471bac     libucrt:fpexcept.obj
 0002:00006bb4       ??_C@_03BLEJJJBH@sin@      00471bb4     libucrt:fpexcept.obj
 0002:00006bb8       ??_C@_03LALBNOCG@cos@      00471bb8     libucrt:fpexcept.obj
 0002:00006bbc       ??_C@_03IIINPABG@tan@      00471bbc     libucrt:fpexcept.obj
 0002:00006bc0       ??_C@_04GFPJNGEK@ceil@     00471bc0     libucrt:fpexcept.obj
 0002:00006bc8       ??_C@_05PBJFFIGL@floor@    00471bc8     libucrt:fpexcept.obj
 0002:00006bd0       ??_C@_04ODHECPBC@fabs@     00471bd0     libucrt:fpexcept.obj
 0002:00006bd8       ??_C@_04EHEDPDJG@modf@     00471bd8     libucrt:fpexcept.obj
 0002:00006be0       ??_C@_05CEJMAHNP@ldexp@    00471be0     libucrt:fpexcept.obj
 0002:00006be8       ??_C@_05KBKMEMPO@_cabs@    00471be8     libucrt:fpexcept.obj
 0002:00006bf0       ??_C@_06MEIMCGCF@_hypot@   00471bf0     libucrt:fpexcept.obj
 0002:00006bf8       ??_C@_04KEPJIHGP@fmod@     00471bf8     libucrt:fpexcept.obj
 0002:00006c00       ??_C@_05GKKHEGJL@frexp@    00471c00     libucrt:fpexcept.obj
 0002:00006c08       ??_C@_03MJLDFKDL@_y0@      00471c08     libucrt:fpexcept.obj
 0002:00006c0c       ??_C@_03NAKIGLHK@_y1@      00471c0c     libucrt:fpexcept.obj
 0002:00006c10       ??_C@_03ONILCKOB@_yn@      00471c10     libucrt:fpexcept.obj
 0002:00006c14       ??_C@_05JGDBENOH@_logb@    00471c14     libucrt:fpexcept.obj
 0002:00006c1c       ??_C@_0L@KDOEJCKC@_nextafter@ 00471c1c     libucrt:fpexcept.obj
 0002:00006c40       __days                     00471c40     libucrt:days.obj
 0002:00006c74       __lpdays                   00471c74     libucrt:days.obj
 0002:00006ca8       ??_C@_15HNJCPLHL@?$AAT?$AAZ@ 00471ca8     libucrt:tzset.obj
 0002:00006cc8       __sys_first_posix_error    00471cc8     libucrt:syserr.obj
 0002:00006ccc       __sys_last_posix_error     00471ccc     libucrt:syserr.obj
 0002:00006cd0       __sys_posix_errlist        00471cd0     libucrt:syserr.obj
 0002:00006d78       __sys_errlist              00471d78     libucrt:syserr.obj
 0002:00006e28       ??_C@_08INEPGKHH@No?5error@ 00471e28     libucrt:syserr.obj
 0002:00006e34       ??_C@_0BI@BJFCGOHL@Operation?5not?5permitted@ 00471e34     libucrt:syserr.obj
 0002:00006e4c       ??_C@_0BK@FMDHKPNF@No?5such?5file?5or?5directory@ 00471e4c     libucrt:syserr.obj
 0002:00006e68       ??_C@_0BA@FKIAIBGA@No?5such?5process@ 00471e68     libucrt:syserr.obj
 0002:00006e78       ??_C@_0BK@FJBOAFDK@Interrupted?5function?5call@ 00471e78     libucrt:syserr.obj
 0002:00006e94       ??_C@_0BD@KKNFOBBD@Input?1output?5error@ 00471e94     libucrt:syserr.obj
 0002:00006ea8       ??_C@_0BK@DPKMCKJ@No?5such?5device?5or?5address@ 00471ea8     libucrt:syserr.obj
 0002:00006ec4       ??_C@_0BC@MFFGCDFL@Arg?5list?5too?5long@ 00471ec4     libucrt:syserr.obj
 0002:00006ed8       ??_C@_0BC@HKPNECK@Exec?5format?5error@ 00471ed8     libucrt:syserr.obj
 0002:00006eec       ??_C@_0BE@NFGDDCEF@Bad?5file?5descriptor@ 00471eec     libucrt:syserr.obj
 0002:00006f00       ??_C@_0BD@LOHELEP@No?5child?5processes@ 00471f00     libucrt:syserr.obj
 0002:00006f14       ??_C@_0CB@EPFKGNAK@Resource?5temporarily?5unavailabl@ 00471f14     libucrt:syserr.obj
 0002:00006f38       ??_C@_0BB@IMDKMPFB@Not?5enough?5space@ 00471f38     libucrt:syserr.obj
 0002:00006f4c       ??_C@_0BC@HFNFNKAI@Permission?5denied@ 00471f4c     libucrt:syserr.obj
 0002:00006f60       ??_C@_0M@LOEHLCJD@Bad?5address@ 00471f60     libucrt:syserr.obj
 0002:00006f6c       ??_C@_0O@NIPGCINC@Unknown?5error@ 00471f6c     libucrt:syserr.obj
 0002:00006f7c       ??_C@_0BA@BIBLIOEK@Resource?5device@ 00471f7c     libucrt:syserr.obj
 0002:00006f8c       ??_C@_0M@NAAJNNGH@File?5exists@ 00471f8c     libucrt:syserr.obj
 0002:00006f98       ??_C@_0O@OAMDNOCP@Improper?5link@ 00471f98     libucrt:syserr.obj
 0002:00006fa8       ??_C@_0P@NLEIANHE@No?5such?5device@ 00471fa8     libucrt:syserr.obj
 0002:00006fb8       ??_C@_0BA@CJBACOOL@Not?5a?5directory@ 00471fb8     libucrt:syserr.obj
 0002:00006fc8       ??_C@_0P@NDHGCGKE@Is?5a?5directory@ 00471fc8     libucrt:syserr.obj
 0002:00006fd8       ??_C@_0BB@HMGGCEBG@Invalid?5argument@ 00471fd8     libucrt:syserr.obj
 0002:00006fec       ??_C@_0BO@IIFBODJE@Too?5many?5open?5files?5in?5system@ 00471fec     libucrt:syserr.obj
 0002:0000700c       ??_C@_0BE@INBJMKGG@Too?5many?5open?5files@ 0047200c     libucrt:syserr.obj
 0002:00007020       ??_C@_0CE@ONOKNLPF@Inappropriate?5I?1O?5control?5opera@ 00472020     libucrt:syserr.obj
 0002:00007044       ??_C@_0P@LFMMIPAE@File?5too?5large@ 00472044     libucrt:syserr.obj
 0002:00007054       ??_C@_0BI@FEALHKLD@No?5space?5left?5on?5device@ 00472054     libucrt:syserr.obj
 0002:0000706c       ??_C@_0N@FEHLOILP@Invalid?5seek@ 0047206c     libucrt:syserr.obj
 0002:0000707c       ??_C@_0BG@DDBFNKBH@Read?9only?5file?5system@ 0047207c     libucrt:syserr.obj
 0002:00007094       ??_C@_0P@PKCJJLLM@Too?5many?5links@ 00472094     libucrt:syserr.obj
 0002:000070a4       ??_C@_0M@LHEPIIOM@Broken?5pipe@ 004720a4     libucrt:syserr.obj
 0002:000070b0       ??_C@_0N@MMJPGLJK@Domain?5error@ 004720b0     libucrt:syserr.obj
 0002:000070c0       ??_C@_0BB@FCBJFCAJ@Result?5too?5large@ 004720c0     libucrt:syserr.obj
 0002:000070d4       ??_C@_0BK@JAEBMJJM@Resource?5deadlock?5avoided@ 004720d4     libucrt:syserr.obj
 0002:000070f0       ??_C@_0BC@BEDIHIDK@Filename?5too?5long@ 004720f0     libucrt:syserr.obj
 0002:00007104       ??_C@_0BD@CLHBCGPB@No?5locks?5available@ 00472104     libucrt:syserr.obj
 0002:00007118       ??_C@_0BJ@IHEHINLI@Function?5not?5implemented@ 00472118     libucrt:syserr.obj
 0002:00007134       ??_C@_0BE@ICMCHPHH@Directory?5not?5empty@ 00472134     libucrt:syserr.obj
 0002:00007148       ??_C@_0BG@KLEAJEFJ@Illegal?5byte?5sequence@ 00472148     libucrt:syserr.obj
 0002:00007160       __sys_nerr                 00472160     libucrt:syserr.obj
 0002:00007174       ??_C@_1M@HPNHIDJI@?$AAj?$AAa?$AA?9?$AAJ?$AAP@ 00472174     libucrt:mbctype.obj
 0002:00007180       ??_C@_1M@BIBDDEMK@?$AAz?$AAh?$AA?9?$AAC?$AAN@ 00472180     libucrt:mbctype.obj
 0002:0000718c       ??_C@_1M@JLOOOEGK@?$AAk?$AAo?$AA?9?$AAK?$AAR@ 0047218c     libucrt:mbctype.obj
 0002:00007198       ??_C@_1M@CLNBBOPM@?$AAz?$AAh?$AA?9?$AAT?$AAW@ 00472198     libucrt:mbctype.obj
 0002:000071a8       ___acrt_rg_language        004721a8     libucrt:get_qualified_locale.obj
 0002:000074b4       ___acrt_rg_language_count  004724b4     libucrt:get_qualified_locale.obj
 0002:000074b8       ___acrt_rg_country         004724b8     libucrt:get_qualified_locale.obj
 0002:000075cc       ___acrt_rg_country_count   004725cc     libucrt:get_qualified_locale.obj
 0002:000075d0       ??_C@_1BC@LLOKLNP@?$AAa?$AAm?$AAe?$AAr?$AAi?$AAc?$AAa?$AAn@ 004725d0     libucrt:get_qualified_locale.obj
 0002:000075e4       ??_C@_1CC@HEIGCDGG@?$AAa?$AAm?$AAe?$AAr?$AAi?$AAc?$AAa?$AAn?$AA?5?$AAe?$AAn?$AAg?$AAl?$AAi?$AAs@ 004725e4     libucrt:get_qualified_locale.obj
 0002:00007608       ??_C@_1CC@IHCNOMIN@?$AAa?$AAm?$AAe?$AAr?$AAi?$AAc?$AAa?$AAn?$AA?9?$AAe?$AAn?$AAg?$AAl?$AAi?$AAs@ 00472608     libucrt:get_qualified_locale.obj
 0002:0000762c       ??_C@_1BG@GKAGPCGG@?$AAa?$AAu?$AAs?$AAt?$AAr?$AAa?$AAl?$AAi?$AAa?$AAn@ 0047262c     libucrt:get_qualified_locale.obj
 0002:00007644       ??_C@_1BA@GMENCENF@?$AAb?$AAe?$AAl?$AAg?$AAi?$AAa?$AAn@ 00472644     libucrt:get_qualified_locale.obj
 0002:00007654       ??_C@_1BC@PJMIIAAN@?$AAc?$AAa?$AAn?$AAa?$AAd?$AAi?$AAa?$AAn@ 00472654     libucrt:get_qualified_locale.obj
 0002:00007668       ??_C@_17NOIMNFBF@?$AAc?$AAh?$AAh@ 00472668     libucrt:get_qualified_locale.obj
 0002:00007670       ??_C@_17GGDALCHA@?$AAc?$AAh?$AAi@ 00472670     libucrt:get_qualified_locale.obj
 0002:00007678       ??_C@_1BA@NPNJKIBL@?$AAc?$AAh?$AAi?$AAn?$AAe?$AAs?$AAe@ 00472678     libucrt:get_qualified_locale.obj
 0002:00007688       ??_C@_1CC@DINBAMMJ@?$AAc?$AAh?$AAi?$AAn?$AAe?$AAs?$AAe?$AA?9?$AAh?$AAo?$AAn?$AAg?$AAk?$AAo?$AAn@ 00472688     libucrt:get_qualified_locale.obj
 0002:000076ac       ??_C@_1CG@IOBJPACO@?$AAc?$AAh?$AAi?$AAn?$AAe?$AAs?$AAe?$AA?9?$AAs?$AAi?$AAm?$AAp?$AAl?$AAi?$AAf@ 004726ac     libucrt:get_qualified_locale.obj
 0002:000076d4       ??_C@_1CE@GAJNDCKG@?$AAc?$AAh?$AAi?$AAn?$AAe?$AAs?$AAe?$AA?9?$AAs?$AAi?$AAn?$AAg?$AAa?$AAp?$AAo@ 004726d4     libucrt:get_qualified_locale.obj
 0002:000076f8       ??_C@_1CI@PAJPIOOD@?$AAc?$AAh?$AAi?$AAn?$AAe?$AAs?$AAe?$AA?9?$AAt?$AAr?$AAa?$AAd?$AAi?$AAt?$AAi@ 004726f8     libucrt:get_qualified_locale.obj
 0002:00007720       ??_C@_1BM@NILJBMMD@?$AAd?$AAu?$AAt?$AAc?$AAh?$AA?9?$AAb?$AAe?$AAl?$AAg?$AAi?$AAa?$AAn@ 00472720     libucrt:get_qualified_locale.obj
 0002:0000773c       ??_C@_1CC@OOJPJNEJ@?$AAe?$AAn?$AAg?$AAl?$AAi?$AAs?$AAh?$AA?9?$AAa?$AAm?$AAe?$AAr?$AAi?$AAc?$AAa@ 0047273c     libucrt:get_qualified_locale.obj
 0002:00007760       ??_C@_1BI@IOLFEEM@?$AAe?$AAn?$AAg?$AAl?$AAi?$AAs?$AAh?$AA?9?$AAa?$AAu?$AAs@ 00472760     libucrt:get_qualified_locale.obj
 0002:00007778       ??_C@_1BO@HFFNLENJ@?$AAe?$AAn?$AAg?$AAl?$AAi?$AAs?$AAh?$AA?9?$AAb?$AAe?$AAl?$AAi?$AAz?$AAe@ 00472778     libucrt:get_qualified_locale.obj
 0002:00007798       ??_C@_1BI@HAPKJMPO@?$AAe?$AAn?$AAg?$AAl?$AAi?$AAs?$AAh?$AA?9?$AAc?$AAa?$AAn@ 00472798     libucrt:get_qualified_locale.obj
 0002:000077b0       ??_C@_1CE@HLNDMIOJ@?$AAe?$AAn?$AAg?$AAl?$AAi?$AAs?$AAh?$AA?9?$AAc?$AAa?$AAr?$AAi?$AAb?$AAb?$AAe@ 004727b0     libucrt:get_qualified_locale.obj
 0002:000077d4       ??_C@_1BI@LDHJHHAC@?$AAe?$AAn?$AAg?$AAl?$AAi?$AAs?$AAh?$AA?9?$AAi?$AAr?$AAe@ 004727d4     libucrt:get_qualified_locale.obj
 0002:000077ec       ??_C@_1CA@NJMMCFOC@?$AAe?$AAn?$AAg?$AAl?$AAi?$AAs?$AAh?$AA?9?$AAj?$AAa?$AAm?$AAa?$AAi?$AAc?$AAa@ 004727ec     libucrt:get_qualified_locale.obj
 0002:0000780c       ??_C@_1BG@BHJEBBGG@?$AAe?$AAn?$AAg?$AAl?$AAi?$AAs?$AAh?$AA?9?$AAn?$AAz@ 0047280c     libucrt:get_qualified_locale.obj
 0002:00007824       ??_C@_1CK@FGOEJJCO@?$AAe?$AAn?$AAg?$AAl?$AAi?$AAs?$AAh?$AA?9?$AAs?$AAo?$AAu?$AAt?$AAh?$AA?5?$AAa@ 00472824     libucrt:get_qualified_locale.obj
 0002:00007850       ??_C@_1DE@PDBJPCJ@?$AAe?$AAn?$AAg?$AAl?$AAi?$AAs?$AAh?$AA?9?$AAt?$AAr?$AAi?$AAn?$AAi?$AAd?$AAa@ 00472850     libucrt:get_qualified_locale.obj
 0002:00007884       ??_C@_1BG@JGCANDME@?$AAe?$AAn?$AAg?$AAl?$AAi?$AAs?$AAh?$AA?9?$AAu?$AAk@ 00472884     libucrt:get_qualified_locale.obj
 0002:0000789c       ??_C@_1BG@DINKMLE@?$AAe?$AAn?$AAg?$AAl?$AAi?$AAs?$AAh?$AA?9?$AAu?$AAs@ 0047289c     libucrt:get_qualified_locale.obj
 0002:000078b4       ??_C@_1BI@NMFDBHJE@?$AAe?$AAn?$AAg?$AAl?$AAi?$AAs?$AAh?$AA?9?$AAu?$AAs?$AAa@ 004728b4     libucrt:get_qualified_locale.obj
 0002:000078cc       ??_C@_1BO@OIHKJKII@?$AAf?$AAr?$AAe?$AAn?$AAc?$AAh?$AA?9?$AAb?$AAe?$AAl?$AAg?$AAi?$AAa?$AAn@ 004728cc     libucrt:get_qualified_locale.obj
 0002:000078ec       ??_C@_1CA@NKAELJKI@?$AAf?$AAr?$AAe?$AAn?$AAc?$AAh?$AA?9?$AAc?$AAa?$AAn?$AAa?$AAd?$AAi?$AAa?$AAn@ 004728ec     libucrt:get_qualified_locale.obj
 0002:0000790c       ??_C@_1CE@MGKCNLGN@?$AAf?$AAr?$AAe?$AAn?$AAc?$AAh?$AA?9?$AAl?$AAu?$AAx?$AAe?$AAm?$AAb?$AAo?$AAu@ 0047290c     libucrt:get_qualified_locale.obj
 0002:00007930       ??_C@_1BK@CEGEAILM@?$AAf?$AAr?$AAe?$AAn?$AAc?$AAh?$AA?9?$AAs?$AAw?$AAi?$AAs?$AAs@ 00472930     libucrt:get_qualified_locale.obj
 0002:0000794c       ??_C@_1CA@PAFKEOCC@?$AAg?$AAe?$AAr?$AAm?$AAa?$AAn?$AA?9?$AAa?$AAu?$AAs?$AAt?$AAr?$AAi?$AAa?$AAn@ 0047294c     libucrt:get_qualified_locale.obj
 0002:0000796c       ??_C@_1CI@HCFHGOFD@?$AAg?$AAe?$AAr?$AAm?$AAa?$AAn?$AA?9?$AAl?$AAi?$AAc?$AAh?$AAt?$AAe?$AAn?$AAs@ 0047296c     libucrt:get_qualified_locale.obj
 0002:00007994       ??_C@_1CE@FEDDNPDG@?$AAg?$AAe?$AAr?$AAm?$AAa?$AAn?$AA?9?$AAl?$AAu?$AAx?$AAe?$AAm?$AAb?$AAo?$AAu@ 00472994     libucrt:get_qualified_locale.obj
 0002:000079b8       ??_C@_1BK@LIMINNMN@?$AAg?$AAe?$AAr?$AAm?$AAa?$AAn?$AA?9?$AAs?$AAw?$AAi?$AAs?$AAs@ 004729b8     libucrt:get_qualified_locale.obj
 0002:000079d4       ??_C@_1BM@LGMDBEPD@?$AAi?$AAr?$AAi?$AAs?$AAh?$AA?9?$AAe?$AAn?$AAg?$AAl?$AAi?$AAs?$AAh@ 004729d4     libucrt:get_qualified_locale.obj
 0002:000079f0       ??_C@_1BM@NNCFBAEE@?$AAi?$AAt?$AAa?$AAl?$AAi?$AAa?$AAn?$AA?9?$AAs?$AAw?$AAi?$AAs?$AAs@ 004729f0     libucrt:get_qualified_locale.obj
 0002:00007a0c       ??_C@_1BE@FEDJNPIB@?$AAn?$AAo?$AAr?$AAw?$AAe?$AAg?$AAi?$AAa?$AAn@ 00472a0c     libucrt:get_qualified_locale.obj
 0002:00007a20       ??_C@_1CC@CILKDEIE@?$AAn?$AAo?$AAr?$AAw?$AAe?$AAg?$AAi?$AAa?$AAn?$AA?9?$AAb?$AAo?$AAk?$AAm?$AAa@ 00472a20     libucrt:get_qualified_locale.obj
 0002:00007a44       ??_C@_1CE@DHMMHEPL@?$AAn?$AAo?$AAr?$AAw?$AAe?$AAg?$AAi?$AAa?$AAn?$AA?9?$AAn?$AAy?$AAn?$AAo?$AAr@ 00472a44     libucrt:get_qualified_locale.obj
 0002:00007a68       ??_C@_1CK@OPNMHECD@?$AAp?$AAo?$AAr?$AAt?$AAu?$AAg?$AAu?$AAe?$AAs?$AAe?$AA?9?$AAb?$AAr?$AAa?$AAz@ 00472a68     libucrt:get_qualified_locale.obj
 0002:00007a94       ??_C@_1CE@KEEHCDB@?$AAs?$AAp?$AAa?$AAn?$AAi?$AAs?$AAh?$AA?9?$AAa?$AAr?$AAg?$AAe?$AAn?$AAt?$AAi@ 00472a94     libucrt:get_qualified_locale.obj
 0002:00007ab8       ??_C@_1CA@GIAOLHJD@?$AAs?$AAp?$AAa?$AAn?$AAi?$AAs?$AAh?$AA?9?$AAb?$AAo?$AAl?$AAi?$AAv?$AAi?$AAa@ 00472ab8     libucrt:get_qualified_locale.obj
 0002:00007ad8       ??_C@_1BM@OJNDFNPD@?$AAs?$AAp?$AAa?$AAn?$AAi?$AAs?$AAh?$AA?9?$AAc?$AAh?$AAi?$AAl?$AAe@ 00472ad8     libucrt:get_qualified_locale.obj
 0002:00007af4       ??_C@_1CC@OCOLPALL@?$AAs?$AAp?$AAa?$AAn?$AAi?$AAs?$AAh?$AA?9?$AAc?$AAo?$AAl?$AAo?$AAm?$AAb?$AAi@ 00472af4     libucrt:get_qualified_locale.obj
 0002:00007b18       ??_C@_1CG@BPOFMKBB@?$AAs?$AAp?$AAa?$AAn?$AAi?$AAs?$AAh?$AA?9?$AAc?$AAo?$AAs?$AAt?$AAa?$AA?5?$AAr@ 00472b18     libucrt:get_qualified_locale.obj
 0002:00007b40       ??_C@_1DG@IGOBAPBB@?$AAs?$AAp?$AAa?$AAn?$AAi?$AAs?$AAh?$AA?9?$AAd?$AAo?$AAm?$AAi?$AAn?$AAi?$AAc@ 00472b40     libucrt:get_qualified_locale.obj
 0002:00007b78       ??_C@_1CA@JHAPGEGI@?$AAs?$AAp?$AAa?$AAn?$AAi?$AAs?$AAh?$AA?9?$AAe?$AAc?$AAu?$AAa?$AAd?$AAo?$AAr@ 00472b78     libucrt:get_qualified_locale.obj
 0002:00007b98       ??_C@_1CI@LAPALJPP@?$AAs?$AAp?$AAa?$AAn?$AAi?$AAs?$AAh?$AA?9?$AAe?$AAl?$AA?5?$AAs?$AAa?$AAl?$AAv@ 00472b98     libucrt:get_qualified_locale.obj
 0002:00007bc0       ??_C@_1CE@PDGBOFOM@?$AAs?$AAp?$AAa?$AAn?$AAi?$AAs?$AAh?$AA?9?$AAg?$AAu?$AAa?$AAt?$AAe?$AAm?$AAa@ 00472bc0     libucrt:get_qualified_locale.obj
 0002:00007be4       ??_C@_1CC@NBEBAODI@?$AAs?$AAp?$AAa?$AAn?$AAi?$AAs?$AAh?$AA?9?$AAh?$AAo?$AAn?$AAd?$AAu?$AAr?$AAa@ 00472be4     libucrt:get_qualified_locale.obj
 0002:00007c08       ??_C@_1CA@LLKGHBMF@?$AAs?$AAp?$AAa?$AAn?$AAi?$AAs?$AAh?$AA?9?$AAm?$AAe?$AAx?$AAi?$AAc?$AAa?$AAn@ 00472c08     libucrt:get_qualified_locale.obj
 0002:00007c28       ??_C@_1BO@LKNDOIGD@?$AAs?$AAp?$AAa?$AAn?$AAi?$AAs?$AAh?$AA?9?$AAm?$AAo?$AAd?$AAe?$AAr?$AAn@ 00472c28     libucrt:get_qualified_locale.obj
 0002:00007c48       ??_C@_1CE@NMDMOEEB@?$AAs?$AAp?$AAa?$AAn?$AAi?$AAs?$AAh?$AA?9?$AAn?$AAi?$AAc?$AAa?$AAr?$AAa?$AAg@ 00472c48     libucrt:get_qualified_locale.obj
 0002:00007c6c       ??_C@_1BO@LLCBEJGB@?$AAs?$AAp?$AAa?$AAn?$AAi?$AAs?$AAh?$AA?9?$AAp?$AAa?$AAn?$AAa?$AAm?$AAa@ 00472c6c     libucrt:get_qualified_locale.obj
 0002:00007c8c       ??_C@_1CC@FKPGGIHO@?$AAs?$AAp?$AAa?$AAn?$AAi?$AAs?$AAh?$AA?9?$AAp?$AAa?$AAr?$AAa?$AAg?$AAu?$AAa@ 00472c8c     libucrt:get_qualified_locale.obj
 0002:00007cb0       ??_C@_1BK@CDEIHOOP@?$AAs?$AAp?$AAa?$AAn?$AAi?$AAs?$AAh?$AA?9?$AAp?$AAe?$AAr?$AAu@ 00472cb0     libucrt:get_qualified_locale.obj
 0002:00007ccc       ??_C@_1CI@GAHAKKGP@?$AAs?$AAp?$AAa?$AAn?$AAi?$AAs?$AAh?$AA?9?$AAp?$AAu?$AAe?$AAr?$AAt?$AAo?$AA?5@ 00472ccc     libucrt:get_qualified_locale.obj
 0002:00007cf4       ??_C@_1CA@NKJBCAGP@?$AAs?$AAp?$AAa?$AAn?$AAi?$AAs?$AAh?$AA?9?$AAu?$AAr?$AAu?$AAg?$AAu?$AAa?$AAy@ 00472cf4     libucrt:get_qualified_locale.obj
 0002:00007d14       ??_C@_1CE@ODILCONM@?$AAs?$AAp?$AAa?$AAn?$AAi?$AAs?$AAh?$AA?9?$AAv?$AAe?$AAn?$AAe?$AAz?$AAu?$AAe@ 00472d14     libucrt:get_qualified_locale.obj
 0002:00007d38       ??_C@_1CA@OBNMCGFO@?$AAs?$AAw?$AAe?$AAd?$AAi?$AAs?$AAh?$AA?9?$AAf?$AAi?$AAn?$AAl?$AAa?$AAn?$AAd@ 00472d38     libucrt:get_qualified_locale.obj
 0002:00007d58       ??_C@_1M@PIPDDPPI@?$AAs?$AAw?$AAi?$AAs?$AAs@ 00472d58     libucrt:get_qualified_locale.obj
 0002:00007d64       ??_C@_15PJPFLCCM@?$AAu?$AAk@ 00472d64     libucrt:get_qualified_locale.obj
 0002:00007d6c       ??_C@_15GMFIMNFM@?$AAu?$AAs@ 00472d6c     libucrt:get_qualified_locale.obj
 0002:00007d74       ??_C@_17HAEBFAGL@?$AAu?$AAs?$AAa@ 00472d74     libucrt:get_qualified_locale.obj
 0002:00007d7c       ??_C@_1BA@DPFJEPHB@?$AAa?$AAm?$AAe?$AAr?$AAi?$AAc?$AAa@ 00472d7c     libucrt:get_qualified_locale.obj
 0002:00007d8c       ??_C@_1BA@ELOGGFK@?$AAb?$AAr?$AAi?$AAt?$AAa?$AAi?$AAn@ 00472d8c     libucrt:get_qualified_locale.obj
 0002:00007d9c       ??_C@_1M@GHBGIGDA@?$AAc?$AAh?$AAi?$AAn?$AAa@ 00472d9c     libucrt:get_qualified_locale.obj
 0002:00007da8       ??_C@_1M@NCHEJOPO@?$AAc?$AAz?$AAe?$AAc?$AAh@ 00472da8     libucrt:get_qualified_locale.obj
 0002:00007db4       ??_C@_1BA@BKPAPBLA@?$AAe?$AAn?$AAg?$AAl?$AAa?$AAn?$AAd@ 00472db4     libucrt:get_qualified_locale.obj
 0002:00007dc4       ??_C@_1BM@HKBCKIPC@?$AAg?$AAr?$AAe?$AAa?$AAt?$AA?5?$AAb?$AAr?$AAi?$AAt?$AAa?$AAi?$AAn@ 00472dc4     libucrt:get_qualified_locale.obj
 0002:00007de0       ??_C@_1BA@PPCHPGJB@?$AAh?$AAo?$AAl?$AAl?$AAa?$AAn?$AAd@ 00472de0     libucrt:get_qualified_locale.obj
 0002:00007df0       ??_C@_1BE@JBMPEGDG@?$AAh?$AAo?$AAn?$AAg?$AA?9?$AAk?$AAo?$AAn?$AAg@ 00472df0     libucrt:get_qualified_locale.obj
 0002:00007e04       ??_C@_1BI@KOELBBPJ@?$AAn?$AAe?$AAw?$AA?9?$AAz?$AAe?$AAa?$AAl?$AAa?$AAn?$AAd@ 00472e04     libucrt:get_qualified_locale.obj
 0002:00007e1c       ??_C@_15HIEBHAIO@?$AAn?$AAz@ 00472e1c     libucrt:get_qualified_locale.obj
 0002:00007e24       ??_C@_1BC@CHBCPFPI@?$AAp?$AAr?$AA?5?$AAc?$AAh?$AAi?$AAn?$AAa@ 00472e24     libucrt:get_qualified_locale.obj
 0002:00007e38       ??_C@_1BC@JAOIIFKD@?$AAp?$AAr?$AA?9?$AAc?$AAh?$AAi?$AAn?$AAa@ 00472e38     libucrt:get_qualified_locale.obj
 0002:00007e4c       ??_C@_1BI@BEHPPHKC@?$AAp?$AAu?$AAe?$AAr?$AAt?$AAo?$AA?9?$AAr?$AAi?$AAc?$AAo@ 00472e4c     libucrt:get_qualified_locale.obj
 0002:00007e64       ??_C@_1O@PAEOFKDI@?$AAs?$AAl?$AAo?$AAv?$AAa?$AAk@ 00472e64     libucrt:get_qualified_locale.obj
 0002:00007e74       ??_C@_1BK@FIHMCKAM@?$AAs?$AAo?$AAu?$AAt?$AAh?$AA?5?$AAa?$AAf?$AAr?$AAi?$AAc?$AAa@ 00472e74     libucrt:get_qualified_locale.obj
 0002:00007e90       ??_C@_1BI@NAEOODKB@?$AAs?$AAo?$AAu?$AAt?$AAh?$AA?5?$AAk?$AAo?$AAr?$AAe?$AAa@ 00472e90     libucrt:get_qualified_locale.obj
 0002:00007ea8       ??_C@_1BK@FBDGGIFF@?$AAs?$AAo?$AAu?$AAt?$AAh?$AA?9?$AAa?$AAf?$AAr?$AAi?$AAc?$AAa@ 00472ea8     libucrt:get_qualified_locale.obj
 0002:00007ec4       ??_C@_1BI@GHLEJDPK@?$AAs?$AAo?$AAu?$AAt?$AAh?$AA?9?$AAk?$AAo?$AAr?$AAe?$AAa@ 00472ec4     libucrt:get_qualified_locale.obj
 0002:00007edc       ??_C@_1CE@PLHLOMJF@?$AAt?$AAr?$AAi?$AAn?$AAi?$AAd?$AAa?$AAd?$AA?5?$AA?$CG?$AA?5?$AAt?$AAo?$AAb?$AAa@ 00472edc     libucrt:get_qualified_locale.obj
 0002:00007f00       ??_C@_1BO@MODIMHHI@?$AAu?$AAn?$AAi?$AAt?$AAe?$AAd?$AA?9?$AAk?$AAi?$AAn?$AAg?$AAd?$AAo?$AAm@ 00472f00     libucrt:get_qualified_locale.obj
 0002:00007f20       ??_C@_1BM@FFHJONBJ@?$AAu?$AAn?$AAi?$AAt?$AAe?$AAd?$AA?9?$AAs?$AAt?$AAa?$AAt?$AAe?$AAs@ 00472f20     libucrt:get_qualified_locale.obj
 0002:00007f3c       ??_C@_19MPDNHKDG@?$AAu?$AAt?$AAf?$AA8@ 00472f3c     libucrt:get_qualified_locale.obj
 0002:00007f48       ??_C@_17DNCLJFIF@?$AAA?$AAC?$AAP@ 00472f48     libucrt:get_qualified_locale.obj
 0002:00007f50       ??_C@_1M@FPEIIFAM@?$AAu?$AAt?$AAf?$AA?9?$AA8@ 00472f50     libucrt:get_qualified_locale.obj
 0002:00007f5c       ??_C@_17CIKBIHLH@?$AAO?$AAC?$AAP@ 00472f5c     libucrt:get_qualified_locale.obj
 0002:00007f64       ___rglangidNotDefault      00472f64     libucrt:getqloc_downlevel.obj
 0002:00008698       ??_C@_15EMKDOKLE@?$AAa?$AAr@ 00473698     libucrt:lcidtoname_downlevel.obj
 0002:000086a0       ??_C@_15KNPADPLH@?$AAb?$AAg@ 004736a0     libucrt:lcidtoname_downlevel.obj
 0002:000086a8       ??_C@_15EDMHLDMO@?$AAc?$AAa@ 004736a8     libucrt:lcidtoname_downlevel.obj
 0002:000086b0       ??_C@_1O@BPEAJADD@?$AAz?$AAh?$AA?9?$AAC?$AAH?$AAS@ 004736b0     libucrt:lcidtoname_downlevel.obj
 0002:000086c0       ??_C@_15LJNHCMNK@?$AAc?$AAs@ 004736c0     libucrt:lcidtoname_downlevel.obj
 0002:000086c8       ??_C@_15FOMCIDHG@?$AAd?$AAa@ 004736c8     libucrt:lcidtoname_downlevel.obj
 0002:000086d0       ??_C@_15NBKABECB@?$AAd?$AAe@ 004736d0     libucrt:lcidtoname_downlevel.obj
 0002:000086d8       ??_C@_15GHPEIIAO@?$AAe?$AAl@ 004736d8     libucrt:lcidtoname_downlevel.obj
 0002:000086e0       ??_C@_15MNPNEAIF@?$AAe?$AAn@ 004736e0     libucrt:lcidtoname_downlevel.obj
 0002:000086e8       ??_C@_15GPIOMPMH@?$AAe?$AAs@ 004736e8     libucrt:lcidtoname_downlevel.obj
 0002:000086f0       ??_C@_15NGLOAKJC@?$AAf?$AAi@ 004736f0     libucrt:lcidtoname_downlevel.obj
 0002:000086f8       ??_C@_15FBKGNKAM@?$AAf?$AAr@ 004736f8     libucrt:lcidtoname_downlevel.obj
 0002:00008700       ??_C@_15KGGCNEFK@?$AAh?$AAe@ 00473700     libucrt:lcidtoname_downlevel.obj
 0002:00008708       ??_C@_15PGHLIDMF@?$AAh?$AAu@ 00473708     libucrt:lcidtoname_downlevel.obj
 0002:00008710       ??_C@_15BIEMAPLM@?$AAi?$AAs@ 00473710     libucrt:lcidtoname_downlevel.obj
 0002:00008718       ??_C@_15IFJLDHAF@?$AAi?$AAt@ 00473718     libucrt:lcidtoname_downlevel.obj
 0002:00008720       ??_C@_15GEMIOCAG@?$AAj?$AAa@ 00473720     libucrt:lcidtoname_downlevel.obj
 0002:00008728       ??_C@_15EPELEGJA@?$AAk?$AAo@ 00473728     libucrt:lcidtoname_downlevel.obj
 0002:00008730       ??_C@_15NDDHIMN@?$AAn?$AAl@ 00473730     libucrt:lcidtoname_downlevel.obj
 0002:00008738       ??_C@_15BPIGNHCD@?$AAn?$AAo@ 00473738     libucrt:lcidtoname_downlevel.obj
 0002:00008740       ??_C@_15DEOPBLCG@?$AAp?$AAl@ 00473740     libucrt:lcidtoname_downlevel.obj
 0002:00008748       ??_C@_15KBECGEFG@?$AAp?$AAt@ 00473748     libucrt:lcidtoname_downlevel.obj
 0002:00008750       ??_C@_15GLJCBFMD@?$AAr?$AAo@ 00473750     libucrt:lcidtoname_downlevel.obj
 0002:00008758       ??_C@_15FEDGKCDI@?$AAr?$AAu@ 00473758     libucrt:lcidtoname_downlevel.obj
 0002:00008760       ??_C@_15GLKMLLHM@?$AAh?$AAr@ 00473760     libucrt:lcidtoname_downlevel.obj
 0002:00008768       ??_C@_15CPKMFBDB@?$AAs?$AAk@ 00473768     libucrt:lcidtoname_downlevel.obj
 0002:00008770       ??_C@_15BAAIOGMK@?$AAs?$AAq@ 00473770     libucrt:lcidtoname_downlevel.obj
 0002:00008778       ??_C@_15INNPNOHD@?$AAs?$AAv@ 00473778     libucrt:lcidtoname_downlevel.obj
 0002:00008780       ??_C@_15CABMMOGH@?$AAt?$AAh@ 00473780     libucrt:lcidtoname_downlevel.obj
 0002:00008788       ??_C@_15BPLIHJJM@?$AAt?$AAr@ 00473788     libucrt:lcidtoname_downlevel.obj
 0002:00008790       ??_C@_15NEOEKKDJ@?$AAu?$AAr@ 00473790     libucrt:lcidtoname_downlevel.obj
 0002:00008798       ??_C@_15NFICGAJK@?$AAi?$AAd@ 00473798     libucrt:lcidtoname_downlevel.obj
 0002:000087a0       ??_C@_15HPJPHDM@?$AAb?$AAe@ 004737a0     libucrt:lcidtoname_downlevel.obj
 0002:000087a8       ??_C@_15LCHLGJII@?$AAs?$AAl@ 004737a8     libucrt:lcidtoname_downlevel.obj
 0002:000087b0       ??_C@_15PCFJPHHO@?$AAe?$AAt@ 004737b0     libucrt:lcidtoname_downlevel.obj
 0002:000087b8       ??_C@_15HPFPGODN@?$AAl?$AAv@ 004737b8     libucrt:lcidtoname_downlevel.obj
 0002:000087c0       ??_C@_15NFFGKGLG@?$AAl?$AAt@ 004737c0     libucrt:lcidtoname_downlevel.obj
 0002:000087c8       ??_C@_15BDAKCCHN@?$AAf?$AAa@ 004737c8     libucrt:lcidtoname_downlevel.obj
 0002:000087d0       ??_C@_15NFGIAIAJ@?$AAv?$AAi@ 004737d0     libucrt:lcidtoname_downlevel.obj
 0002:000087d8       ??_C@_15LMKNDMHN@?$AAh?$AAy@ 004737d8     libucrt:lcidtoname_downlevel.obj
 0002:000087e0       ??_C@_15IJBHMCFL@?$AAa?$AAz@ 004737e0     libucrt:lcidtoname_downlevel.obj
 0002:000087e8       ??_C@_15EKOFJABL@?$AAe?$AAu@ 004737e8     libucrt:lcidtoname_downlevel.obj
 0002:000087f0       ??_C@_15BGHADCNK@?$AAm?$AAk@ 004737f0     libucrt:lcidtoname_downlevel.obj
 0002:000087f8       ??_C@_15JDNICKHM@?$AAa?$AAf@ 004737f8     libucrt:lcidtoname_downlevel.obj
 0002:00008800       ??_C@_15KPJEDBKD@?$AAk?$AAa@ 00473800     libucrt:lcidtoname_downlevel.obj
 0002:00008808       ??_C@_15PDNFFFEO@?$AAf?$AAo@ 00473808     libucrt:lcidtoname_downlevel.obj
 0002:00008810       ??_C@_15OMLEGLOC@?$AAh?$AAi@ 00473810     libucrt:lcidtoname_downlevel.obj
 0002:00008818       ??_C@_15IDNNENKK@?$AAm?$AAs@ 00473818     libucrt:lcidtoname_downlevel.obj
 0002:00008820       ??_C@_15MACJNBMH@?$AAk?$AAk@ 00473820     libucrt:lcidtoname_downlevel.obj
 0002:00008828       ??_C@_15DKDJEOND@?$AAk?$AAy@ 00473828     libucrt:lcidtoname_downlevel.obj
 0002:00008830       ??_C@_15DFGDLJBG@?$AAs?$AAw@ 00473830     libucrt:lcidtoname_downlevel.obj
 0002:00008838       ??_C@_15BBFAICNG@?$AAu?$AAz@ 00473838     libucrt:lcidtoname_downlevel.obj
 0002:00008840       ??_C@_15DKNDCGEA@?$AAt?$AAt@ 00473840     libucrt:lcidtoname_downlevel.obj
 0002:00008848       ??_C@_15MGIFMDPL@?$AAp?$AAa@ 00473848     libucrt:lcidtoname_downlevel.obj
 0002:00008850       ??_C@_15HCNDBBA@?$AAg?$AAu@ 00473850     libucrt:lcidtoname_downlevel.obj
 0002:00008858       ??_C@_15FNBEIBON@?$AAt?$AAa@ 00473858     libucrt:lcidtoname_downlevel.obj
 0002:00008860       ??_C@_15NCHGBGLK@?$AAt?$AAe@ 00473860     libucrt:lcidtoname_downlevel.obj
 0002:00008868       ??_C@_15PHPHCBPF@?$AAk?$AAn@ 00473868     libucrt:lcidtoname_downlevel.obj
 0002:00008870       ??_C@_15DLGBCKMP@?$AAm?$AAr@ 00473870     libucrt:lcidtoname_downlevel.obj
 0002:00008878       ??_C@_15EABBLBFF@?$AAs?$AAa@ 00473878     libucrt:lcidtoname_downlevel.obj
 0002:00008880       ??_C@_15CBKOMCOI@?$AAm?$AAn@ 00473880     libucrt:lcidtoname_downlevel.obj
 0002:00008888       ??_C@_15CKDMCJAF@?$AAg?$AAl@ 00473888     libucrt:lcidtoname_downlevel.obj
 0002:00008890       ??_C@_17CNJFBPG@?$AAk?$AAo?$AAk@ 00473890     libucrt:lcidtoname_downlevel.obj
 0002:00008898       ??_C@_17FFBJICPL@?$AAs?$AAy?$AAr@ 00473898     libucrt:lcidtoname_downlevel.obj
 0002:000088a0       ??_C@_17KPNDCPAF@?$AAd?$AAi?$AAv@ 004738a0     libucrt:lcidtoname_downlevel.obj
 0002:000088a8       ??_C@_1M@OKAHONE@?$AAa?$AAr?$AA?9?$AAS?$AAA@ 004738a8     libucrt:lcidtoname_downlevel.obj
 0002:000088b4       ??_C@_1M@FFFIGIGK@?$AAb?$AAg?$AA?9?$AAB?$AAG@ 004738b4     libucrt:lcidtoname_downlevel.obj
 0002:000088c0       ??_C@_1M@BJNKEDC@?$AAc?$AAa?$AA?9?$AAE?$AAS@ 004738c0     libucrt:lcidtoname_downlevel.obj
 0002:000088cc       ??_C@_1M@IJJHFJHA@?$AAc?$AAs?$AA?9?$AAC?$AAZ@ 004738cc     libucrt:lcidtoname_downlevel.obj
 0002:000088d8       ??_C@_1M@CLPEOBGI@?$AAd?$AAa?$AA?9?$AAD?$AAK@ 004738d8     libucrt:lcidtoname_downlevel.obj
 0002:000088e4       ??_C@_1M@MCMADGCB@?$AAd?$AAe?$AA?9?$AAD?$AAE@ 004738e4     libucrt:lcidtoname_downlevel.obj
 0002:000088f0       ??_C@_1M@OOCKEMAM@?$AAe?$AAl?$AA?9?$AAG?$AAR@ 004738f0     libucrt:lcidtoname_downlevel.obj
 0002:000088fc       ??_C@_1M@DDNJFGID@?$AAf?$AAi?$AA?9?$AAF?$AAI@ 004738fc     libucrt:lcidtoname_downlevel.obj
 0002:00008908       ??_C@_1M@GLIPPMAC@?$AAf?$AAr?$AA?9?$AAF?$AAR@ 00473908     libucrt:lcidtoname_downlevel.obj
 0002:00008914       ??_C@_1M@GFMCHPE@?$AAh?$AAe?$AA?9?$AAI?$AAL@ 00473914     libucrt:lcidtoname_downlevel.obj
 0002:00008920       ??_C@_1M@MHLPGNKM@?$AAh?$AAu?$AA?9?$AAH?$AAU@ 00473920     libucrt:lcidtoname_downlevel.obj
 0002:0000892c       ??_C@_1M@LPDDNNPN@?$AAi?$AAs?$AA?9?$AAI?$AAS@ 0047392c     libucrt:lcidtoname_downlevel.obj
 0002:00008938       ??_C@_1M@MADIPODN@?$AAi?$AAt?$AA?9?$AAI?$AAT@ 00473938     libucrt:lcidtoname_downlevel.obj
 0002:00008944       ??_C@_1M@IHBJJGG@?$AAn?$AAl?$AA?9?$AAN?$AAL@ 00473944     libucrt:lcidtoname_downlevel.obj
 0002:00008950       ??_C@_1M@EANAGDL@?$AAn?$AAb?$AA?9?$AAN?$AAO@ 00473950     libucrt:lcidtoname_downlevel.obj
 0002:0000895c       ??_C@_1M@NEIEMEGP@?$AAp?$AAl?$AA?9?$AAP?$AAL@ 0047395c     libucrt:lcidtoname_downlevel.obj
 0002:00008968       ??_C@_1M@BOCFIGEP@?$AAp?$AAt?$AA?9?$AAB?$AAR@ 00473968     libucrt:lcidtoname_downlevel.obj
 0002:00008974       ??_C@_1M@IMPFOPBG@?$AAr?$AAo?$AA?9?$AAR?$AAO@ 00473974     libucrt:lcidtoname_downlevel.obj
 0002:00008980       ??_C@_1M@IDNNEJMM@?$AAr?$AAu?$AA?9?$AAR?$AAU@ 00473980     libucrt:lcidtoname_downlevel.obj
 0002:0000898c       ??_C@_1M@LILEEOGM@?$AAh?$AAr?$AA?9?$AAH?$AAR@ 0047398c     libucrt:lcidtoname_downlevel.obj
 0002:00008998       ??_C@_1M@FKIFEHPB@?$AAs?$AAk?$AA?9?$AAS?$AAK@ 00473998     libucrt:lcidtoname_downlevel.obj
 0002:000089a4       ??_C@_1M@LJMAMNPJ@?$AAs?$AAq?$AA?9?$AAA?$AAL@ 004739a4     libucrt:lcidtoname_downlevel.obj
 0002:000089b0       ??_C@_1M@GIAKDKJK@?$AAs?$AAv?$AA?9?$AAS?$AAE@ 004739b0     libucrt:lcidtoname_downlevel.obj
 0002:000089bc       ??_C@_1M@MKJKIKCL@?$AAt?$AAh?$AA?9?$AAT?$AAH@ 004739bc     libucrt:lcidtoname_downlevel.obj
 0002:000089c8       ??_C@_1M@MFLCCMPB@?$AAt?$AAr?$AA?9?$AAT?$AAR@ 004739c8     libucrt:lcidtoname_downlevel.obj
 0002:000089d4       ??_C@_1M@OIJHDKJN@?$AAu?$AAr?$AA?9?$AAP?$AAK@ 004739d4     libucrt:lcidtoname_downlevel.obj
 0002:000089e0       ??_C@_1M@LHIPCIEK@?$AAi?$AAd?$AA?9?$AAI?$AAD@ 004739e0     libucrt:lcidtoname_downlevel.obj
 0002:000089ec       ??_C@_1M@MFMOBGI@?$AAu?$AAk?$AA?9?$AAU?$AAA@ 004739ec     libucrt:lcidtoname_downlevel.obj
 0002:000089f8       ??_C@_1M@OBGLJIPL@?$AAb?$AAe?$AA?9?$AAB?$AAY@ 004739f8     libucrt:lcidtoname_downlevel.obj
 0002:00008a04       ??_C@_1M@BCFAJEAD@?$AAs?$AAl?$AA?9?$AAS?$AAI@ 00473a04     libucrt:lcidtoname_downlevel.obj
 0002:00008a10       ??_C@_1M@FKFFEDDN@?$AAe?$AAt?$AA?9?$AAE?$AAE@ 00473a10     libucrt:lcidtoname_downlevel.obj
 0002:00008a1c       ??_C@_1M@KGKKAACI@?$AAl?$AAv?$AA?9?$AAL?$AAV@ 00473a1c     libucrt:lcidtoname_downlevel.obj
 0002:00008a28       ??_C@_1M@IFGBIJO@?$AAl?$AAt?$AA?9?$AAL?$AAT@ 00473a28     libucrt:lcidtoname_downlevel.obj
 0002:00008a34       ??_C@_1M@FGEAHEDM@?$AAf?$AAa?$AA?9?$AAI?$AAR@ 00473a34     libucrt:lcidtoname_downlevel.obj
 0002:00008a40       ??_C@_1M@KBMAIBFN@?$AAv?$AAi?$AA?9?$AAV?$AAN@ 00473a40     libucrt:lcidtoname_downlevel.obj
 0002:00008a4c       ??_C@_1M@GPCBKDJK@?$AAh?$AAy?$AA?9?$AAA?$AAM@ 00473a4c     libucrt:lcidtoname_downlevel.obj
 0002:00008a58       ??_C@_1BG@BECMDDJB@?$AAa?$AAz?$AA?9?$AAA?$AAZ?$AA?9?$AAL?$AAa?$AAt?$AAn@ 00473a58     libucrt:lcidtoname_downlevel.obj
 0002:00008a70       ??_C@_1M@MAOFCAEA@?$AAe?$AAu?$AA?9?$AAE?$AAS@ 00473a70     libucrt:lcidtoname_downlevel.obj
 0002:00008a7c       ??_C@_1M@IGHABKPI@?$AAm?$AAk?$AA?9?$AAM?$AAK@ 00473a7c     libucrt:lcidtoname_downlevel.obj
 0002:00008a88       ??_C@_1M@IAIGNEJG@?$AAt?$AAn?$AA?9?$AAZ?$AAA@ 00473a88     libucrt:lcidtoname_downlevel.obj
 0002:00008a94       ??_C@_1M@IIJCOJFA@?$AAx?$AAh?$AA?9?$AAZ?$AAA@ 00473a94     libucrt:lcidtoname_downlevel.obj
 0002:00008aa0       ??_C@_1M@LGPJHNJH@?$AAz?$AAu?$AA?9?$AAZ?$AAA@ 00473aa0     libucrt:lcidtoname_downlevel.obj
 0002:00008aac       ??_C@_1M@HOKAOIO@?$AAa?$AAf?$AA?9?$AAZ?$AAA@ 00473aac     libucrt:lcidtoname_downlevel.obj
 0002:00008ab8       ??_C@_1M@DPCLHLIE@?$AAk?$AAa?$AA?9?$AAG?$AAE@ 00473ab8     libucrt:lcidtoname_downlevel.obj
 0002:00008ac4       ??_C@_1M@BLKMHJBI@?$AAf?$AAo?$AA?9?$AAF?$AAO@ 00473ac4     libucrt:lcidtoname_downlevel.obj
 0002:00008ad0       ??_C@_1M@LGGJAPPB@?$AAh?$AAi?$AA?9?$AAI?$AAN@ 00473ad0     libucrt:lcidtoname_downlevel.obj
 0002:00008adc       ??_C@_1M@FIKPIHFE@?$AAm?$AAt?$AA?9?$AAM?$AAT@ 00473adc     libucrt:lcidtoname_downlevel.obj
 0002:00008ae8       ??_C@_1M@HEGGPBFA@?$AAs?$AAe?$AA?9?$AAN?$AAO@ 00473ae8     libucrt:lcidtoname_downlevel.obj
 0002:00008af4       ??_C@_1M@EIBJEEPA@?$AAm?$AAs?$AA?9?$AAM?$AAY@ 00473af4     libucrt:lcidtoname_downlevel.obj
 0002:00008b00       ??_C@_1M@FHLBGMPP@?$AAk?$AAk?$AA?9?$AAK?$AAZ@ 00473b00     libucrt:lcidtoname_downlevel.obj
 0002:00008b0c       ??_C@_1M@NGJJLCGI@?$AAk?$AAy?$AA?9?$AAK?$AAG@ 00473b0c     libucrt:lcidtoname_downlevel.obj
 0002:00008b18       ??_C@_1M@GIENNBFC@?$AAs?$AAw?$AA?9?$AAK?$AAE@ 00473b18     libucrt:lcidtoname_downlevel.obj
 0002:00008b24       ??_C@_1BG@NDGMJIMJ@?$AAu?$AAz?$AA?9?$AAU?$AAZ?$AA?9?$AAL?$AAa?$AAt?$AAn@ 00473b24     libucrt:lcidtoname_downlevel.obj
 0002:00008b3c       ??_C@_1M@IDCCIHBC@?$AAt?$AAt?$AA?9?$AAR?$AAU@ 00473b3c     libucrt:lcidtoname_downlevel.obj
 0002:00008b48       ??_C@_1M@LOICPMOJ@?$AAb?$AAn?$AA?9?$AAI?$AAN@ 00473b48     libucrt:lcidtoname_downlevel.obj
 0002:00008b54       ??_C@_1M@KPKKNEAH@?$AAp?$AAa?$AA?9?$AAI?$AAN@ 00473b54     libucrt:lcidtoname_downlevel.obj
 0002:00008b60       ??_C@_1M@PJGPPBOG@?$AAg?$AAu?$AA?9?$AAI?$AAN@ 00473b60     libucrt:lcidtoname_downlevel.obj
 0002:00008b6c       ??_C@_1M@KMKMOPHI@?$AAt?$AAa?$AA?9?$AAI?$AAN@ 00473b6c     libucrt:lcidtoname_downlevel.obj
 0002:00008b78       ??_C@_1M@KFEHEPAC@?$AAt?$AAe?$AA?9?$AAI?$AAN@ 00473b78     libucrt:lcidtoname_downlevel.obj
 0002:00008b84       ??_C@_1M@CDCLMGHI@?$AAk?$AAn?$AA?9?$AAI?$AAN@ 00473b84     libucrt:lcidtoname_downlevel.obj
 0002:00008b90       ??_C@_1M@MIODLDKF@?$AAm?$AAl?$AA?9?$AAI?$AAN@ 00473b90     libucrt:lcidtoname_downlevel.obj
 0002:00008b9c       ??_C@_1M@PBIEACPO@?$AAm?$AAr?$AA?9?$AAI?$AAN@ 00473b9c     libucrt:lcidtoname_downlevel.obj
 0002:00008ba8       ??_C@_1M@NIDEAGPH@?$AAs?$AAa?$AA?9?$AAI?$AAN@ 00473ba8     libucrt:lcidtoname_downlevel.obj
 0002:00008bb4       ??_C@_1M@FHIHCBIO@?$AAm?$AAn?$AA?9?$AAM?$AAN@ 00473bb4     libucrt:lcidtoname_downlevel.obj
 0002:00008bc0       ??_C@_1M@JAIJPENP@?$AAc?$AAy?$AA?9?$AAG?$AAB@ 00473bc0     libucrt:lcidtoname_downlevel.obj
 0002:00008bcc       ??_C@_1M@PHGFBEPN@?$AAg?$AAl?$AA?9?$AAE?$AAS@ 00473bcc     libucrt:lcidtoname_downlevel.obj
 0002:00008bd8       ??_C@_1O@KPIPDNCP@?$AAk?$AAo?$AAk?$AA?9?$AAI?$AAN@ 00473bd8     libucrt:lcidtoname_downlevel.obj
 0002:00008be8       ??_C@_1O@KNHJLDJA@?$AAs?$AAy?$AAr?$AA?9?$AAS?$AAY@ 00473be8     libucrt:lcidtoname_downlevel.obj
 0002:00008bf8       ??_C@_1O@MKEKBLAH@?$AAd?$AAi?$AAv?$AA?9?$AAM?$AAV@ 00473bf8     libucrt:lcidtoname_downlevel.obj
 0002:00008c08       ??_C@_1O@OHDCKDDF@?$AAq?$AAu?$AAz?$AA?9?$AAB?$AAO@ 00473c08     libucrt:lcidtoname_downlevel.obj
 0002:00008c18       ??_C@_1M@LEPJNLFD@?$AAn?$AAs?$AA?9?$AAZ?$AAA@ 00473c18     libucrt:lcidtoname_downlevel.obj
 0002:00008c24       ??_C@_1M@OMLEIIJB@?$AAm?$AAi?$AA?9?$AAN?$AAZ@ 00473c24     libucrt:lcidtoname_downlevel.obj
 0002:00008c30       ??_C@_1M@PMPEAILG@?$AAa?$AAr?$AA?9?$AAI?$AAQ@ 00473c30     libucrt:lcidtoname_downlevel.obj
 0002:00008c3c       ??_C@_1M@CNKPNOEE@?$AAd?$AAe?$AA?9?$AAC?$AAH@ 00473c3c     libucrt:lcidtoname_downlevel.obj
 0002:00008c48       ??_C@_1M@LKMGMLKO@?$AAe?$AAn?$AA?9?$AAG?$AAB@ 00473c48     libucrt:lcidtoname_downlevel.obj
 0002:00008c54       ??_C@_1M@PGKJFFGL@?$AAe?$AAs?$AA?9?$AAM?$AAX@ 00473c54     libucrt:lcidtoname_downlevel.obj
 0002:00008c60       ??_C@_1M@DNNANBDC@?$AAf?$AAr?$AA?9?$AAB?$AAE@ 00473c60     libucrt:lcidtoname_downlevel.obj
 0002:00008c6c       ??_C@_1M@HLGMDFHM@?$AAi?$AAt?$AA?9?$AAC?$AAH@ 00473c6c     libucrt:lcidtoname_downlevel.obj
 0002:00008c78       ??_C@_1M@CLLBGJH@?$AAn?$AAl?$AA?9?$AAB?$AAE@ 00473c78     libucrt:lcidtoname_downlevel.obj
 0002:00008c84       ??_C@_1M@BODBOGLF@?$AAn?$AAn?$AA?9?$AAN?$AAO@ 00473c84     libucrt:lcidtoname_downlevel.obj
 0002:00008c90       ??_C@_1M@HFFAHKAD@?$AAp?$AAt?$AA?9?$AAP?$AAT@ 00473c90     libucrt:lcidtoname_downlevel.obj
 0002:00008c9c       ??_C@_1BG@LNOAKHIE@?$AAs?$AAr?$AA?9?$AAS?$AAP?$AA?9?$AAL?$AAa?$AAt?$AAn@ 00473c9c     libucrt:lcidtoname_downlevel.obj
 0002:00008cb4       ??_C@_1M@HBMHBGAK@?$AAs?$AAv?$AA?9?$AAF?$AAI@ 00473cb4     libucrt:lcidtoname_downlevel.obj
 0002:00008cc0       ??_C@_1BG@DGCJGJBE@?$AAa?$AAz?$AA?9?$AAA?$AAZ?$AA?9?$AAC?$AAy?$AAr?$AAl@ 00473cc0     libucrt:lcidtoname_downlevel.obj
 0002:00008cd8       ??_C@_1M@KEJDAAHB@?$AAs?$AAe?$AA?9?$AAS?$AAE@ 00473cd8     libucrt:lcidtoname_downlevel.obj
 0002:00008ce4       ??_C@_1M@HEIBJJAD@?$AAm?$AAs?$AA?9?$AAB?$AAN@ 00473ce4     libucrt:lcidtoname_downlevel.obj
 0002:00008cf0       ??_C@_1BG@PBGJMCEM@?$AAu?$AAz?$AA?9?$AAU?$AAZ?$AA?9?$AAC?$AAy?$AAr?$AAl@ 00473cf0     libucrt:lcidtoname_downlevel.obj
 0002:00008d08       ??_C@_1O@LAOBCMDF@?$AAq?$AAu?$AAz?$AA?9?$AAE?$AAC@ 00473d08     libucrt:lcidtoname_downlevel.obj
 0002:00008d18       ??_C@_1M@POEEMAIO@?$AAa?$AAr?$AA?9?$AAE?$AAG@ 00473d18     libucrt:lcidtoname_downlevel.obj
 0002:00008d24       ??_C@_1M@EFAKDEDL@?$AAz?$AAh?$AA?9?$AAH?$AAK@ 00473d24     libucrt:lcidtoname_downlevel.obj
 0002:00008d30       ??_C@_1M@HKKIJHGI@?$AAd?$AAe?$AA?9?$AAA?$AAT@ 00473d30     libucrt:lcidtoname_downlevel.obj
 0002:00008d3c       ??_C@_1M@KBFBEHJF@?$AAe?$AAn?$AA?9?$AAA?$AAU@ 00473d3c     libucrt:lcidtoname_downlevel.obj
 0002:00008d48       ??_C@_1M@MNPLFAAH@?$AAe?$AAs?$AA?9?$AAE?$AAS@ 00473d48     libucrt:lcidtoname_downlevel.obj
 0002:00008d54       ??_C@_1M@HJOOJFMA@?$AAf?$AAr?$AA?9?$AAC?$AAA@ 00473d54     libucrt:lcidtoname_downlevel.obj
 0002:00008d60       ??_C@_1BG@JPOFPNAB@?$AAs?$AAr?$AA?9?$AAS?$AAP?$AA?9?$AAC?$AAy?$AAr?$AAl@ 00473d60     libucrt:lcidtoname_downlevel.obj
 0002:00008d78       ??_C@_1M@LNFOCMOB@?$AAs?$AAe?$AA?9?$AAF?$AAI@ 00473d78     libucrt:lcidtoname_downlevel.obj
 0002:00008d84       ??_C@_1O@MGJBOAMB@?$AAq?$AAu?$AAz?$AA?9?$AAP?$AAE@ 00473d84     libucrt:lcidtoname_downlevel.obj
 0002:00008d94       ??_C@_1M@GJINLBOK@?$AAa?$AAr?$AA?9?$AAL?$AAY@ 00473d94     libucrt:lcidtoname_downlevel.obj
 0002:00008da0       ??_C@_1M@GGMNHJNL@?$AAz?$AAh?$AA?9?$AAS?$AAG@ 00473da0     libucrt:lcidtoname_downlevel.obj
 0002:00008dac       ??_C@_1M@HOIKODND@?$AAd?$AAe?$AA?9?$AAL?$AAU@ 00473dac     libucrt:lcidtoname_downlevel.obj
 0002:00008db8       ??_C@_1M@DDOCCGFG@?$AAe?$AAn?$AA?9?$AAC?$AAA@ 00473db8     libucrt:lcidtoname_downlevel.obj
 0002:00008dc4       ??_C@_1M@BNOEMJLF@?$AAe?$AAs?$AA?9?$AAG?$AAT@ 00473dc4     libucrt:lcidtoname_downlevel.obj
 0002:00008dd0       ??_C@_1M@EOGNKEK@?$AAf?$AAr?$AA?9?$AAC?$AAH@ 00473dd0     libucrt:lcidtoname_downlevel.obj
 0002:00008ddc       ??_C@_1M@FLIDJFHL@?$AAh?$AAr?$AA?9?$AAB?$AAA@ 00473ddc     libucrt:lcidtoname_downlevel.obj
 0002:00008de8       ??_C@_1O@FMCELNAJ@?$AAs?$AAm?$AAj?$AA?9?$AAN?$AAO@ 00473de8     libucrt:lcidtoname_downlevel.obj
 0002:00008df8       ??_C@_1M@JHGLJMGJ@?$AAa?$AAr?$AA?9?$AAD?$AAZ@ 00473df8     libucrt:lcidtoname_downlevel.obj
 0002:00008e04       ??_C@_1M@JKKFDCNP@?$AAz?$AAh?$AA?9?$AAM?$AAO@ 00473e04     libucrt:lcidtoname_downlevel.obj
 0002:00008e10       ??_C@_1M@GEEFALPE@?$AAd?$AAe?$AA?9?$AAL?$AAI@ 00473e10     libucrt:lcidtoname_downlevel.obj
 0002:00008e1c       ??_C@_1M@IGEOFBG@?$AAe?$AAn?$AA?9?$AAN?$AAZ@ 00473e1c     libucrt:lcidtoname_downlevel.obj
 0002:00008e28       ??_C@_1M@KDBONEHP@?$AAe?$AAs?$AA?9?$AAC?$AAR@ 00473e28     libucrt:lcidtoname_downlevel.obj
 0002:00008e34       ??_C@_1M@FHMDOHNN@?$AAf?$AAr?$AA?9?$AAL?$AAU@ 00473e34     libucrt:lcidtoname_downlevel.obj
 0002:00008e40       ??_C@_1BG@NFKKMAFG@?$AAb?$AAs?$AA?9?$AAB?$AAA?$AA?9?$AAL?$AAa?$AAt?$AAn@ 00473e40     libucrt:lcidtoname_downlevel.obj
 0002:00008e58       ??_C@_1O@IMNBEMCI@?$AAs?$AAm?$AAj?$AA?9?$AAS?$AAE@ 00473e58     libucrt:lcidtoname_downlevel.obj
 0002:00008e68       ??_C@_1M@DHHMBNDP@?$AAa?$AAr?$AA?9?$AAM?$AAA@ 00473e68     libucrt:lcidtoname_downlevel.obj
 0002:00008e74       ??_C@_1M@BNBLJCGH@?$AAe?$AAn?$AA?9?$AAI?$AAE@ 00473e74     libucrt:lcidtoname_downlevel.obj
 0002:00008e80       ??_C@_1M@GEPAFMDL@?$AAe?$AAs?$AA?9?$AAP?$AAA@ 00473e80     libucrt:lcidtoname_downlevel.obj
 0002:00008e8c       ??_C@_1M@OJONDMDL@?$AAf?$AAr?$AA?9?$AAM?$AAC@ 00473e8c     libucrt:lcidtoname_downlevel.obj
 0002:00008e98       ??_C@_1BG@OBCNFJB@?$AAs?$AAr?$AA?9?$AAB?$AAA?$AA?9?$AAL?$AAa?$AAt?$AAn@ 00473e98     libucrt:lcidtoname_downlevel.obj
 0002:00008eb0       ??_C@_1O@KEMEEGPO@?$AAs?$AAm?$AAa?$AA?9?$AAN?$AAO@ 00473eb0     libucrt:lcidtoname_downlevel.obj
 0002:00008ec0       ??_C@_1M@ELMGFODK@?$AAa?$AAr?$AA?9?$AAT?$AAN@ 00473ec0     libucrt:lcidtoname_downlevel.obj
 0002:00008ecc       ??_C@_1M@BHDLHFAF@?$AAe?$AAn?$AA?9?$AAZ?$AAA@ 00473ecc     libucrt:lcidtoname_downlevel.obj
 0002:00008ed8       ??_C@_1M@BMGIGLIF@?$AAe?$AAs?$AA?9?$AAD?$AAO@ 00473ed8     libucrt:lcidtoname_downlevel.obj
 0002:00008ee4       ??_C@_1BG@CMBHIPBE@?$AAs?$AAr?$AA?9?$AAB?$AAA?$AA?9?$AAC?$AAy?$AAr?$AAl@ 00473ee4     libucrt:lcidtoname_downlevel.obj
 0002:00008efc       ??_C@_1O@HEDBLHNP@?$AAs?$AAm?$AAa?$AA?9?$AAS?$AAE@ 00473efc     libucrt:lcidtoname_downlevel.obj
 0002:00008f0c       ??_C@_1M@DAGCADIM@?$AAa?$AAr?$AA?9?$AAO?$AAM@ 00473f0c     libucrt:lcidtoname_downlevel.obj
 0002:00008f18       ??_C@_1M@FODLMICG@?$AAe?$AAn?$AA?9?$AAJ?$AAM@ 00473f18     libucrt:lcidtoname_downlevel.obj
 0002:00008f24       ??_C@_1M@DNMLCIHB@?$AAe?$AAs?$AA?9?$AAV?$AAE@ 00473f24     libucrt:lcidtoname_downlevel.obj
 0002:00008f30       ??_C@_1O@EOKHMKJK@?$AAs?$AAm?$AAs?$AA?9?$AAF?$AAI@ 00473f30     libucrt:lcidtoname_downlevel.obj
 0002:00008f40       ??_C@_1M@CAFJMKOF@?$AAa?$AAr?$AA?9?$AAY?$AAE@ 00473f40     libucrt:lcidtoname_downlevel.obj
 0002:00008f4c       ??_C@_1M@CBFHIJLI@?$AAe?$AAn?$AA?9?$AAC?$AAB@ 00473f4c     libucrt:lcidtoname_downlevel.obj
 0002:00008f58       ??_C@_1M@BGNFLDN@?$AAe?$AAs?$AA?9?$AAC?$AAO@ 00473f58     libucrt:lcidtoname_downlevel.obj
 0002:00008f64       ??_C@_1O@JMPHMAMC@?$AAs?$AAm?$AAn?$AA?9?$AAF?$AAI@ 00473f64     libucrt:lcidtoname_downlevel.obj
 0002:00008f74       ??_C@_1M@JLANABKE@?$AAa?$AAr?$AA?9?$AAS?$AAY@ 00473f74     libucrt:lcidtoname_downlevel.obj
 0002:00008f80       ??_C@_1M@HPKGCFGN@?$AAe?$AAn?$AA?9?$AAB?$AAZ@ 00473f80     libucrt:lcidtoname_downlevel.obj
 0002:00008f8c       ??_C@_1M@OLJCMLGM@?$AAe?$AAs?$AA?9?$AAP?$AAE@ 00473f8c     libucrt:lcidtoname_downlevel.obj
 0002:00008f98       ??_C@_1M@MKKGFKLE@?$AAa?$AAr?$AA?9?$AAJ?$AAO@ 00473f98     libucrt:lcidtoname_downlevel.obj
 0002:00008fa4       ??_C@_1M@EKPGLDNI@?$AAe?$AAn?$AA?9?$AAT?$AAT@ 00473fa4     libucrt:lcidtoname_downlevel.obj
 0002:00008fb0       ??_C@_1M@OONGHFHE@?$AAe?$AAs?$AA?9?$AAA?$AAR@ 00473fb0     libucrt:lcidtoname_downlevel.obj
 0002:00008fbc       ??_C@_1M@OOJFGBHE@?$AAa?$AAr?$AA?9?$AAL?$AAB@ 00473fbc     libucrt:lcidtoname_downlevel.obj
 0002:00008fc8       ??_C@_1M@GCEJHNEG@?$AAe?$AAn?$AA?9?$AAZ?$AAW@ 00473fc8     libucrt:lcidtoname_downlevel.obj
 0002:00008fd4       ??_C@_1M@JNOCAHJI@?$AAe?$AAs?$AA?9?$AAE?$AAC@ 00473fd4     libucrt:lcidtoname_downlevel.obj
 0002:00008fe0       ??_C@_1M@JEFHPGGB@?$AAa?$AAr?$AA?9?$AAK?$AAW@ 00473fe0     libucrt:lcidtoname_downlevel.obj
 0002:00008fec       ??_C@_1M@MLKIBJOJ@?$AAe?$AAn?$AA?9?$AAP?$AAH@ 00473fec     libucrt:lcidtoname_downlevel.obj
 0002:00008ff8       ??_C@_1M@BDNIPEND@?$AAe?$AAs?$AA?9?$AAC?$AAL@ 00473ff8     libucrt:lcidtoname_downlevel.obj
 0002:00009004       ??_C@_1M@MPNMEKBD@?$AAa?$AAr?$AA?9?$AAA?$AAE@ 00474004     libucrt:lcidtoname_downlevel.obj
 0002:00009010       ??_C@_1M@KBJALCPI@?$AAe?$AAs?$AA?9?$AAU?$AAY@ 00474010     libucrt:lcidtoname_downlevel.obj
 0002:0000901c       ??_C@_1M@LLCCOAGA@?$AAa?$AAr?$AA?9?$AAB?$AAH@ 0047401c     libucrt:lcidtoname_downlevel.obj
 0002:00009028       ??_C@_1M@PBFNCDEL@?$AAe?$AAs?$AA?9?$AAP?$AAY@ 00474028     libucrt:lcidtoname_downlevel.obj
 0002:00009034       ??_C@_1M@EDGINPNP@?$AAa?$AAr?$AA?9?$AAQ?$AAA@ 00474034     libucrt:lcidtoname_downlevel.obj
 0002:00009040       ??_C@_1M@MKDBIIJI@?$AAe?$AAs?$AA?9?$AAB?$AAO@ 00474040     libucrt:lcidtoname_downlevel.obj
 0002:0000904c       ??_C@_1M@CPKKEBLD@?$AAe?$AAs?$AA?9?$AAS?$AAV@ 0047404c     libucrt:lcidtoname_downlevel.obj
 0002:00009058       ??_C@_1M@NDBGMMJL@?$AAe?$AAs?$AA?9?$AAH?$AAN@ 00474058     libucrt:lcidtoname_downlevel.obj
 0002:00009064       ??_C@_1M@JIJIBHDP@?$AAe?$AAs?$AA?9?$AAN?$AAI@ 00474064     libucrt:lcidtoname_downlevel.obj
 0002:00009070       ??_C@_1M@CGFMKEEK@?$AAe?$AAs?$AA?9?$AAP?$AAR@ 00474070     libucrt:lcidtoname_downlevel.obj
 0002:0000907c       ??_C@_1O@ICJHKIIK@?$AAz?$AAh?$AA?9?$AAC?$AAH?$AAT@ 0047407c     libucrt:lcidtoname_downlevel.obj
 0002:0000908c       ??_C@_15CLNEJCE@?$AAs?$AAr@ 0047408c     libucrt:lcidtoname_downlevel.obj
 0002:000097b8       ??_C@_1M@KAHEKEIG@?$AAa?$AAf?$AA?9?$AAz?$AAa@ 004747b8     libucrt:lcidtoname_downlevel.obj
 0002:000097c4       ??_C@_1M@GIECOABL@?$AAa?$AAr?$AA?9?$AAa?$AAe@ 004747c4     libucrt:lcidtoname_downlevel.obj
 0002:000097d0       ??_C@_1M@BMLMEKGI@?$AAa?$AAr?$AA?9?$AAb?$AAh@ 004747d0     libucrt:lcidtoname_downlevel.obj
 0002:000097dc       ??_C@_1M@DAPFDGGB@?$AAa?$AAr?$AA?9?$AAd?$AAz@ 004747dc     libucrt:lcidtoname_downlevel.obj
 0002:000097e8       ??_C@_1M@FJNKGKIG@?$AAa?$AAr?$AA?9?$AAe?$AAg@ 004747e8     libucrt:lcidtoname_downlevel.obj
 0002:000097f4       ??_C@_1M@FLGKKCLO@?$AAa?$AAr?$AA?9?$AAi?$AAq@ 004747f4     libucrt:lcidtoname_downlevel.obj
 0002:00009800       ??_C@_1M@GNDIPALM@?$AAa?$AAr?$AA?9?$AAj?$AAo@ 00474800     libucrt:lcidtoname_downlevel.obj
 0002:0000980c       ??_C@_1M@DDMJFMGJ@?$AAa?$AAr?$AA?9?$AAk?$AAw@ 0047480c     libucrt:lcidtoname_downlevel.obj
 0002:00009818       ??_C@_1M@EJALMLHM@?$AAa?$AAr?$AA?9?$AAl?$AAb@ 00474818     libucrt:lcidtoname_downlevel.obj
 0002:00009824       ??_C@_1M@MOBDBLOC@?$AAa?$AAr?$AA?9?$AAl?$AAy@ 00474824     libucrt:lcidtoname_downlevel.obj
 0002:00009830       ??_C@_1M@JAOCLHDH@?$AAa?$AAr?$AA?9?$AAm?$AAa@ 00474830     libucrt:lcidtoname_downlevel.obj
 0002:0000983c       ??_C@_1M@JHPMKJIE@?$AAa?$AAr?$AA?9?$AAo?$AAm@ 0047483c     libucrt:lcidtoname_downlevel.obj
 0002:00009848       ??_C@_1M@OEPGHFNH@?$AAa?$AAr?$AA?9?$AAq?$AAa@ 00474848     libucrt:lcidtoname_downlevel.obj
 0002:00009854       ??_C@_1M@KJDONENM@?$AAa?$AAr?$AA?9?$AAs?$AAa@ 00474854     libucrt:lcidtoname_downlevel.obj
 0002:00009860       ??_C@_1M@DMJDKLKM@?$AAa?$AAr?$AA?9?$AAs?$AAy@ 00474860     libucrt:lcidtoname_downlevel.obj
 0002:0000986c       ??_C@_1M@OMFIPEDC@?$AAa?$AAr?$AA?9?$AAt?$AAn@ 0047486c     libucrt:lcidtoname_downlevel.obj
 0002:00009878       ??_C@_1M@IHMHGAON@?$AAa?$AAr?$AA?9?$AAy?$AAe@ 00474878     libucrt:lcidtoname_downlevel.obj
 0002:00009884       ??_C@_1BG@KDCPGJGB@?$AAa?$AAz?$AA?9?$AAa?$AAz?$AA?9?$AAc?$AAy?$AAr?$AAl@ 00474884     libucrt:lcidtoname_downlevel.obj
 0002:0000989c       ??_C@_1BG@IBCKDDOE@?$AAa?$AAz?$AA?9?$AAa?$AAz?$AA?9?$AAl?$AAa?$AAt?$AAn@ 0047489c     libucrt:lcidtoname_downlevel.obj
 0002:000098b4       ??_C@_1M@EGPFDCPD@?$AAb?$AAe?$AA?9?$AAb?$AAy@ 004748b4     libucrt:lcidtoname_downlevel.obj
 0002:000098c0       ??_C@_1M@PCMGMCGC@?$AAb?$AAg?$AA?9?$AAb?$AAg@ 004748c0     libucrt:lcidtoname_downlevel.obj
 0002:000098cc       ??_C@_1M@BJBMFGOB@?$AAb?$AAn?$AA?9?$AAi?$AAn@ 004748cc     libucrt:lcidtoname_downlevel.obj
 0002:000098d8       ??_C@_1BG@EAKMMACD@?$AAb?$AAs?$AA?9?$AAb?$AAa?$AA?9?$AAl?$AAa?$AAt?$AAn@ 004748d8     libucrt:lcidtoname_downlevel.obj
 0002:000098f0       ??_C@_1M@KGADAODK@?$AAc?$AAa?$AA?9?$AAe?$AAs@ 004748f0     libucrt:lcidtoname_downlevel.obj
 0002:000098fc       ??_C@_1M@COAJPDHI@?$AAc?$AAs?$AA?9?$AAc?$AAz@ 004748fc     libucrt:lcidtoname_downlevel.obj
 0002:00009908       ??_C@_1M@DHBHFONH@?$AAc?$AAy?$AA?9?$AAg?$AAb@ 00474908     libucrt:lcidtoname_downlevel.obj
 0002:00009914       ??_C@_1M@IMGKELGA@?$AAd?$AAa?$AA?9?$AAd?$AAk@ 00474914     libucrt:lcidtoname_downlevel.obj
 0002:00009920       ??_C@_1M@NNDGDNGA@?$AAd?$AAe?$AA?9?$AAa?$AAt@ 00474920     libucrt:lcidtoname_downlevel.obj
 0002:0000992c       ??_C@_1M@IKDBHEEM@?$AAd?$AAe?$AA?9?$AAc?$AAh@ 0047492c     libucrt:lcidtoname_downlevel.obj
 0002:00009938       ??_C@_1M@GFFOJMCJ@?$AAd?$AAe?$AA?9?$AAd?$AAe@ 00474938     libucrt:lcidtoname_downlevel.obj
 0002:00009944       ??_C@_1M@MDNLKBPM@?$AAd?$AAe?$AA?9?$AAl?$AAi@ 00474944     libucrt:lcidtoname_downlevel.obj
 0002:00009950       ??_C@_1M@NJBEEJNL@?$AAd?$AAe?$AA?9?$AAl?$AAu@ 00474950     libucrt:lcidtoname_downlevel.obj
 0002:0000995c       ??_C@_1O@GNNELBAP@?$AAd?$AAi?$AAv?$AA?9?$AAm?$AAv@ 0047495c     libucrt:lcidtoname_downlevel.obj
 0002:0000996c       ??_C@_1M@EJLEOGAE@?$AAe?$AAl?$AA?9?$AAg?$AAr@ 0047496c     libucrt:lcidtoname_downlevel.obj
 0002:00009978       ??_C@_1M@GMPONJN@?$AAe?$AAn?$AA?9?$AAa?$AAu@ 00474978     libucrt:lcidtoname_downlevel.obj
 0002:00009984       ??_C@_1M@NIDIIPGF@?$AAe?$AAn?$AA?9?$AAb?$AAz@ 00474984     libucrt:lcidtoname_downlevel.obj
 0002:00009990       ??_C@_1M@JEHMIMFO@?$AAe?$AAn?$AA?9?$AAc?$AAa@ 00474990     libucrt:lcidtoname_downlevel.obj
 0002:0000999c       ??_C@_1M@IGMJCDLA@?$AAe?$AAn?$AA?9?$AAc?$AAb@ 0047499c     libucrt:lcidtoname_downlevel.obj
 0002:000099a8       ??_C@_1M@BNFIGBKG@?$AAe?$AAn?$AA?9?$AAg?$AAb@ 004749a8     libucrt:lcidtoname_downlevel.obj
 0002:000099b4       ??_C@_1M@LKIFDIGP@?$AAe?$AAn?$AA?9?$AAi?$AAe@ 004749b4     libucrt:lcidtoname_downlevel.obj
 0002:000099c0       ??_C@_1M@PJKFGCCO@?$AAe?$AAn?$AA?9?$AAj?$AAm@ 004749c0     libucrt:lcidtoname_downlevel.obj
 0002:000099cc       ??_C@_1M@KPPKEPBO@?$AAe?$AAn?$AA?9?$AAn?$AAz@ 004749cc     libucrt:lcidtoname_downlevel.obj
 0002:000099d8       ??_C@_1M@GMDGLDOB@?$AAe?$AAn?$AA?9?$AAp?$AAh@ 004749d8     libucrt:lcidtoname_downlevel.obj
 0002:000099e4       ??_C@_1M@ONGIBJNA@?$AAe?$AAn?$AA?9?$AAt?$AAt@ 004749e4     libucrt:lcidtoname_downlevel.obj
 0002:000099f0       ??_C@_1M@LLODPCMM@?$AAe?$AAn?$AA?9?$AAu?$AAs@ 004749f0     libucrt:lcidtoname_downlevel.obj
 0002:000099fc       ??_C@_1M@LAKFNPAN@?$AAe?$AAn?$AA?9?$AAz?$AAa@ 004749fc     libucrt:lcidtoname_downlevel.obj
 0002:00009a08       ??_C@_1M@MFNHNHEO@?$AAe?$AAn?$AA?9?$AAz?$AAw@ 00474a08     libucrt:lcidtoname_downlevel.obj
 0002:00009a14       ??_C@_1M@EJEINPHM@?$AAe?$AAs?$AA?9?$AAa?$AAr@ 00474a14     libucrt:lcidtoname_downlevel.obj
 0002:00009a20       ??_C@_1M@GNKPCCJA@?$AAe?$AAs?$AA?9?$AAb?$AAo@ 00474a20     libucrt:lcidtoname_downlevel.obj
 0002:00009a2c       ??_C@_1M@LEEGFONL@?$AAe?$AAs?$AA?9?$AAc?$AAl@ 00474a2c     libucrt:lcidtoname_downlevel.obj
 0002:00009a38       ??_C@_1M@KGPDPBDF@?$AAe?$AAs?$AA?9?$AAc?$AAo@ 00474a38     libucrt:lcidtoname_downlevel.obj
 0002:00009a44       ??_C@_1M@EIAHOHH@?$AAe?$AAs?$AA?9?$AAc?$AAr@ 00474a44     libucrt:lcidtoname_downlevel.obj
 0002:00009a50       ??_C@_1M@LLPGMBIN@?$AAe?$AAs?$AA?9?$AAd?$AAo@ 00474a50     libucrt:lcidtoname_downlevel.obj
 0002:00009a5c       ??_C@_1M@DKHMKNJA@?$AAe?$AAs?$AA?9?$AAe?$AAc@ 00474a5c     libucrt:lcidtoname_downlevel.obj
 0002:00009a68       ??_C@_1M@GKGFPKAP@?$AAe?$AAs?$AA?9?$AAe?$AAs@ 00474a68     libucrt:lcidtoname_downlevel.obj
 0002:00009a74       ??_C@_1M@LKHKGDLN@?$AAe?$AAs?$AA?9?$AAg?$AAt@ 00474a74     libucrt:lcidtoname_downlevel.obj
 0002:00009a80       ??_C@_1M@HEIIGGJD@?$AAe?$AAs?$AA?9?$AAh?$AAn@ 00474a80     libucrt:lcidtoname_downlevel.obj
 0002:00009a8c       ??_C@_1M@FBDHPPGD@?$AAe?$AAs?$AA?9?$AAm?$AAx@ 00474a8c     libucrt:lcidtoname_downlevel.obj
 0002:00009a98       ??_C@_1M@DPAGLNDH@?$AAe?$AAs?$AA?9?$AAn?$AAi@ 00474a98     libucrt:lcidtoname_downlevel.obj
 0002:00009aa4       ??_C@_1M@MDGOPGDD@?$AAe?$AAs?$AA?9?$AAp?$AAa@ 00474aa4     libucrt:lcidtoname_downlevel.obj
 0002:00009ab0       ??_C@_1M@EMAMGBGE@?$AAe?$AAs?$AA?9?$AAp?$AAe@ 00474ab0     libucrt:lcidtoname_downlevel.obj
 0002:00009abc       ??_C@_1M@IBMCAOEC@?$AAe?$AAs?$AA?9?$AAp?$AAr@ 00474abc     libucrt:lcidtoname_downlevel.obj
 0002:00009ac8       ??_C@_1M@FGMDIJED@?$AAe?$AAs?$AA?9?$AAp?$AAy@ 00474ac8     libucrt:lcidtoname_downlevel.obj
 0002:00009ad4       ??_C@_1M@IIDEOLLL@?$AAe?$AAs?$AA?9?$AAs?$AAv@ 00474ad4     libucrt:lcidtoname_downlevel.obj
 0002:00009ae0       ??_C@_1M@GAOBIPA@?$AAe?$AAs?$AA?9?$AAu?$AAy@ 00474ae0     libucrt:lcidtoname_downlevel.obj
 0002:00009aec       ??_C@_1M@JKFFICHJ@?$AAe?$AAs?$AA?9?$AAv?$AAe@ 00474aec     libucrt:lcidtoname_downlevel.obj
 0002:00009af8       ??_C@_1M@PNMLOJDF@?$AAe?$AAt?$AA?9?$AAe?$AAe@ 00474af8     libucrt:lcidtoname_downlevel.obj
 0002:00009b04       ??_C@_1M@GHHLIKEI@?$AAe?$AAu?$AA?9?$AAe?$AAs@ 00474b04     libucrt:lcidtoname_downlevel.obj
 0002:00009b10       ??_C@_1M@PBNONODE@?$AAf?$AAa?$AA?9?$AAi?$AAr@ 00474b10     libucrt:lcidtoname_downlevel.obj
 0002:00009b1c       ??_C@_1M@JEEHPMIL@?$AAf?$AAi?$AA?9?$AAf?$AAi@ 00474b1c     libucrt:lcidtoname_downlevel.obj
 0002:00009b28       ??_C@_1M@LMDCNDBA@?$AAf?$AAo?$AA?9?$AAf?$AAo@ 00474b28     libucrt:lcidtoname_downlevel.obj
 0002:00009b34       ??_C@_1M@JKEOHLDK@?$AAf?$AAr?$AA?9?$AAb?$AAe@ 00474b34     libucrt:lcidtoname_downlevel.obj
 0002:00009b40       ??_C@_1M@NOHADPMI@?$AAf?$AAr?$AA?9?$AAc?$AAa@ 00474b40     libucrt:lcidtoname_downlevel.obj
 0002:00009b4c       ??_C@_1M@KDHIHAEC@?$AAf?$AAr?$AA?9?$AAc?$AAh@ 00474b4c     libucrt:lcidtoname_downlevel.obj
 0002:00009b58       ??_C@_1M@MMBBFGAK@?$AAf?$AAr?$AA?9?$AAf?$AAr@ 00474b58     libucrt:lcidtoname_downlevel.obj
 0002:00009b64       ??_C@_1M@PAFNENNF@?$AAf?$AAr?$AA?9?$AAl?$AAu@ 00474b64     libucrt:lcidtoname_downlevel.obj
 0002:00009b70       ??_C@_1M@EOHDJGDD@?$AAf?$AAr?$AA?9?$AAm?$AAc@ 00474b70     libucrt:lcidtoname_downlevel.obj
 0002:00009b7c       ??_C@_1M@FAPLLOPF@?$AAg?$AAl?$AA?9?$AAe?$AAs@ 00474b7c     libucrt:lcidtoname_downlevel.obj
 0002:00009b88       ??_C@_1M@FOPBFLOO@?$AAg?$AAu?$AA?9?$AAi?$AAn@ 00474b88     libucrt:lcidtoname_downlevel.obj
 0002:00009b94       ??_C@_1M@KBMCINPM@?$AAh?$AAe?$AA?9?$AAi?$AAl@ 00474b94     libucrt:lcidtoname_downlevel.obj
 0002:00009ba0       ??_C@_1M@BBPHKFPJ@?$AAh?$AAi?$AA?9?$AAi?$AAn@ 00474ba0     libucrt:lcidtoname_downlevel.obj
 0002:00009bac       ??_C@_1M@PMBNDPHD@?$AAh?$AAr?$AA?9?$AAb?$AAa@ 00474bac     libucrt:lcidtoname_downlevel.obj
 0002:00009bb8       ??_C@_1M@BPCKOEGE@?$AAh?$AAr?$AA?9?$AAh?$AAr@ 00474bb8     libucrt:lcidtoname_downlevel.obj
 0002:00009bc4       ??_C@_1M@GACBMHKE@?$AAh?$AAu?$AA?9?$AAh?$AAu@ 00474bc4     libucrt:lcidtoname_downlevel.obj
 0002:00009bd0       ??_C@_1M@MILPAJJC@?$AAh?$AAy?$AA?9?$AAa?$AAm@ 00474bd0     libucrt:lcidtoname_downlevel.obj
 0002:00009bdc       ??_C@_1M@BABBICEC@?$AAi?$AAd?$AA?9?$AAi?$AAd@ 00474bdc     libucrt:lcidtoname_downlevel.obj
 0002:00009be8       ??_C@_1M@BIKNHHPF@?$AAi?$AAs?$AA?9?$AAi?$AAs@ 00474be8     libucrt:lcidtoname_downlevel.obj
 0002:00009bf4       ??_C@_1M@NMPCJPHE@?$AAi?$AAt?$AA?9?$AAc?$AAh@ 00474bf4     libucrt:lcidtoname_downlevel.obj
 0002:00009c00       ??_C@_1M@GHKGFEDF@?$AAi?$AAt?$AA?9?$AAi?$AAt@ 00474c00     libucrt:lcidtoname_downlevel.obj
 0002:00009c0c       ??_C@_1M@NIEJCJJA@?$AAj?$AAa?$AA?9?$AAj?$AAp@ 00474c0c     libucrt:lcidtoname_downlevel.obj
 0002:00009c18       ??_C@_1M@JILFNBIM@?$AAk?$AAa?$AA?9?$AAg?$AAe@ 00474c18     libucrt:lcidtoname_downlevel.obj
 0002:00009c24       ??_C@_1M@PACPMGPH@?$AAk?$AAk?$AA?9?$AAk?$AAz@ 00474c24     libucrt:lcidtoname_downlevel.obj
 0002:00009c30       ??_C@_1M@IELFGMHA@?$AAk?$AAn?$AA?9?$AAi?$AAn@ 00474c30     libucrt:lcidtoname_downlevel.obj
 0002:00009c3c       ??_C@_1O@IBBJHCH@?$AAk?$AAo?$AAk?$AA?9?$AAi?$AAn@ 00474c3c     libucrt:lcidtoname_downlevel.obj
 0002:00009c4c       ??_C@_1M@DMHAEOGC@?$AAk?$AAo?$AA?9?$AAk?$AAr@ 00474c4c     libucrt:lcidtoname_downlevel.obj
 0002:00009c58       ??_C@_1M@HBAHBIGA@?$AAk?$AAy?$AA?9?$AAk?$AAg@ 00474c58     libucrt:lcidtoname_downlevel.obj
 0002:00009c64       ??_C@_1M@KPMILCJG@?$AAl?$AAt?$AA?9?$AAl?$AAt@ 00474c64     libucrt:lcidtoname_downlevel.obj
 0002:00009c70       ??_C@_1M@BDEKKCA@?$AAl?$AAv?$AA?9?$AAl?$AAv@ 00474c70     libucrt:lcidtoname_downlevel.obj
 0002:00009c7c       ??_C@_1M@ELCKCCJJ@?$AAm?$AAi?$AA?9?$AAn?$AAz@ 00474c7c     libucrt:lcidtoname_downlevel.obj
 0002:00009c88       ??_C@_1M@CBOOLAPA@?$AAm?$AAk?$AA?9?$AAm?$AAk@ 00474c88     libucrt:lcidtoname_downlevel.obj
 0002:00009c94       ??_C@_1M@GPHNBJKN@?$AAm?$AAl?$AA?9?$AAi?$AAn@ 00474c94     libucrt:lcidtoname_downlevel.obj
 0002:00009ca0       ??_C@_1M@PABJILIG@?$AAm?$AAn?$AA?9?$AAm?$AAn@ 00474ca0     libucrt:lcidtoname_downlevel.obj
 0002:00009cac       ??_C@_1M@FGBKKIPG@?$AAm?$AAr?$AA?9?$AAi?$AAn@ 00474cac     libucrt:lcidtoname_downlevel.obj
 0002:00009cb8       ??_C@_1M@NDBPDDAL@?$AAm?$AAs?$AA?9?$AAb?$AAn@ 00474cb8     libucrt:lcidtoname_downlevel.obj
 0002:00009cc4       ??_C@_1M@OPIHOOPI@?$AAm?$AAs?$AA?9?$AAm?$AAy@ 00474cc4     libucrt:lcidtoname_downlevel.obj
 0002:00009cd0       ??_C@_1M@PPDBCNFM@?$AAm?$AAt?$AA?9?$AAm?$AAt@ 00474cd0     libucrt:lcidtoname_downlevel.obj
 0002:00009cdc       ??_C@_1M@KDJDKMDD@?$AAn?$AAb?$AA?9?$AAn?$AAo@ 00474cdc     libucrt:lcidtoname_downlevel.obj
 0002:00009ce8       ??_C@_1M@KFCFLMJP@?$AAn?$AAl?$AA?9?$AAb?$AAe@ 00474ce8     libucrt:lcidtoname_downlevel.obj
 0002:00009cf4       ??_C@_1M@KPOPDDGO@?$AAn?$AAl?$AA?9?$AAn?$AAl@ 00474cf4     libucrt:lcidtoname_downlevel.obj
 0002:00009d00       ??_C@_1M@LJKPEMLN@?$AAn?$AAn?$AA?9?$AAn?$AAo@ 00474d00     libucrt:lcidtoname_downlevel.obj
 0002:00009d0c       ??_C@_1M@BDGHHBFL@?$AAn?$AAs?$AA?9?$AAz?$AAa@ 00474d0c     libucrt:lcidtoname_downlevel.obj
 0002:00009d18       ??_C@_1M@IDEHOAP@?$AAp?$AAa?$AA?9?$AAi?$AAn@ 00474d18     libucrt:lcidtoname_downlevel.obj
 0002:00009d24       ??_C@_1M@HDBKGOGH@?$AAp?$AAl?$AA?9?$AAp?$AAl@ 00474d24     libucrt:lcidtoname_downlevel.obj
 0002:00009d30       ??_C@_1M@LJLLCMEH@?$AAp?$AAt?$AA?9?$AAb?$AAr@ 00474d30     libucrt:lcidtoname_downlevel.obj
 0002:00009d3c       ??_C@_1M@NCMONAAL@?$AAp?$AAt?$AA?9?$AAp?$AAt@ 00474d3c     libucrt:lcidtoname_downlevel.obj
 0002:00009d48       ??_C@_1O@EAKMAJDN@?$AAq?$AAu?$AAz?$AA?9?$AAb?$AAo@ 00474d48     libucrt:lcidtoname_downlevel.obj
 0002:00009d58       ??_C@_1O@BHHPIGDN@?$AAq?$AAu?$AAz?$AA?9?$AAe?$AAc@ 00474d58     libucrt:lcidtoname_downlevel.obj
 0002:00009d68       ??_C@_1O@GBAPEKMJ@?$AAq?$AAu?$AAz?$AA?9?$AAp?$AAe@ 00474d68     libucrt:lcidtoname_downlevel.obj
 0002:00009d78       ??_C@_1M@CLGLEFBO@?$AAr?$AAo?$AA?9?$AAr?$AAo@ 00474d78     libucrt:lcidtoname_downlevel.obj
 0002:00009d84       ??_C@_1M@CEEDODME@?$AAr?$AAu?$AA?9?$AAr?$AAu@ 00474d84     libucrt:lcidtoname_downlevel.obj
 0002:00009d90       ??_C@_1M@HPKKKMPP@?$AAs?$AAa?$AA?9?$AAi?$AAn@ 00474d90     libucrt:lcidtoname_downlevel.obj
 0002:00009d9c       ??_C@_1M@BKMAIGOJ@?$AAs?$AAe?$AA?9?$AAf?$AAi@ 00474d9c     libucrt:lcidtoname_downlevel.obj
 0002:00009da8       ??_C@_1M@NDPIFLFI@?$AAs?$AAe?$AA?9?$AAn?$AAo@ 00474da8     libucrt:lcidtoname_downlevel.obj
 0002:00009db4       ??_C@_1M@DANKKHJ@?$AAs?$AAe?$AA?9?$AAs?$AAe@ 00474db4     libucrt:lcidtoname_downlevel.obj
 0002:00009dc0       ??_C@_1M@PNBLONPJ@?$AAs?$AAk?$AA?9?$AAs?$AAk@ 00474dc0     libucrt:lcidtoname_downlevel.obj
 0002:00009dcc       ??_C@_1M@LFMODOAL@?$AAs?$AAl?$AA?9?$AAs?$AAi@ 00474dcc     libucrt:lcidtoname_downlevel.obj
 0002:00009dd8       ??_C@_1O@DFKOMPG@?$AAs?$AAm?$AAa?$AA?9?$AAn?$AAo@ 00474dd8     libucrt:lcidtoname_downlevel.obj
 0002:00009de8       ??_C@_1O@NDKPBNNH@?$AAs?$AAm?$AAa?$AA?9?$AAs?$AAe@ 00474de8     libucrt:lcidtoname_downlevel.obj
 0002:00009df8       ??_C@_1O@PLLKBHAB@?$AAs?$AAm?$AAj?$AA?9?$AAn?$AAo@ 00474df8     libucrt:lcidtoname_downlevel.obj
 0002:00009e08       ??_C@_1O@CLEPOGCA@?$AAs?$AAm?$AAj?$AA?9?$AAs?$AAe@ 00474e08     libucrt:lcidtoname_downlevel.obj
 0002:00009e18       ??_C@_1O@DLGJGKMK@?$AAs?$AAm?$AAn?$AA?9?$AAf?$AAi@ 00474e18     libucrt:lcidtoname_downlevel.obj
 0002:00009e28       ??_C@_1O@OJDJGAJC@?$AAs?$AAm?$AAs?$AA?9?$AAf?$AAi@ 00474e28     libucrt:lcidtoname_downlevel.obj
 0002:00009e38       ??_C@_1M@BOFOGHPB@?$AAs?$AAq?$AA?9?$AAa?$AAl@ 00474e38     libucrt:lcidtoname_downlevel.obj
 0002:00009e44       ??_C@_1BG@LJBBIPGB@?$AAs?$AAr?$AA?9?$AAb?$AAa?$AA?9?$AAc?$AAy?$AAr?$AAl@ 00474e44     libucrt:lcidtoname_downlevel.obj
 0002:00009e5c       ??_C@_1BG@JLBENFOE@?$AAs?$AAr?$AA?9?$AAb?$AAa?$AA?9?$AAl?$AAa?$AAt?$AAn@ 00474e5c     libucrt:lcidtoname_downlevel.obj
 0002:00009e74       ??_C@_1BG@KODPNHE@?$AAs?$AAr?$AA?9?$AAs?$AAp?$AA?9?$AAc?$AAy?$AAr?$AAl@ 00474e74     libucrt:lcidtoname_downlevel.obj
 0002:00009e8c       ??_C@_1BG@CIOGKHPB@?$AAs?$AAr?$AA?9?$AAs?$AAp?$AA?9?$AAl?$AAa?$AAt?$AAn@ 00474e8c     libucrt:lcidtoname_downlevel.obj
 0002:00009ea4       ??_C@_1M@NGFJLMAC@?$AAs?$AAv?$AA?9?$AAf?$AAi@ 00474ea4     libucrt:lcidtoname_downlevel.obj
 0002:00009eb0       ??_C@_1M@MPJEJAJC@?$AAs?$AAv?$AA?9?$AAs?$AAe@ 00474eb0     libucrt:lcidtoname_downlevel.obj
 0002:00009ebc       ??_C@_1M@MPNDHLFK@?$AAs?$AAw?$AA?9?$AAk?$AAe@ 00474ebc     libucrt:lcidtoname_downlevel.obj
 0002:00009ec8       ??_C@_1O@KOHBJJI@?$AAs?$AAy?$AAr?$AA?9?$AAs?$AAy@ 00474ec8     libucrt:lcidtoname_downlevel.obj
 0002:00009ed8       ??_C@_1M@LDCEFHA@?$AAt?$AAa?$AA?9?$AAi?$AAn@ 00474ed8     libucrt:lcidtoname_downlevel.obj
 0002:00009ee4       ??_C@_1M@CNJOFAK@?$AAt?$AAe?$AA?9?$AAi?$AAn@ 00474ee4     libucrt:lcidtoname_downlevel.obj
 0002:00009ef0       ??_C@_1M@GNAECACD@?$AAt?$AAh?$AA?9?$AAt?$AAh@ 00474ef0     libucrt:lcidtoname_downlevel.obj
 0002:00009efc       ??_C@_1M@CHBIHOJO@?$AAt?$AAn?$AA?9?$AAz?$AAa@ 00474efc     libucrt:lcidtoname_downlevel.obj
 0002:00009f08       ??_C@_1M@GCCMIGPJ@?$AAt?$AAr?$AA?9?$AAt?$AAr@ 00474f08     libucrt:lcidtoname_downlevel.obj
 0002:00009f14       ??_C@_1M@CELMCNBK@?$AAt?$AAt?$AA?9?$AAr?$AAu@ 00474f14     libucrt:lcidtoname_downlevel.obj
 0002:00009f20       ??_C@_1M@KLMCELGA@?$AAu?$AAk?$AA?9?$AAu?$AAa@ 00474f20     libucrt:lcidtoname_downlevel.obj
 0002:00009f2c       ??_C@_1M@EPAJJAJF@?$AAu?$AAr?$AA?9?$AAp?$AAk@ 00474f2c     libucrt:lcidtoname_downlevel.obj
 0002:00009f38       ??_C@_1BG@GEGPMCDJ@?$AAu?$AAz?$AA?9?$AAu?$AAz?$AA?9?$AAc?$AAy?$AAr?$AAl@ 00474f38     libucrt:lcidtoname_downlevel.obj
 0002:00009f50       ??_C@_1BG@EGGKJILM@?$AAu?$AAz?$AA?9?$AAu?$AAz?$AA?9?$AAl?$AAa?$AAt?$AAn@ 00474f50     libucrt:lcidtoname_downlevel.obj
 0002:00009f68       ??_C@_1M@GFOCLFF@?$AAv?$AAi?$AA?9?$AAv?$AAn@ 00474f68     libucrt:lcidtoname_downlevel.obj
 0002:00009f74       ??_C@_1M@CPAMEDFI@?$AAx?$AAh?$AA?9?$AAz?$AAa@ 00474f74     libucrt:lcidtoname_downlevel.obj
 0002:00009f80       ??_C@_1O@EBKIFIGN@?$AAz?$AAh?$AA?9?$AAc?$AAh?$AAs@ 00474f80     libucrt:lcidtoname_downlevel.obj
 0002:00009f90       ??_C@_1O@NMHPGANE@?$AAz?$AAh?$AA?9?$AAc?$AAh?$AAt@ 00474f90     libucrt:lcidtoname_downlevel.obj
 0002:00009fa0       ??_C@_1M@LPINJOMC@?$AAz?$AAh?$AA?9?$AAc?$AAn@ 00474fa0     libucrt:lcidtoname_downlevel.obj
 0002:00009fac       ??_C@_1M@OCJEJODD@?$AAz?$AAh?$AA?9?$AAh?$AAk@ 00474fac     libucrt:lcidtoname_downlevel.obj
 0002:00009fb8       ??_C@_1M@DNDLJINH@?$AAz?$AAh?$AA?9?$AAm?$AAo@ 00474fb8     libucrt:lcidtoname_downlevel.obj
 0002:00009fc4       ??_C@_1M@MBFDNDND@?$AAz?$AAh?$AA?9?$AAs?$AAg@ 00474fc4     libucrt:lcidtoname_downlevel.obj
 0002:00009fd0       ??_C@_1M@IMEPLEPE@?$AAz?$AAh?$AA?9?$AAt?$AAw@ 00474fd0     libucrt:lcidtoname_downlevel.obj
 0002:00009fdc       ??_C@_1M@BBGHNHJP@?$AAz?$AAu?$AA?9?$AAz?$AAa@ 00474fdc     libucrt:lcidtoname_downlevel.obj
 0002:00009fe8       ??_C@_05DNEBIAHO@1?$CDINF@ 00474fe8     libucrt:cfout.obj
 0002:00009ff0       ??_C@_06IMKFLFPG@1?$CDQNAN@ 00474ff0     libucrt:cfout.obj
 0002:00009ff8       ??_C@_06PGGFOGJG@1?$CDSNAN@ 00474ff8     libucrt:cfout.obj
 0002:0000a000       ??_C@_05PHHOCPM@1?$CDIND@  00475000     libucrt:cfout.obj
 0002:0000a158       ??_C@_1BA@BALFACEM@?$AAC?$AAO?$AAN?$AAO?$AAU?$AAT?$AA$@ 00475158     libucrt:initcon.obj
 0002:0000a180       ___acrt_log10_table_t      00475180     libucrt:log10_tables.obj
 0002:0000a590       ___acrt_log10_table_cb     00475590     libucrt:log10_tables.obj
 0002:0000aaa0       __infinity                 00475aa0     libucrt:87tran.obj
 0002:0000aaaa       __minfinity                00475aaa     libucrt:87tran.obj
 0002:0000aab4       __logemax                  00475ab4     libucrt:87tran.obj
 0002:0000aada       __OP_EXPjmptab             00475ada     libucrt:87tran.obj
 0002:0000ab00       __indefinite               00475b00     libucrt:87disp.obj
 0002:0000ab0a       __piby2                    00475b0a     libucrt:87disp.obj
 0002:0000ab14       __piby4                    00475b14     libucrt:87disp.obj
 0002:0000ab48       __DEFAULT_CW_in_mem        00475b48     libucrt:common.obj
 0002:0000ab4a       __pi_by_2_to_61            00475b4a     libucrt:common.obj
 0002:0000ab88       __real@3fe0000000000000    00475b88     libucrt:powhlp.obj
 0002:0000ab90       __Asan_string_should_annotate 00475b90     libcpmt:asan_noop.obj
 0002:0000ab90       __Asan_string_should_annotate_default 00475b90     libcpmt:asan_noop.obj
 0002:0000ab91       __Asan_vector_should_annotate_default 00475b91     libcpmt:asan_noop.obj
 0002:0000ab94       ??_C@_0BC@EOODALEL@Unknown?5exception@ 00475b94     encryption.obj
 0002:0000aba8       ??_C@_0BF@KINCDENJ@bad?5array?5new?5length@ 00475ba8     encryption.obj
 0002:0000abc0       ??_C@_0BA@JFNIOLAK@string?5too?5long@ 00475bc0     encryption.obj
 0002:0000abd0       ??_C@_0BB@JGGOGLEG@0123456789ABCDEF@ 00475bd0     encryption.obj
 0002:0000abe1       ??_C@_00CNPNBAHC@@         00475be1     netutil.obj
 0002:0000abe4       ??_C@_0BP@PGPIMDAH@Content?9Type?3?5application?1json@ 00475be4     netutil.obj
 0002:0000ac04       ??_C@_04HHCDBDLF@?5?7?$AN?6@ 00475c04     netutil.obj
 0002:0000ac0c       ??_C@_04LOAJBDKD@true@     00475c0c     netutil.obj
 0002:0000ac14       ??_C@_04HPMIDMKH@True@     00475c14     netutil.obj
 0002:0000ac1c       ??_C@_0BI@CFPLBAOH@invalid?5string?5position@ 00475c1c     netutil.obj
 0002:0000ac34       ??_C@_06DBPGMFD@demos?1@   00475c34     server.obj
 0002:0000ac3c       ??_C@_0BC@FBNFCGI@config?1maprot?4cfg@ 00475c3c     server.obj
 0002:0000ac50       ??_C@_0BF@HMGGBOLD@config?1serverpwd?4cfg@ 00475c50     server.obj
 0002:0000ac68       ??_C@_0BL@LOIBGNNA@config?1serverblacklist?4cfg@ 00475c68     server.obj
 0002:0000ac84       ??_C@_0BB@LCNCLBCE@config?1geoip?4cfg@ 00475c84     server.obj
 0002:0000ac98       ??_C@_0BN@FBHLOLPE@config?1nicknameblacklist?4cfg@ 00475c98     server.obj
 0002:0000acb8       ??_C@_0BC@PIIDFBHM@config?1serverinfo@ 00475cb8     server.obj
 0002:0000accc       ??_C@_0M@NPFMGNOF@config?1motd@ 00475ccc     server.obj
 0002:0000acd8       ??_C@_0BF@NGMKNHPI@config?1forbidden?4cfg@ 00475cd8     server.obj
 0002:0000acf0       ??_C@_05MIDDFADP@logs?1@   00475cf0     server.obj
 0002:0000acf8       ??_C@_0BM@KEHNPADK@config?1serverparameters?4cfg@ 00475cf8     server.obj
 0002:0000ad14       ??_C@_0BC@GMFDDAG@config?1servervita@ 00475d14     server.obj
 0002:0000ad28       ??_C@_0P@FCIOGDPL@assaultcube?3?1?1@ 00475d28     server.obj
 0002:0000ad38       ??_C@_01CLKCMJKC@?5@       00475d38     server.obj
 0002:0000ad40       ??_C@_0JG@HDHGCCHE@KEY?5FAILURE?3?5you?5provided?5the?5?$CI@ 00475d40     server.obj
 0002:0000add8       ??_C@_0O@DMIEEPMJ@?9?9masterport?$DN@ 00475dd8     server.obj
 0002:0000ade8       ??_C@_06KLOKGNEB@?9?9map?$DN@ 00475de8     server.obj
 0002:0000adf0       ??_C@_07GJHMNCHE@?9?9mode?$DN@ 00475df0     server.obj
 0002:0000adf8       ??_C@_0L@HIGFDABN@?9?9userids?$DN@ 00475df8     server.obj
 0002:0000ae04       ??_C@_0L@LOLCIJNC@?9?9lobbyId?$DN@ 00475e04     server.obj
 0002:0000ae10       ??_C@_0CP@NBGHBJEB@reading?5commandline?5parameters?5@ 00475e10     server.obj
 0002:0000ae40       ??_C@_02OJDBNLEE@?5?7@     00475e40     server.obj
 0002:0000ae44       ??_C@_0CP@FJLEBJDA@unknown?5parameter?5in?5file?5?8?$CFs?8?0@ 00475e44     server.obj
 0002:0000ae74       ??_C@_0BK@PBCMPAON@failed?5to?5read?5file?5?8?$CFs?8?6@ 00475e74     server.obj
 0002:0000ae90       ??_C@_05KKJKHDCN@none?$DP@ 00475e90     server.obj
 0002:0000ae98       ??_C@_05OEPGNJB@light@     00475e98     server.obj
 0002:0000aea0       ??_C@_0M@GFCPGAEM@playerstart@ 00475ea0     server.obj
 0002:0000aeac       ??_C@_06HBOMKLFK@pistol@   00475eac     server.obj
 0002:0000aeb4       ??_C@_07PGLHBBOF@ammobox@  00475eb4     server.obj
 0002:0000aebc       ??_C@_08HOOJIBOO@grenades@ 00475ebc     server.obj
 0002:0000aec8       ??_C@_06KJINILIP@health@   00475ec8     server.obj
 0002:0000aed0       ??_C@_06BCDCLMEB@helmet@   00475ed0     server.obj
 0002:0000aed8       ??_C@_06EEGMCOHM@armour@   00475ed8     server.obj
 0002:0000aee0       ??_C@_06NJDJMKIN@akimbo@   00475ee0     server.obj
 0002:0000aee8       ??_C@_08NIOLEMIA@mapmodel@ 00475ee8     server.obj
 0002:0000aef4       ??_C@_07DIDNFGDE@trigger@  00475ef4     server.obj
 0002:0000aefc       ??_C@_06GGMOHJIJ@ladder@   00475efc     server.obj
 0002:0000af04       ??_C@_08DHNDAEM@ctf?9flag@ 00475f04     server.obj
 0002:0000af10       ??_C@_05MHNANJII@sound@    00475f10     server.obj
 0002:0000af18       ??_C@_04POIGMEJN@clip@     00475f18     server.obj
 0002:0000af20       ??_C@_06DGJGPDPE@plclip@   00475f20     server.obj
 0002:0000af28       ??_C@_05JLNEMJLN@dummy@    00475f28     server.obj
 0002:0000af30       ??_C@_03MHPINNNA@CLA@      00475f30     server.obj
 0002:0000af34       ??_C@_04FNLBLMFN@RVSF@     00475f34     server.obj
 0002:0000af3c       ??_C@_09KIMLPHEC@CLA?9SPECT@ 00475f3c     server.obj
 0002:0000af48       ??_C@_0L@LICPIECI@RVSF?9SPECT@ 00475f48     server.obj
 0002:0000af54       ??_C@_09GNDCBOBP@SPECTATOR@ 00475f54     server.obj
 0002:0000af60       ??_C@_04GKJNKENE@void@     00475f60     server.obj
 0002:0000af68       ??_C@_04EINOLIEB@CSPC@     00475f68     server.obj
 0002:0000af70       ??_C@_04BFFOAGHD@RSPC@     00475f70     server.obj
 0002:0000af78       ??_C@_04CAGGOBLG@SPEC@     00475f78     server.obj
 0002:0000af80       ??_C@_07GDJPGPDM@unarmed@  00475f80     server.obj
 0002:0000af88       ??_C@_05JEBDMKHG@admin@    00475f88     server.obj
 0002:0000af90       ??_C@_05HEIBENID@owner@    00475f90     server.obj
 0002:0000af98       ??_C@_06DAPHOLID@busted@   00475f98     server.obj
 0002:0000afa0       ??_C@_0L@DIFFKPDK@picked?5off@ 00475fa0     server.obj
 0002:0000afac       ??_C@_08EJHNGMPD@peppered@ 00475fac     server.obj
 0002:0000afb8       ??_C@_07OPGINMIH@sprayed@  00475fb8     server.obj
 0002:0000afc0       ??_C@_09NJPGN@punctured@   00475fc0     server.obj
 0002:0000afcc       ??_C@_08GHGDOGBF@shredded@ 00475fcc     server.obj
 0002:0000afd8       ??_C@_07DINBKOBA@slashed@  00475fd8     server.obj
 0002:0000afe0       ??_C@_0L@PEBKKBEB@splattered@ 00475fe0     server.obj
 0002:0000afec       ??_C@_08JANKBJDD@headshot@ 00475fec     server.obj
 0002:0000aff8       ??_C@_06DOCJLALF@gibbed@   00475ff8     server.obj
 0002:0000b000       ??_C@_0M@GNNOGAKC@player?1jump@ 00476000     server.obj
 0002:0000b00c       ??_C@_04BIEPDJCB@Jump@     0047600c     server.obj
 0002:0000b014       ??_C@_0M@LGIBKDIM@player?1step@ 00476014     server.obj
 0002:0000b020       ??_C@_0N@BCNAEEA@Soft?5landing@ 00476020     server.obj
 0002:0000b030       ??_C@_0M@BBANDMMG@player?1land@ 00476030     server.obj
 0002:0000b03c       ??_C@_0N@ICFDPIIG@Hard?5landing@ 0047603c     server.obj
 0002:0000b04c       ??_C@_0M@FGLFIMKL@weapon?1ric1@ 0047604c     server.obj
 0002:0000b058       ??_C@_0P@FHLOKKBN@Ricochet?5air?51@ 00476058     server.obj
 0002:0000b068       ??_C@_0M@HNJINPGI@weapon?1ric2@ 00476068     server.obj
 0002:0000b074       ??_C@_0P@HMJDPJNO@Ricochet?5air?52@ 00476074     server.obj
 0002:0000b084       ??_C@_0M@GEIDOOCJ@weapon?1ric3@ 00476084     server.obj
 0002:0000b090       ??_C@_0N@NJKHFEFF@Ricochet?5hit@ 00476090     server.obj
 0002:0000b0a0       ??_C@_0BD@ONIIKCOO@weapon?1waterimpact@ 004760a0     server.obj
 0002:0000b0b4       ??_C@_0BG@LLHCFINA@Bullet?5?$CIwater?5impact?$CJ@ 004760b4     server.obj
 0002:0000b0cc       ??_C@_0N@MJGPAHBM@weapon?1knife@ 004760cc     server.obj
 0002:0000b0dc       ??_C@_05BPFOPNCG@Knife@    004760dc     server.obj
 0002:0000b0e4       ??_C@_0L@LKBPNHIC@weapon?1usp@ 004760e4     server.obj
 0002:0000b0f0       ??_C@_06LOFBJCMG@Pistol@   004760f0     server.obj
 0002:0000b0f8       ??_C@_0BF@MCOGHKNE@weapon?1pistol_reload@ 004760f8     server.obj
 0002:0000b110       ??_C@_0BB@GBKLOKCL@Pistol?5reloading@ 00476110     server.obj
 0002:0000b124       ??_C@_0P@NBDKPICF@weapon?1carbine@ 00476124     server.obj
 0002:0000b134       ??_C@_07KJPLOLGP@Carbine@  00476134     server.obj
 0002:0000b13c       ??_C@_0BG@MJPGDPLI@weapon?1carbine_reload@ 0047613c     server.obj
 0002:0000b154       ??_C@_0BC@PBBCOHLK@Carbine?5reloading@ 00476154     server.obj
 0002:0000b168       ??_C@_0P@HLKJBNND@weapon?1shotgun@ 00476168     server.obj
 0002:0000b178       ??_C@_07DGIAOJJ@Shotgun@   00476178     server.obj
 0002:0000b180       ??_C@_0BG@DMKBBOML@weapon?1shotgun_reload@ 00476180     server.obj
 0002:0000b198       ??_C@_0BC@NODFOAPC@Shotgun?5reloading@ 00476198     server.obj
 0002:0000b1ac       ??_C@_0L@ODANIEDP@weapon?1sub@ 004761ac     server.obj
 0002:0000b1b8       ??_C@_0P@MPAHGGFC@Submachine?5gun@ 004761b8     server.obj
 0002:0000b1c8       ??_C@_0BC@DPJLGFDO@weapon?1sub_reload@ 004761c8     server.obj
 0002:0000b1dc       ??_C@_0BJ@LLKHHBPA@Submachine?5gun?5reloading@ 004761dc     server.obj
 0002:0000b1f8       ??_C@_0O@CIICPCNG@weapon?1sniper@ 004761f8     server.obj
 0002:0000b208       ??_C@_06OOFIBKJO@Sniper@   00476208     server.obj
 0002:0000b210       ??_C@_0BF@OGCCCGGC@weapon?1sniper_reload@ 00476210     server.obj
 0002:0000b228       ??_C@_0BB@CKHPHMFM@Sniper?5reloading@ 00476228     server.obj
 0002:0000b23c       ??_C@_0M@FGGLEMPB@weapon?1auto@ 0047623c     server.obj
 0002:0000b248       ??_C@_0O@OPBALMBM@Assault?5rifle@ 00476248     server.obj
 0002:0000b258       ??_C@_0BD@GCNMCBHE@weapon?1auto_reload@ 00476258     server.obj
 0002:0000b26c       ??_C@_0BI@DDOIMOK@Assault?5rifle?5reloading@ 0047626c     server.obj
 0002:0000b284       ??_C@_0BG@NKCBJNFG@misc?1pickup_ammo_clip@ 00476284     server.obj
 0002:0000b29c       ??_C@_0M@GGDKJKLI@Ammo?5pickup@ 0047629c     server.obj
 0002:0000b2a8       ??_C@_0BD@HFJJLGLF@misc?1pickup_health@ 004762a8     server.obj
 0002:0000b2bc       ??_C@_0O@MLANGGEJ@Health?5pickup@ 004762bc     server.obj
 0002:0000b2cc       ??_C@_0BD@JIHIBDEG@misc?1pickup_armour@ 004762cc     server.obj
 0002:0000b2e0       ??_C@_0O@OGOLLBNK@Armour?5pickup@ 004762e0     server.obj
 0002:0000b2f0       ??_C@_0L@OLHBAANG@misc?1tick9@ 004762f0     server.obj
 0002:0000b2fc       ??_C@_0O@BGOOKAOB@Akimbo?5pickup@ 004762fc     server.obj
 0002:0000b30c       ??_C@_0BC@JGCENOFC@weapon?1clip_empty@ 0047630c     server.obj
 0002:0000b320       ??_C@_0L@HGMAHEHA@Empty?5clip@ 00476320     server.obj
 0002:0000b32c       ??_C@_0M@KHBFFAOL@misc?1tick11@ 0047632c     server.obj
 0002:0000b338       ??_C@_0BA@DHBGKBCD@Akimbo?5finished@ 00476338     server.obj
 0002:0000b348       ??_C@_0N@FABPBCIE@player?1pain1@ 00476348     server.obj
 0002:0000b358       ??_C@_06DDCFMBJH@Pain?51@  00476358     server.obj
 0002:0000b360       ??_C@_0N@HLDCEBEH@player?1pain2@ 00476360     server.obj
 0002:0000b370       ??_C@_06BIAIJCFE@Pain?52@  00476370     server.obj
 0002:0000b378       ??_C@_0N@GCCJHAAG@player?1pain3@ 00476378     server.obj
 0002:0000b388       ??_C@_06BBDKDBF@Pain?53@   00476388     server.obj
 0002:0000b390       ??_C@_0N@CNGIOGMB@player?1pain4@ 00476390     server.obj
 0002:0000b3a0       ??_C@_06EOFCDFNC@Pain?54@  004763a0     server.obj
 0002:0000b3a8       ??_C@_0N@DEHDNHIA@player?1pain5@ 004763a8     server.obj
 0002:0000b3b8       ??_C@_06FHEJAEJD@Pain?55@  004763b8     server.obj
 0002:0000b3c0       ??_C@_0N@BPFOIEED@player?1pain6@ 004763c0     server.obj
 0002:0000b3d0       ??_C@_06HMGEFHFA@Pain?56@  004763d0     server.obj
 0002:0000b3d8       ??_C@_0M@CPFABJBI@player?1die1@ 004763d8     server.obj
 0002:0000b3e4       ??_C@_05LMDOEFHJ@Die?51@   004763e4     server.obj
 0002:0000b3ec       ??_C@_0M@EHNEKNL@player?1die2@ 004763ec     server.obj
 0002:0000b3f8       ??_C@_05JHBDBGLK@Die?52@   004763f8     server.obj
 0002:0000b400       ??_C@_0BD@FLOBOKKB@weapon?1grenade_exp@ 00476400     server.obj
 0002:0000b414       ??_C@_0BC@FDJHBPII@Grenade?5explosion@ 00476414     server.obj
 0002:0000b428       ??_C@_0P@IAGJOHHP@player?1splash1@ 00476428     server.obj
 0002:0000b438       ??_C@_08MPDHPJLN@Splash?51@ 00476438     server.obj
 0002:0000b444       ??_C@_0P@KLEELELM@player?1splash2@ 00476444     server.obj
 0002:0000b454       ??_C@_08OEBKKKHO@Splash?52@ 00476454     server.obj
 0002:0000b460       ??_C@_0N@DDPEMIFI@ctf?1flagdrop@ 00476460     server.obj
 0002:0000b470       ??_C@_09KBEKAJNH@Flag?5drop@ 00476470     server.obj
 0002:0000b47c       ??_C@_0P@CCLAAKHN@ctf?1flagpickup@ 0047647c     server.obj
 0002:0000b48c       ??_C@_0M@HCMIOOGB@Flag?5pickup@ 0047648c     server.obj
 0002:0000b498       ??_C@_0P@HBOFJJEL@ctf?1flagreturn@ 00476498     server.obj
 0002:0000b4a8       ??_C@_0M@CBJNHNFH@Flag?5return@ 004764a8     server.obj
 0002:0000b4b4       ??_C@_0O@DNNOOKJD@ctf?1flagscore@ 004764b4     server.obj
 0002:0000b4c4       ??_C@_0L@EAELMKOD@Flag?5score@ 004764c4     server.obj
 0002:0000b4d0       ??_C@_0BE@CHJEMMAE@weapon?1grenade_pull@ 004764d0     server.obj
 0002:0000b4e4       ??_C@_0N@PKIEMEAA@Grenade?5pull@ 004764e4     server.obj
 0002:0000b4f4       ??_C@_0BF@NGFFDADE@weapon?1grenade_throw@ 004764f4     server.obj
 0002:0000b50c       ??_C@_0O@NBOFOECF@Grenade?5throw@ 0047650c     server.obj
 0002:0000b51c       ??_C@_0BH@JFNPMEJF@weapon?1grenade_bounce1@ 0047651c     server.obj
 0002:0000b534       ??_C@_0BB@GIJIAMCN@Grenade?5bounce?51@ 00476534     server.obj
 0002:0000b548       ??_C@_0BH@LOPCJHFG@weapon?1grenade_bounce2@ 00476548     server.obj
 0002:0000b560       ??_C@_0BB@EDLFFPOO@Grenade?5bounce?52@ 00476560     server.obj
 0002:0000b574       ??_C@_0BH@CECMLOKI@weapon?1pistol_akreload@ 00476574     server.obj
 0002:0000b58c       ??_C@_0O@MOAAKNMM@Akimbo?5reload@ 0047658c     server.obj
 0002:0000b59c       ??_C@_0BA@HODAEJBM@misc?1change_gun@ 0047659c     server.obj
 0002:0000b5ac       ??_C@_0O@CMOODNNF@Change?5weapon@ 004765ac     server.obj
 0002:0000b5bc       ??_C@_0O@DKCDDDPE@misc?1impact_t@ 004765bc     server.obj
 0002:0000b5cc       ??_C@_09PJCMGAA@Hit?5sound@ 004765cc     server.obj
 0002:0000b5d8       ??_C@_0L@DDEPKGCP@player?1gib@ 004765d8     server.obj
 0002:0000b5e4       ??_C@_0L@EIDPHHMO@Gib?5sounds@ 004765e4     server.obj
 0002:0000b5f0       ??_C@_0O@DBJNKAPO@misc?1headshot@ 004765f0     server.obj
 0002:0000b600       ??_C@_08BCCLJLJA@Headshot@ 00476600     server.obj
 0002:0000b60c       ??_C@_0P@KIFHMJDG@vote?1vote_call@ 0047660c     server.obj
 0002:0000b61c       ??_C@_09LALLIFMK@Call?5vote@ 0047661c     server.obj
 0002:0000b628       ??_C@_0P@FFDHMOLH@vote?1vote_pass@ 00476628     server.obj
 0002:0000b638       ??_C@_09EICPHAIB@Pass?5vote@ 00476638     server.obj
 0002:0000b644       ??_C@_0P@GGHMIEKN@vote?1vote_fail@ 00476644     server.obj
 0002:0000b654       ??_C@_09BOHCEAOK@Fail?5vote@ 00476654     server.obj
 0002:0000b660       ??_C@_0BB@COMCEBBO@player?1footsteps@ 00476660     server.obj
 0002:0000b674       ??_C@_09MABIJEAA@Footsteps@ 00476674     server.obj
 0002:0000b680       ??_C@_0O@PDLFJAAC@player?1crouch@ 00476680     server.obj
 0002:0000b690       ??_C@_06PBKMMHEL@Crouch@   00476690     server.obj
 0002:0000b698       ??_C@_0BC@JCHFIPHM@player?1watersteps@ 00476698     server.obj
 0002:0000b6ac       ??_C@_0BA@OAODNPEG@Water?5footsteps@ 004766ac     server.obj
 0002:0000b6bc       ??_C@_0BD@CEMKJNAH@player?1watercrouch@ 004766bc     server.obj
 0002:0000b6d0       ??_C@_0BA@CJDECEBP@Water?5crouching@ 004766d0     server.obj
 0002:0000b6e0       ??_C@_0BB@OGNILAPG@player?1crouch_in@ 004766e0     server.obj
 0002:0000b6f4       ??_C@_09MJDEANPP@Crouch?9in@ 004766f4     server.obj
 0002:0000b700       ??_C@_0BC@CKHDCACG@player?1crouch_out@ 00476700     server.obj
 0002:0000b714       ??_C@_0L@FDIAHEDP@Crouch?9out@ 00476714     server.obj
 0002:0000b720       ??_C@_0BB@FEIGAOLE@misc?1menu_click1@ 00476720     server.obj
 0002:0000b734       ??_C@_0M@FDEIGFFC@Menu?5select@ 00476734     server.obj
 0002:0000b740       ??_C@_0BB@HPKLFNHH@misc?1menu_click2@ 00476740     server.obj
 0002:0000b754       ??_C@_0L@MILFFLCA@Menu?5enter@ 00476754     server.obj
 0002:0000b760       ??_C@_0BC@EPBABFIF@player?1underwater@ 00476760     server.obj
 0002:0000b774       ??_C@_0L@LFPBPCDD@Underwater@ 00476774     server.obj
 0002:0000b780       ??_C@_0O@BFHKIADO@misc?1tinnitus@ 00476780     server.obj
 0002:0000b790       ??_C@_08DGMMLLFA@Tinnitus@ 00476790     server.obj
 0002:0000b79c       ??_C@_0BF@EHNGJPMG@voicecom?1affirmative@ 0047679c     server.obj
 0002:0000b7b4       ??_C@_0M@HOICMPAN@Affirmative@ 004767b4     server.obj
 0002:0000b7c0       ??_C@_0BF@BDDNHPPM@voicecom?1allrightsir@ 004767c0     server.obj
 0002:0000b7d8       ??_C@_0O@BEBHFNED@All?9right?5sir@ 004767d8     server.obj
 0002:0000b7e8       ??_C@_0BE@JMOLCCEA@voicecom?1comeonmove@ 004767e8     server.obj
 0002:0000b7fc       ??_C@_0O@OBCHHKLO@Come?5on?0?5move@ 004767fc     server.obj
 0002:0000b80c       ??_C@_0BN@MCANLHBO@voicecom?1cominginwiththeflag@ 0047680c     server.obj
 0002:0000b82c       ??_C@_0BI@DBOHAKM@Coming?5in?5with?5the?5flag@ 0047682c     server.obj
 0002:0000b844       ??_C@_0BB@EGCGDADA@voicecom?1coverme@ 00476844     server.obj
 0002:0000b858       ??_C@_08FLAGMGHM@Cover?5me@ 00476858     server.obj
 0002:0000b864       ??_C@_0BH@MCPEHDGD@voicecom?1defendtheflag@ 00476864     server.obj
 0002:0000b87c       ??_C@_0BA@OFAKNIJD@Defend?5the?5flag@ 0047687c     server.obj
 0002:0000b88c       ??_C@_0BD@IAILBGPI@voicecom?1enemydown@ 0047688c     server.obj
 0002:0000b8a0       ??_C@_0L@HKDICABG@Enemy?5down@ 004768a0     server.obj
 0002:0000b8ac       ??_C@_0BF@IFBNNEAG@voicecom?1gogetemboys@ 004768ac     server.obj
 0002:0000b8c4       ??_C@_0BB@ICNBIIKD@Go?5get?5?8em?5boys?$CB@ 004768c4     server.obj
 0002:0000b8d8       ??_C@_0BF@PLMPABGC@voicecom?1goodjobteam@ 004768d8     server.obj
 0002:0000b8f0       ??_C@_0O@JEMKNFGF@Good?5job?5team@ 004768f0     server.obj
 0002:0000b900       ??_C@_0BB@DNGFLOOF@voicecom?1igotone@ 00476900     server.obj
 0002:0000b914       ??_C@_0L@FKHKLJFJ@I?5got?5one?$CB@ 00476914     server.obj
 0002:0000b920       ??_C@_0BG@LACNMDDF@voicecom?1imadecontact@ 00476920     server.obj
 0002:0000b938       ??_C@_0P@GJLFDACE@I?5made?5contact@ 00476938     server.obj
 0002:0000b948       ??_C@_0BF@FDBMICMC@voicecom?1imattacking@ 00476948     server.obj
 0002:0000b960       ??_C@_0O@OHCPJMNC@I?8m?5attacking@ 00476960     server.obj
 0002:0000b970       ??_C@_0BF@KICNCKGM@voicecom?1imondefense@ 00476970     server.obj
 0002:0000b988       ??_C@_0P@HEIFOHPG@I?8m?5on?5defense@ 00476988     server.obj
 0002:0000b998       ??_C@_0BJ@KAEMOGGA@voicecom?1imonyourteamman@ 00476998     server.obj
 0002:0000b9b4       ??_C@_0BB@HFIPFCNK@I?8m?5on?5your?5team@ 004769b4     server.obj
 0002:0000b9c8       ??_C@_0BC@BKOANIFD@voicecom?1negative@ 004769c8     server.obj
 0002:0000b9dc       ??_C@_08BIJOEGAJ@Negative@ 004769dc     server.obj
 0002:0000b9e8       ??_C@_0BB@JEEJCLCL@voicecom?1nocando@ 004769e8     server.obj
 0002:0000b9fc       ??_C@_09LENHHELI@No?5can?5do@ 004769fc     server.obj
 0002:0000ba08       ??_C@_0BI@JHKIJFMA@voicecom?1recovertheflag@ 00476a08     server.obj
 0002:0000ba20       ??_C@_0BB@FFJCKPPJ@Recover?5the?5flag@ 00476a20     server.obj
 0002:0000ba34       ??_C@_0P@BEJBBJNB@voicecom?1sorry@ 00476a34     server.obj
 0002:0000ba44       ??_C@_05LHPLNCAP@Sorry@    00476a44     server.obj
 0002:0000ba4c       ??_C@_0BD@NHIEKGKC@voicecom?1spreadout@ 00476a4c     server.obj
 0002:0000ba60       ??_C@_0L@MAHKOBCH@Spread?5out@ 00476a60     server.obj
 0002:0000ba6c       ??_C@_0BC@JDOEJEOL@voicecom?1stayhere@ 00476a6c     server.obj
 0002:0000ba80       ??_C@_09GLEBBAJB@Stay?5here@ 00476a80     server.obj
 0002:0000ba8c       ??_C@_0BG@OHHHLHJL@voicecom?1staytogether@ 00476a8c     server.obj
 0002:0000baa4       ??_C@_0O@GFNPHGLN@Stay?5together@ 00476aa4     server.obj
 0002:0000bab4       ??_C@_0BI@JPBAJDNM@voicecom?1theresnowaysir@ 00476ab4     server.obj
 0002:0000bacc       ??_C@_0BD@JOFPGNCK@There?8s?5no?5way?5sir@ 00476acc     server.obj
 0002:0000bae0       ??_C@_0BB@LAOLJNLB@voicecom?1wedidit@ 00476ae0     server.obj
 0002:0000baf4       ??_C@_0L@PBKAGDPK@We?5did?5it?$CB@ 00476af4     server.obj
 0002:0000bb00       ??_C@_0N@DPLJMJJF@voicecom?1yes@ 00476b00     server.obj
 0002:0000bb10       ??_C@_03CCLAEDDF@Yes@      00476b10     server.obj
 0002:0000bb14       ??_C@_0BF@LFCNLIKO@voicecom?1onthemove_1@ 00476b14     server.obj
 0002:0000bb2c       ??_C@_09JMONDFPD@Under?5way@ 00476b2c     server.obj
 0002:0000bb38       ??_C@_0BF@JOAAOLGN@voicecom?1onthemove_2@ 00476b38     server.obj
 0002:0000bb50       ??_C@_0M@LBFADPPF@On?5the?5move@ 00476b50     server.obj
 0002:0000bb5c       ??_C@_0BG@KHNJEIEM@voicecom?1igotyourback@ 00476b5c     server.obj
 0002:0000bb74       ??_C@_0O@DPPOCJIH@Got?5your?5back@ 00476b74     server.obj
 0002:0000bb84       ??_C@_0BI@GACEGPJ@voicecom?1igotyoucovered@ 00476b84     server.obj
 0002:0000bb9c       ??_C@_0BA@FPBOBMNO@Got?5you?5covered@ 00476b9c     server.obj
 0002:0000bbac       ??_C@_0BG@IJMBDPPH@voicecom?1inposition_1@ 00476bac     server.obj
 0002:0000bbc4       ??_C@_0M@JNIFNLEL@In?5position@ 00476bc4     server.obj
 0002:0000bbd0       ??_C@_0BG@KCOMGMDE@voicecom?1inposition_2@ 00476bd0     server.obj
 0002:0000bbe8       ??_C@_0BA@DMEOEKAC@In?5position?5now@ 00476be8     server.obj
 0002:0000bbf8       ??_C@_0BC@BBNKONGC@voicecom?1reportin@ 00476bf8     server.obj
 0002:0000bc0c       ??_C@_0L@NIHBHOJB@Report?5in?$CB@ 00476c0c     server.obj
 0002:0000bc18       ??_C@_0BC@GICDKLID@voicecom?1niceshot@ 00476c18     server.obj
 0002:0000bc2c       ??_C@_09KELICDFF@Nice?5shot@ 00476c2c     server.obj
 0002:0000bc38       ??_C@_0BC@BONCNABF@voicecom?1thanks_1@ 00476c38     server.obj
 0002:0000bc4c       ??_C@_06GOJFLACL@Thanks@   00476c4c     server.obj
 0002:0000bc54       ??_C@_0BC@DFPPIDNG@voicecom?1thanks_2@ 00476c54     server.obj
 0002:0000bc68       ??_C@_0M@GBENEOBE@Thanks?0?5man@ 00476c68     server.obj
 0002:0000bc74       ??_C@_0BD@CLNJAGL@voicecom?1awesome_1@ 00476c74     server.obj
 0002:0000bc88       ??_C@_0M@HICOAMBJ@Awesome?5?$CI1?$CJ@ 00476c88     server.obj
 0002:0000bc94       ??_C@_0BD@CJJAMDKI@voicecom?1awesome_2@ 00476c94     server.obj
 0002:0000bca8       ??_C@_0M@HKGILCEA@Awesome?5?$CI2?$CJ@ 00476ca8     server.obj
 0002:0000bcb4       ??_C@_0BD@MOCGIBHL@misc?1pickup_helmet@ 00476cb4     server.obj
 0002:0000bcc8       ??_C@_0O@BGLEODNE@Helmet?5pickup@ 00476cc8     server.obj
 0002:0000bcd8       ??_C@_0BB@HDHPNBCB@player?1heartbeat@ 00476cd8     server.obj
 0002:0000bcec       ??_C@_09JNKFAEDP@Heartbeat@ 00476cec     server.obj
 0002:0000bcf8       ??_C@_0O@OIHPEKF@ktf?1flagscore@ 00476cf8     server.obj
 0002:0000bd08       ??_C@_09KEADPCJ@KTF?5score@ 00476d08     server.obj
 0002:0000bd14       ??_C@_0M@HOLHNHFJ@misc?1camera@ 00476d14     server.obj
 0002:0000bd20       ??_C@_0L@KKOCHHLN@Screenshot@ 00476d20     server.obj
 0002:0000bd30       ??_C@_0JL@FAEFMENG@an?5error?5occurred?5running?5the?5A@ 00476d30     server.obj
 0002:0000bdcc       ??_C@_06CMCBKMCB@weight@   00476dcc     server.obj
 0002:0000bdd4       ??_C@_06LGDBIFHB@repeat@   00476dd4     server.obj
 0002:0000bddc       ??_C@_04CLCEDBPF@time@     00476ddc     server.obj
 0002:0000bde4       ??_C@_07OPBKMLPH@mintime@  00476de4     server.obj
 0002:0000bdec       ??_C@_07JHKGEBG@maxtime@   00476dec     server.obj
 0002:0000bdf4       ??_C@_0L@DONIJINK@minplayers@ 00476df4     server.obj
 0002:0000be00       ??_C@_0L@PCNFODNF@maxplayers@ 00476e00     server.obj
 0002:0000be0c       ??_C@_0M@FDEMOPMD@maxteamsize@ 00476e0c     server.obj
 0002:0000be18       ??_C@_0O@MOODODND@teamthreshold@ 00476e18     server.obj
 0002:0000be28       ??_C@_06LBOEMNGF@manual@   00476e28     server.obj
 0002:0000be30       ??_C@_08NGGFOJBB@restrict@ 00476e30     server.obj
 0002:0000be3c       ??_C@_0BI@OMJIFFNB@packages?2maps?2official?2@ 00476e3c     server.obj
 0002:0000be54       ??_C@_0P@JMNKJHGD@packages?2maps?2@ 00476e54     server.obj
 0002:0000be64       ??_C@_0BK@MIFHMGFN@packages?2maps?2servermaps?2@ 00476e64     server.obj
 0002:0000be80       ??_C@_0CD@BOPDALNM@packages?2maps?2servermaps?2incomi@ 00476e80     server.obj
 0002:0000bea4       ??_C@_08FDNEBLPN@official@ 00476ea4     server.obj
 0002:0000beb0       ??_C@_05IDKHKMLA@local@    00476eb0     server.obj
 0002:0000beb8       ??_C@_06EKNFNOKI@custom@   00476eb8     server.obj
 0002:0000bec0       ??_C@_09CAHPDAG@temporary@ 00476ec0     server.obj
 0002:0000becc       ??_C@_07CIFAGBMG@unknown@  00476ecc     server.obj
 0002:0000bed4       ??_C@_0BB@GJJOBAMO@illegal?5filename@ 00476ed4     server.obj
 0002:0000bee8       ??_C@_08NCPIFAOA@?$CFs?$CFs?4cfg@ 00476ee8     server.obj
 0002:0000bef4       ??_C@_0BK@MECCINJK@illegal?5chars?5in?5cfg?5file@ 00476ef4     server.obj
 0002:0000bf10       ??_C@_08CMFGFGML@?$CFs?$CFs?4cgz@ 00476f10     server.obj
 0002:0000bf1c       ??_C@_0BD@FJOJJJIH@loading?5cgz?5failed@ 00476f1c     server.obj
 0002:0000bf30       ??_C@_0BB@NOKMNFC@cfg?5file?5too?5big@ 00476f30     server.obj
 0002:0000bf44       ??_C@_0BB@BLOOLBIA@cgz?5file?5too?5big@ 00476f44     server.obj
 0002:0000bf58       ??_C@_0BN@DMHOAKHA@cgz?5?$CL?5cfg?4gz?5too?5big?5to?5send@ 00476f58     server.obj
 0002:0000bf78       ??_C@_02JDPG@rb@           00476f78     server.obj
 0002:0000bf7c       ??_C@_0BE@HBKNPAAN@can?8t?5open?5map?5file@ 00476f7c     server.obj
 0002:0000bf90       ??_C@_04CEENDHAF@CUBE@     00476f90     server.obj
 0002:0000bf98       ??_C@_04BHBGMNAP@ACMP@     00476f98     server.obj
 0002:0000bfa0       ??_C@_0N@NBDBJEGM@bad?5map?5file@ 00476fa0     server.obj
 0002:0000bfb0       ??_C@_0BG@JEPJIBCA@incompatible?5map?5file@ 00476fb0     server.obj
 0002:0000bfc8       ??_C@_0BD@HNAFDEGJ@map?5file?5truncated@ 00476fc8     server.obj
 0002:0000bfdc       ??_C@_01MCMALHOG@a@        00476fdc     server.obj
 0002:0000bfe0       ??_C@_0M@DPBLMNMA@?$CFs?5?5?$CFs?5?5?$CFs?6@ 00476fe0     server.obj
 0002:0000bfec       ??_C@_0BJ@HNNMEOOH@invalid?5HX_ARTIST?5record@ 00476fec     server.obj
 0002:0000c008       ??_C@_0CP@CEGBPHGE@overflow?5during?5conversion?5of?5e@ 00477008     server.obj
 0002:0000c038       ??_C@_0BA@FBNABAKD@map?5file?5broken@ 00477038     server.obj
 0002:0000c048       ??_C@_0CC@IIMKFACI@while?5reading?5map?3?5unexpected?5e@ 00477048     server.obj
 0002:0000c06c       ??_C@_0CL@IMEODHPJ@unoptimised?5map?5file?5not?5allowe@ 0047706c     server.obj
 0002:0000c098       ??_C@_0N@FCLCMN@illegal?5type@ 00477098     server.obj
 0002:0000c0a8       ??_C@_0BF@DKKGAHBA@world?5geometry?5error@ 004770a8     server.obj
 0002:0000c0c0       ??_C@_0BH@KNIDJPBB@world?5layout?5malformed@ 004770c0     server.obj
 0002:0000c0d8       ??_C@_0BI@CAFBOALP@world?5layout?5unplayable@ 004770d8     server.obj
 0002:0000c0f0       ??_C@_0BO@LKCKAGIL@gzipping?5the?5floorplan?5failed@ 004770f0     server.obj
 0002:0000c110       ??_C@_0CA@KLKOGOBN@reading?5map?5?8?$CFs?$CFs?8?5failed?3?5?$CFs?4?6@ 00477110     server.obj
 0002:0000c130       ??_C@_0KF@IGPOCAJL@read?5map?5?8?$CFs?$CFs?8?3?5cgz?5?$CFd?5bytes?0?5@ 00477130     server.obj
 0002:0000c1d8       ??_C@_03GPGADENH@cgz@      004771d8     server.obj
 0002:0000c1e0       ??_C@_0GP@GPMGDGPD@?6?$CD?$CD?$CD?$CD?5?$CFs?5?$CD?$CD?$CD?$CD?5scanning?5all?5map?5@ 004771e0     server.obj
 0002:0000c250       ??_C@_0CJ@EPFODGHD@packages?2maps?2servermaps?2incomi@ 00477250     server.obj
 0002:0000c27c       ??_C@_02GMLFBBN@wb@        0047727c     server.obj
 0002:0000c280       ??_C@_0CJ@LBPADAFI@packages?2maps?2servermaps?2incomi@ 00477280     server.obj
 0002:0000c2ac       ??_C@_0CA@HDCDJCDJ@could?5not?5read?5config?5file?5?8?$CFs?8@ 004772ac     server.obj
 0002:0000c2cc       ??_C@_02CBLDBPFN@?1?1@     004772cc     server.obj
 0002:0000c2d0       ??_C@_08MMCLGCMD@?$CFs?$CFd?4cfg@ 004772d0     server.obj
 0002:0000c2dc       ??_C@_01NOFIACDB@w@        004772dc     server.obj
 0002:0000c2e0       ??_C@_01JLIPDDHJ@?3@       004772e0     server.obj
 0002:0000c2e4       ??_C@_07LPFJLKOF@?$CFs?$CFs?3?$CFd@ 004772e4     server.obj
 0002:0000c2f0       ??_C@_0EM@ELHEMECA@weight?$HMtime?$HMmintime?$HMmaxtime?$HMmin@ 004772f0     server.obj
 0002:0000c33c       ??_C@_0BA@MHLNGKPI@use_hx_modeinfo@ 0047733c     server.obj
 0002:0000c34c       ??_C@_01DNKMNLPK@?$HM@     0047734c     server.obj
 0002:0000c350       ??_C@_0CH@IEOFIBOG@read?5?$CFd?5map?5rotation?5entries?5fr@ 00477350     server.obj
 0002:0000c378       ??_C@_0BN@BJHKGPNB@maprot?5parameters?5for?3?5?$CFs?$CFs?6@ 00477378     server.obj
 0002:0000c398       ??_C@_0L@PLKNJIJH@?5?5mode?5?$CFs?3@ 00477398     server.obj
 0002:0000c3a4       ??_C@_06OELMCFOK@?5?$CFs?3?$CFd@ 004773a4     server.obj
 0002:0000c3ac       ??_C@_01EEMJAFIK@?6@       004773ac     server.obj
 0002:0000c3b0       ??_C@_0BE@POFLBJKA@?5?5modes_allowed?5?$CFs?6@ 004773b0     server.obj
 0002:0000c3c4       ??_C@_0BB@IOMJAEDN@?5?5modes_auto?5?$CFs?6@ 004773c4     server.obj
 0002:0000c3d8       ??_C@_0BA@KFOGACPP@?5?5modes?5man?5?$CFs?6@ 004773d8     server.obj
 0002:0000c3e8       ??_C@_0BD@EOKPNJLH@?5?5modes_cr?$FL?$CFd?$FN?5?$CFs?6@ 004773e8     server.obj
 0002:0000c3fc       ??_C@_0BF@OKODOJC@?5?5modes_pn?$FL?$CF02d?$FN?5?$CFs?6@ 004773fc     server.obj
 0002:0000c414       ??_C@_03JFMEENOE@ERR@      00477414     server.obj
 0002:0000c418       ??_C@_0BF@HMDKFMLP@reading?5ip?5list?5?8?$CFs?8@ 00477418     server.obj
 0002:0000c430       ??_C@_0DB@NDJDIDPE@?5error?5in?5line?5?$CFd?0?5file?5?$CFs?3?5fai@ 00477430     server.obj
 0002:0000c468       ??_C@_0EB@NPEKPHHB@?5error?3?5IP?5list?5entry?5?$CFs?$HM?$CFs?5del@ 00477468     server.obj
 0002:0000c4ac       ??_C@_0CN@POBMANGM@?5IP?5list?5entry?5?$CFs?5got?5dropped?5?$CI@ 004774ac     server.obj
 0002:0000c4dc       ??_C@_0DG@NPOAPKPL@?5IP?5list?5entry?5?$CFs?5got?5dropped?5?$CI@ 004774dc     server.obj
 0002:0000c514       ??_C@_0DP@LLADELBK@?5IP?5list?5entries?5?$CFs?5and?5?$CFs?5are?5@ 00477514     server.obj
 0002:0000c558       ??_C@_0EJ@DANCCJBP@?5error?3?5IP?5list?5entries?5?$CFs?$HM?$CFs?5a@ 00477558     server.obj
 0002:0000c5a4       ??_C@_0DD@GNDACHPH@?5concatenating?5IP?5list?5entries?5@ 004775a4     server.obj
 0002:0000c5d8       ??_C@_06NOJLBGIH@?5?$CFs?5?$CFs@ 004775d8     server.obj
 0002:0000c5e0       ??_C@_0ED@MMOJCHPN@read?5?$CFd?5?$CI?$CFd?$CJ?5IP?5list?5entries?5fr@ 004775e0     server.obj
 0002:0000c624       ??_C@_0BK@KKEKLEBO@reading?5ip?5blacklist?5?8?$CFs?8@ 00477624     server.obj
 0002:0000c640       ??_C@_0CJ@DFKMCCEO@?5error?5in?5line?5?$CFd?0?5file?5?$CFs?3?5ign@ 00477640     server.obj
 0002:0000c66c       ??_C@_0CP@PHNKLMFL@?5blacklist?5entry?5?$CFs?5got?5dropped@ 0047766c     server.obj
 0002:0000c69c       ??_C@_0DI@HCOHKKA@?5blacklist?5entry?5?$CFs?5got?5dropped@ 0047769c     server.obj
 0002:0000c6d4       ??_C@_0DH@CDMDIKMH@?5blacklist?5entries?5?$CFs?5and?5?$CFs?5ar@ 004776d4     server.obj
 0002:0000c70c       ??_C@_03EEBNCBOD@?5?$CFs@  0047770c     server.obj
 0002:0000c710       ??_C@_0DE@LCODJEAN@read?5?$CFd?5?$CI?$CFd?$CJ?5blacklist?5entries?5@ 00477710     server.obj
 0002:0000c744       ??_C@_0CA@CEHEPNJB@reading?5nickname?5blacklist?5?8?$CFs?8@ 00477744     server.obj
 0002:0000c764       ??_C@_06MPKMECK@accept@    00477764     server.obj
 0002:0000c76c       ??_C@_05PIBOEKAB@block@    0047776c     server.obj
 0002:0000c774       ??_C@_01OJONOECF@b@        00477774     server.obj
 0002:0000c778       ??_C@_06MDMAPODC@blocki@   00477778     server.obj
 0002:0000c780       ??_C@_02PPNCOJEN@bi@       00477780     server.obj
 0002:0000c784       ??_C@_0DB@EKMLHED@?5error?5in?5line?5?$CFd?0?5file?5?$CFs?3?5unk@ 00477784     server.obj
 0002:0000c7b8       ??_C@_0CC@ODAFNME@?5nickname?5whitelist?5?$CI?$CFd?5entries@ 004777b8     server.obj
 0002:0000c7dc       ??_C@_0L@MHPGGDE@?5?5pwd?3?$CC?$CFs?$CC@ 004777dc     server.obj
 0002:0000c7e8       ??_C@_04GCLKCGOG@?5?5?$CFs@ 004777e8     server.obj
 0002:0000c7f0       ??_C@_0O@PPFPHPHF@?5?5accept?5?$CFs?$CFs@ 004777f0     server.obj
 0002:0000c800       ??_C@_0CC@BLJMIBMB@?5nickname?5blacklist?5?$CI?$CFd?5entries@ 00477800     server.obj
 0002:0000c824       ??_C@_01KBJDNOO@i@         00477824     server.obj
 0002:0000c828       ??_C@_0BA@PLEINLAL@?5?5?$CF2d?5block?$CFs?$CFs@ 00477828     server.obj
 0002:0000c838       ??_C@_0EC@IGCCFJCH@read?5?$CFd?5?$CL?5?$CFd?5entries?5from?5nickn@ 00477838     server.obj
 0002:0000c87c       ??_C@_05DNIIFBMG@?$CFs?5?$CFs@ 0047787c     server.obj
 0002:0000c884       ??_C@_0BM@MLKFCIBF@reading?5forbidden?5list?5?8?$CFs?8@ 00477884     server.obj
 0002:0000c8a0       ??_C@_0BN@OPMPJNDF@reading?5admin?5passwords?5?8?$CFs?8@ 004778a0     server.obj
 0002:0000c8c0       ??_C@_0P@HDFCIBNK@line?$CF4d?3?5?$CFs?5?$CFd@ 004778c0     server.obj
 0002:0000c8d0       ??_C@_0CC@MFGFCPJP@read?5?$CFd?5admin?5passwords?5from?5?8?$CF@ 004778d0     server.obj
 0002:0000c8f4       ??_C@_09JAEEGPLL@?$CFs_en?4txt@ 004778f4     server.obj
 0002:0000c900       ??_C@_0BM@BLBBJBHA@reading?5info?5text?5file?5?8?$CFs?8@ 00477900     server.obj
 0002:0000c91c       ??_C@_03OFAPEBGM@?$CFs?6@  0047791c     server.obj
 0002:0000c920       ??_C@_0CI@LOBCGEKE@info?5text?5file?5?8?$CFs?8?5truncated?3?5@ 00477920     server.obj
 0002:0000c948       ??_C@_0BF@JADKPBLD@?$CFs?3?$CFd?5?1?1?5default?5?$CFd?6@ 00477948     server.obj
 0002:0000c960       ??_C@_0BF@LOJAKBHA@?$CFs?3?$CFs?5?1?1?5default?5?$CFs?6@ 00477960     server.obj
 0002:0000c978       ??_C@_0DF@EJLLDCCP@server?5statistics?5parameter?5?$CFs?5@ 00477978     server.obj
 0002:0000c9b0       ??_C@_0DJ@CNHBFANK@server?5statistics?5parameter?5?$CFs?5@ 004779b0     server.obj
 0002:0000c9ec       ??_C@_05NIGAKFML@first@    004779ec     server.obj
 0002:0000c9f4       ??_C@_04PLGBGIDD@last@     004779f4     server.obj
 0002:0000c9fc       ??_C@_03PNPPPIFF@ban@      004779fc     server.obj
 0002:0000ca00       ??_C@_09GHOJLDKL@whitelist@ 00477a00     server.obj
 0002:0000ca0c       ??_C@_07PJADLICL@minconn@  00477a0c     server.obj
 0002:0000ca14       ??_C@_06DFDMDPH@minact@    00477a14     server.obj
 0002:0000ca1c       ??_C@_05GECEPKB@flags@     00477a1c     server.obj
 0002:0000ca24       ??_C@_09MILKCFFA@antiflags@ 00477a24     server.obj
 0002:0000ca30       ??_C@_05NJJCGGEC@frags@    00477a30     server.obj
 0002:0000ca38       ??_C@_06EHIKAPAF@deaths@   00477a38     server.obj
 0002:0000ca40       ??_C@_03HKHGBJNM@tks@      00477a40     server.obj
 0002:0000ca44       ??_C@_08MOEOKJOB@suicides@ 00477a44     server.obj
 0002:0000ca50       ??_C@_06GJOIPFFF@damage@   00477a50     server.obj
 0002:0000ca58       ??_C@_02HPEDFNFO@ff@       00477a58     server.obj
 0002:0000ca5c       ??_C@_06GOALCNFB@PUBKEY@   00477a5c     server.obj
 0002:0000ca64       ??_C@_04IPKHEEB@NAME@      00477a64     server.obj
 0002:0000ca6c       ??_C@_06IIIGFHDN@PUBCOM@   00477a6c     server.obj
 0002:0000ca74       ??_C@_07FDAFEGGH@PRIVCOM@  00477a74     server.obj
 0002:0000ca7c       ??_C@_02MFEOMNPG@IP@       00477a7c     server.obj
 0002:0000ca80       ??_C@_02KJDGAJLC@CC@       00477a80     server.obj
 0002:0000ca84       ??_C@_04OIOOEIIC@CLAN@     00477a84     server.obj
 0002:0000ca8c       ??_C@_04KNIOFKKL@STAT@     00477a8c     server.obj
 0002:0000ca94       ??_C@_02HAOIJKIC@?$CFc@    00477a94     server.obj
 0002:0000ca98       ??_C@_0GE@FGMLCLLB@?1?1?5AC?5server?5vita?5database?6?1?1?5a@ 00477a98     server.obj
 0002:0000cafc       ??_C@_09EACAMGIO@PUBKEY?5?$CFs@ 00477afc     server.obj
 0002:0000cb08       ??_C@_06NAMLFCKE@?6?7NAME@ 00477b08     server.obj
 0002:0000cb10       ??_C@_04MLJFLENC@?6?7IP@   00477b10     server.obj
 0002:0000cb18       ??_C@_0N@MCHCGLCD@?6?7PRIVCOM?5?$CFs@ 00477b18     server.obj
 0002:0000cb28       ??_C@_0M@EOBBOCDA@?6?7PUBCOM?5?$CFs@ 00477b28     server.obj
 0002:0000cb34       ??_C@_09DKCMFFPJ@?6?7CLAN?5?$CFs@ 00477b34     server.obj
 0002:0000cb40       ??_C@_04KHONHAJG@?6?7CC@   00477b40     server.obj
 0002:0000cb48       ??_C@_05BJHFBPJM@?5?$CFc?$CFc@ 00477b48     server.obj
 0002:0000cb50       ??_C@_06HFLPHMEO@?6?7STAT@ 00477b50     server.obj
 0002:0000cb58       ??_C@_02PHMGELLB@?6?6@     00477b58     server.obj
 0002:0000cb5c       ??_C@_02LMMGGCAJ@?3?5@     00477b5c     server.obj
 0002:0000cb60       ??_C@_08LLGCOLLL@iostream@ 00477b60     server.obj
 0002:0000cb6c       ??_C@_08EPJLHIJG@bad?5cast@ 00477b6c     server.obj
 0002:0000cb78       ??_C@_0BA@ELKIONDK@bad?5locale?5name@ 00477b78     server.obj
 0002:0000cb88       ??_C@_05LAPONLG@false@     00477b88     server.obj
 0002:0000cb90       ??_C@_0BF@PHHKMMFD@ios_base?3?3badbit?5set@ 00477b90     server.obj
 0002:0000cba8       ??_C@_0BG@FMKFHCIL@ios_base?3?3failbit?5set@ 00477ba8     server.obj
 0002:0000cbc0       ??_C@_0BF@OOHOMBOF@ios_base?3?3eofbit?5set@ 00477bc0     server.obj
 0002:0000cbd8       ??_C@_08BEHKFNNO@disabled@ 00477bd8     server.obj
 0002:0000cbe4       ??_C@_07MHHIKOPA@enabled@  00477be4     server.obj
 0002:0000cbec       ??_C@_0L@HMJMFLPL@dumpmaprot@ 00477bec     server.obj
 0002:0000cbf8       ??_C@_0P@LBCIFG@dumpparameters@ 00477bf8     server.obj
 0002:0000cc08       ??_C@_0L@CIPAEDBA@vitamaxage@ 00477c08     server.obj
 0002:0000cc14       ??_C@_02KCPFEJNG@?$HL?6@   00477c14     server.obj
 0002:0000cc18       ??_C@_02MLAGHBOD@?0?6@     00477c18     server.obj
 0002:0000cc1c       ??_C@_0L@FPIEGCBG@?$CClobbyId?$CC?3@ 00477c1c     server.obj
 0002:0000cc28       ??_C@_03BPDIBAFI@?$CC?0?6@ 00477c28     server.obj
 0002:0000cc2c       ??_C@_07HFOABFHL@?$CCmap?$CC?3?$CC@ 00477c2c     server.obj
 0002:0000cc34       ??_C@_08MFCDDMLA@?$CCmode?$CC?3?$CC@ 00477c34     server.obj
 0002:0000cc40       ??_C@_0N@LDINFDCN@?$CClength_ms?$CC?3@ 00477c40     server.obj
 0002:0000cc50       ??_C@_0M@FDBLLDNC@?$CCuserids?$CC?3?$FL@ 00477c50     server.obj
 0002:0000cc5c       ??_C@_01IHBHIGKO@?0@       00477c5c     server.obj
 0002:0000cc60       ??_C@_01BJJEKLCA@?$CC@     00477c60     server.obj
 0002:0000cc64       ??_C@_03CMGEKAJC@?$FN?0?6@ 00477c64     server.obj
 0002:0000cc68       ??_C@_09DPMIDKME@?$CCteams?$CC?3?$FL@ 00477c68     server.obj
 0002:0000cc74       ??_C@_08FHNCBNGN@?$CCfrags?$CC?3@ 00477c74     server.obj
 0002:0000cc80       ??_C@_0L@NPOGNEDD@?$CCplayers?$CC?3@ 00477c80     server.obj
 0002:0000cc8c       ??_C@_07BCOOBCLI@?$CCteam?$CC?3@ 00477c8c     server.obj
 0002:0000cc94       ??_C@_03BDENKPLM@?6?$HL?6@ 00477c94     server.obj
 0002:0000cc98       ??_C@_0L@HGBJNCGF@?0?6?$CCflags?$CC?3@ 00477c98     server.obj
 0002:0000cca4       ??_C@_02JHLIKEIA@?6?$HN@   00477ca4     server.obj
 0002:0000cca8       ??_C@_0M@OGEAADFN@?$CCplayers?$CC?3?$FL@ 00477ca8     server.obj
 0002:0000ccb4       ??_C@_09LNIDENJM@?$CCdeaths?$CC?3@ 00477cb4     server.obj
 0002:0000ccc0       ??_C@_08GCEAOCEH@?$CCkills?$CC?3@ 00477cc0     server.obj
 0002:0000cccc       ??_C@_08DMJMBBMG@?$CCname?$CC?3?$CC@ 00477ccc     server.obj
 0002:0000ccd8       ??_C@_0BD@MCHCNJPC@?$CCpersistent_uid?$CC?3?$CC@ 00477cd8     server.obj
 0002:0000ccec       ??_C@_02POELJMLF@?$FN?$HN@ 00477cec     server.obj
 0002:0000ccf0       ??_C@_1DC@BLNPGDLB@?$AA?1?$AAa?$AAp?$AAi?$AA?1?$AAl?$AAi?$AAn?$AAk?$AA?1?$AAe?$AAn?$AAd?$AAg?$AAa@ 00477cf0     server.obj
 0002:0000cd24       ??_C@_0BM@OIABKPEG@https?3?1?1ac?9secure?9arena?4com@ 00477d24     server.obj
 0002:0000cd40       ??_C@_0CP@MCFIFDAJ@Match?5results?5uploaded?5successf@ 00477d40     server.obj
 0002:0000cd70       ??_C@_0DI@POGDDKIL@Failed?5to?5upload?5match?5results?5@ 00477d70     server.obj
 0002:0000cda8       ??_C@_0DP@DOMNNEAP@omitted?5?$CFd?5vitas?5from?5autosave?5@ 00477da8     server.obj
 0002:0000cde8       ??_C@_0BJ@PKEDLOJP@thread?5management?5mishap@ 00477de8     server.obj
 0002:0000ce04       ??_C@_0BG@CFKPHLOP@waking?5readmapsthread@ 00477e04     server.obj
 0002:0000ce1c       ??_C@_0CD@MIFDONNE@marked?5servermap?5?$CFs?$CFs?5for?5delet@ 00477e1c     server.obj
 0002:0000ce40       ??_C@_0BF@HIMPDODE@added?5servermap?5?$CFs?$CFs@ 00477e40     server.obj
 0002:0000ce58       ??_C@_0BE@GAFHDIMN@added?5?$CFd?5servermaps@ 00477e58     server.obj
 0002:0000ce6c       ??_C@_0BO@MGFICHNK@read?1updated?5?$CFd?5vitas?5from?5?$CFs@ 00477e6c     server.obj
 0002:0000ce8c       ??_C@_0CB@GJIJECNO@?$CFsdebug?1maprot_debug_verbose?4tx@ 00477e8c     server.obj
 0002:0000ceb0       ??_C@_0CE@KGFEEEDI@?$CFsdebug?1serverparameter_dump_?$CFs@ 00477eb0     server.obj
 0002:0000ced4       ??_C@_0BP@MDEHMDAC@?1?1?5server?5parameter?5dump?0?5?$CFs?6?6@ 00477ed4     server.obj
 0002:0000cef4       ??_C@_0BD@ODGOJFKA@gamepenalty_cutoff@ 00477ef4     server.obj
 0002:0000cf08       ??_C@_0BD@KLPEKIDB@gamepenalty_random@ 00477f08     server.obj
 0002:0000cf1c       ??_C@_0BC@GKFAHACG@mappenalty_cutoff@ 00477f1c     server.obj
 0002:0000cf30       ??_C@_0BC@NFLJOMGF@mappenalty_weight@ 00477f30     server.obj
 0002:0000cf44       ??_C@_0BD@FJAJIEMD@modepenalty_weight@ 00477f44     server.obj
 0002:0000cf58       ??_C@_0BC@KIPLHDNK@no?5maps?5available@ 00477f58     server.obj
 0002:0000cf6c       ??_C@_0BA@PJKANJGC@dumpsuggestions@ 00477f6c     server.obj
 0002:0000cf7c       ??_C@_0CG@MNEPGHMA@?$CFsdebug?1maprotsuggestions_dump_@ 00477f7c     server.obj
 0002:0000cfa4       ??_C@_0DA@LACADAHB@?1?1?5maprot?5suggestions?5dump?0?5?$CFs?6@ 00477fa4     server.obj
 0002:0000cfd8       ??_C@_0EN@HHMGDAEB@map?3?5?$CC?$CFs?$CFs?$CC?0?5weight?3?5?$CFd?0?5bestmo@ 00477fd8     server.obj
 0002:0000d028       ??_C@_03LFPLOMCK@ri2@      00478028     server.obj
 0002:0000d02c       ??_C@_03FMJJJCGO@ris@      0047802c     server.obj
 0002:0000d030       ??_C@_05NIBAONCA@ri7vv@    00478030     server.obj
 0002:0000d038       ??_C@_0BA@JCCALKHB@demo_max_number@ 00478038     server.obj
 0002:0000d048       ??_C@_09GMFLEFFF@demo_save@ 00478048     server.obj
 0002:0000d054       ??_C@_09JNNBJFKG@demo_path@ 00478054     server.obj
 0002:0000d060       ??_C@_0BC@EIGICDCI@?$CFw_?$CFh_?$CFn_?$CFMmin_?$CFG@ 00478060     server.obj
 0002:0000d074       ??_C@_0BE@BFPKGCND@demo_filenameformat@ 00478074     server.obj
 0002:0000d088       ??_C@_0M@BMHEADLN@?$CFY?$CFm?$CFd_?$CFH?$CFM@ 00478088     server.obj
 0002:0000d094       ??_C@_0BF@GGGJELDC@demo_timestampformat@ 00478094     server.obj
 0002:0000d0ac       ??_C@_0L@BJNPPEAF@demo_debug@ 004780ac     server.obj
 0002:0000d0b8       ??_C@_0BP@OLDDNPIE@dropping?5demo?5?$CD?$CFd?5?$CC?$CFs?$CC?0?5age?5?$CFd@ 004780b8     server.obj
 0002:0000d0d8       ??_C@_0EC@HKMMDGBK@clearing?5unfinished?5demo?5slot?5?$CD@ 004780d8     server.obj
 0002:0000d11c       ??_C@_0CK@MFCNDDPB@initdemoslot?$CI?$CJ?3?5use?5slot?5?$CFd?0?5se@ 0047811c     server.obj
 0002:0000d148       ??_C@_0DA@OGODHFHA@demoworkerthread?$CI?$CJ?3?5close?5slot?5@ 00478148     server.obj
 0002:0000d178       ??_C@_0BA@JPHJNOJK@SERVDEMOEND?$DM?$CFs?$DO@ 00478178     server.obj
 0002:0000d188       ??_C@_0CJ@OIKHEPIJ@demo?5?$CD?$CFd?5written?5to?5file?5?$CC?$CFs?$CC?5?$CI@ 00478188     server.obj
 0002:0000d1b4       ??_C@_0CG@OHBOMEGA@failed?5to?5write?5demo?5?$CD?$CFd?5to?5fil@ 004781b4     server.obj
 0002:0000d1dc       ??_C@_0DP@LOILALCF@recording?5demo?5?$CD?$CFd?5?$CC?$CFs?$CC?5?$CI?$CFd?5byt@ 004781dc     server.obj
 0002:0000d21c       ??_C@_0DC@MMCDJGLP@demoworkerthread?$CI?$CJ?3?5cleanup?5slo@ 0047821c     server.obj
 0002:0000d250       ??_C@_0DG@GFAIIMOC@demorecord?5ringbuffer?5overflow?5@ 00478250     server.obj
 0002:0000d288       ??_C@_0CN@PGIDOPLP@demorecord_beginintermission?$CI?$CJ?3@ 00478288     server.obj
 0002:0000d2b8       ??_C@_03IINIKNLB@rim@      004782b8     server.obj
 0002:0000d2bc       ??_C@_0BO@HKOLOOBI@enddemorecord?$CI?$CJ?3?5sequence?5?$CD?$CFd@ 004782bc     server.obj
 0002:0000d2dc       ??_C@_0BE@HLAIMMHL@Demo?5?$CD?$CFd?5discarded?4@ 004782dc     server.obj
 0002:0000d2f0       ??_C@_0L@LCAANBFG@?$CFs?3?5?$CFs?0?5?$CFs@ 004782f0     server.obj
 0002:0000d2fc       ??_C@_07DNFOMHCC@?0?5?$CFd?5mr@ 004782fc     server.obj
 0002:0000d304       ??_C@_0L@DMPMECKM@?$CFs?0?5?$CF?42fMB@ 00478304     server.obj
 0002:0000d310       ??_C@_0EC@GAFPDJMH@Demo?5?$CD?$CFd?5?$CC?$CFs?$CC?5recorded?6Press?5F1@ 00478310     server.obj
 0002:0000d354       ??_C@_0BE@NBIGHJFK@Demo?5?$CC?$CFs?$CC?5recorded?4@ 00478354     server.obj
 0002:0000d368       ??_C@_08ILKDANLA@?$CFs?$CFs?4dmo@ 00478368     server.obj
 0002:0000d374       ??_C@_0P@KHAJHHDM@recording?5demo@ 00478374     server.obj
 0002:0000d384       ??_C@_0BO@GOLBMBCF@Demo?5recording?5started?5?$CI?$CD?$CFd?$CJ?4@ 00478384     server.obj
 0002:0000d3a4       ??_C@_0BB@GEJJBCDD@ASSAULTCUBE_DEMO@ 004783a4     server.obj
 0002:0000d3b8       ??_C@_0O@IJJBOPPC@?$CFs?0?5?$CFs?0?5?$CFs?5?$CFs@ 004783b8     server.obj
 0002:0000d3c8       ??_C@_0CK@IGGJNCL@setupdemorecord?$CI?$CJ?3?5sequence?5?$CD?$CFd@ 004783c8     server.obj
 0002:0000d3f4       ??_C@_0BC@POHFLPFB@cleared?5all?5demos@ 004783f4     server.obj
 0002:0000d408       ??_C@_0BB@OLHIBGKM@cleared?5demo?5?$CD?$CFd@ 00478408     server.obj
 0002:0000d41c       ??_C@_0DA@IFBLKHCG@?$AM3Sorry?0?5you?5have?5already?5downl@ 0047841c     server.obj
 0002:0000d450       ??_C@_0GA@NOFIKPDG@scheduled?5download?5of?5demo?5?$CD?$CFd?5@ 00478450     server.obj
 0002:0000d4b0       ??_C@_0BH@FGABOCMC@demo?5?$CD?$CFd?5not?5available@ 004784b0     server.obj
 0002:0000d4c8       ??_C@_04BOGJAFCD@risi@     004784c8     server.obj
 0002:0000d4d0       ??_C@_0BH@DDHBGPNA@demo?5playback?5finished@ 004784d0     server.obj
 0002:0000d4e8       ??_C@_0N@KEAIKOPL@demos?1?$CFs?4dmo@ 004784e8     server.obj
 0002:0000d4f8       ??_C@_0BJ@FGMPABJP@could?5not?5read?5demo?5?$CC?$CFs?$CC@ 004784f8     server.obj
 0002:0000d514       ??_C@_0BI@GNMJEANF@?$CC?$CFs?$CC?5is?5not?5a?5demo?5file@ 00478514     server.obj
 0002:0000d52c       ??_C@_05MAMALHE@older@     0047852c     server.obj
 0002:0000d534       ??_C@_05IIOMECNB@newer@    00478534     server.obj
 0002:0000d53c       ??_C@_0DA@ONDKFKJL@demo?5?$CC?$CFs?$CC?5requires?5an?5?$CFs?5versio@ 0047853c     server.obj
 0002:0000d56c       ??_C@_0BC@HOBCLJFH@playing?5demo?5?$CC?$CFs?$CC@ 0047856c     server.obj
 0002:0000d580       ??_C@_06HJADOMEE@is?5afk@  00478580     server.obj
 0002:0000d588       ??_C@_0L@NNJGPDOG@?$FL?$CFs?$FN?5?$CFs?5?$CFs@ 00478588     server.obj
 0002:0000d594       ??_C@_09JOMJAOJO@?$CFs?5is?5afk@ 00478594     server.obj
 0002:0000d5a0       ??_C@_0CD@KHFJCHFC@kicked?5for?5excessive?5friendly?5f@ 004785a0     server.obj
 0002:0000d5c4       ??_C@_0P@GCHGGLJK@tried?5to?5touch@ 004785c4     server.obj
 0002:0000d5d4       ??_C@_07PLFLGKJL@touched@  004785d4     server.obj
 0002:0000d5dc       ??_C@_0CN@FJEMGDMH@?$FL?$CFs?$FN?5?$CFs?5?$CFs?5the?5?$CFs?5flag?5at?5dista@ 004785dc     server.obj
 0002:0000d60c       ??_C@_06BHKKDCOF@riiiii@   0047860c     server.obj
 0002:0000d614       ??_C@_05CJOCHPGC@riiii@    00478614     server.obj
 0002:0000d620       ??_C@_0FE@GCHNFFAA@aborting?5flagaction?$CIflag?5?$CFd?0?5ac@ 00478620     server.obj
 0002:0000d674       ??_C@_04PNICDIF@riii@      00478674     server.obj
 0002:0000d67c       ??_C@_05PFNLCNMP@stole@    0047867c     server.obj
 0002:0000d684       ??_C@_09CEJFKJLO@picked?5up@ 00478684     server.obj
 0002:0000d690       ??_C@_0BE@CBGFHNGN@?$FL?$CFs?$FN?5?$CFs?5?$CFs?5the?5flag@ 00478690     server.obj
 0002:0000d6a4       ??_C@_04BLLOBPAA@lost@     004786a4     server.obj
 0002:0000d6ac       ??_C@_07JBEJBFGB@dropped@  004786ac     server.obj
 0002:0000d6b4       ??_C@_0BK@CCLBGGOC@?$FL?$CFs?$FN?5?$CFs?5returned?5the?5flag@ 004786b4     server.obj
 0002:0000d6d0       ??_C@_0CN@PJGDHNFE@?$FL?$CFs?$FN?5?$CFs?5hunted?5the?5flag?5for?5?$CFs?0@ 004786d0     server.obj
 0002:0000d700       ??_C@_0DC@PGHOIBJI@?$FL?$CFs?$FN?5?$CFs?5scored?5with?5the?5flag?5fo@ 00478700     server.obj
 0002:0000d734       ??_C@_0DG@LBKOGMMH@?$FL?$CFs?$FN?5?$CFs?5scored?0?5carrying?5for?5?$CFd@ 00478734     server.obj
 0002:0000d76c       ??_C@_0BI@PALEAONP@?$FL?$CFs?$FN?5?$CFs?5failed?5to?5score@ 0047876c     server.obj
 0002:0000d784       ??_C@_0CN@PFEJALKB@flagaction?5?$CFd?0?5actor?5?$CFd?0?5flag?5?$CF@ 00478784     server.obj
 0002:0000d7b4       ??_C@_0CG@ENALELKK@the?5server?5reset?5the?5flag?5for?5t@ 004787b4     server.obj
 0002:0000d7dc       ??_C@_0DM@HGHNGCDE@flagaction?5?$CFd?5with?5invalid?5acto@ 004787dc     server.obj
 0002:0000d818       ??_C@_0CG@PNFJOKHN@?$FL?$CFs?$FN?5?$CFs?5got?5forced?5to?5pickup?5th@ 00478818     server.obj
 0002:0000d840       ??_C@_0DN@JFGDIDCG@?$FL?$CFs?$FN?5tried?5to?5pick?5up?5entity?5?$CD?$CF@ 00478840     server.obj
 0002:0000d880       ??_C@_0FG@DOFPPKEH@?$FL?$CFs?$FN?5tried?5to?5pick?5up?5entity?5?$CD?$CF@ 00478880     server.obj
 0002:0000d8d8       ??_C@_0O@OIIGAAOA@tried?5to?5pick@ 004788d8     server.obj
 0002:0000d8e8       ??_C@_06NMDIHEMP@picked@   004788e8     server.obj
 0002:0000d8f0       ??_C@_0DC@GNGKALCE@?$FL?$CFs?$FN?5?$CFs?5?$CFs?5up?5entity?5?$CD?$CFd?5?$CI?$CFs?$CJ?0?5@ 004788f0     server.obj
 0002:0000d924       ??_C@_03KMOANNGL@ri3@      00478924     server.obj
 0002:0000d928       ??_C@_03MIIMBIGP@ri7@      00478928     server.obj
 0002:0000d92c       ??_C@_03NBJHCJCO@ri6@      0047892c     server.obj
 0002:0000d930       ??_C@_0BB@OKHBFNLA@?$FL?$CFs?$FN?5?$CFs?5suicided@ 00478930     server.obj
 0002:0000d944       ??_C@_03PKLKHKON@ri5@      00478944     server.obj
 0002:0000d948       ??_C@_0BA@HNEOCNBG@?5their?5teammate@ 00478948     server.obj
 0002:0000d958       ??_C@_07NLFOLLKK@smurfed@  00478958     server.obj
 0002:0000d960       ??_C@_0BA@INPKPLLM@?$FL?$CFs?$FN?5?$CFs?5?$CFs?$CFs?5?$CFs@ 00478960     server.obj
 0002:0000d970       ??_C@_04DLOBGJBI@ri6x@     00478970     server.obj
 0002:0000d978       ??_C@_06DIJPEION@?$CFs?$CFs?$CFs@ 00478978     server.obj
 0002:0000d980       ??_C@_0CC@EIJPODON@using?5randomness?5to?5shuffle?5tea@ 00478980     server.obj
 0002:0000d9a4       ??_C@_05FNONLPDI@match@    004789a4     server.obj
 0002:0000d9ac       ??_C@_04CGHPDPGO@vita@     004789ac     server.obj
 0002:0000d9b4       ??_C@_0CF@PADODCHH@using?5?$CFs?5skill?5data?5to?5shuffle?5@ 004789b4     server.obj
 0002:0000d9dc       ??_C@_0BD@FFGHKNDI@startgame?$CI?$CJ?5abused@ 004789dc     server.obj
 0002:0000d9f0       ??_C@_0CE@EHBHDKNC@server?5description?5reset?5to?5def@ 004789f0     server.obj
 0002:0000da14       ??_C@_0CB@PAJFFLK@server?5description?5reset?5to?5?8?$CFs@ 00478a14     server.obj
 0002:0000da38       ??_C@_0BE@BMIIOCCM@servermap?5not?5found@ 00478a38     server.obj
 0002:0000da4c       ??_C@_07MGAFENNG@risiiii@  00478a4c     server.obj
 0002:0000da54       ??_C@_0DO@ENANGNME@Game?5start?3?5?$CFs?5on?5?$CFs?0?5?$CFd?5player@ 00478a54     server.obj
 0002:0000da94       ??_C@_0O@PBFGJBDN@teamsize?5?$CFd?0?5@ 00478a94     server.obj
 0002:0000daa4       ??_C@_04LKOGMCLF@not?5@    00478aa4     server.obj
 0002:0000daac       ??_C@_0CJ@GKDJPFAP@?$CImap?5rev?5?$CFd?1?$CFd?0?5?$CFs?0?5?8getmap?8?5?$CFs@ 00478aac     server.obj
 0002:0000dad8       ??_C@_0BN@IEDHGJLO@error?3?5failed?5to?5preload?5map@ 00478ad8     server.obj
 0002:0000daf8       ??_C@_03ILJCGOLJ@?6?$CFs@  00478af8     server.obj
 0002:0000dafc       ??_C@_0BB@CBKCJIPK@invalid?5map?5name@ 00478afc     server.obj
 0002:0000db10       ??_C@_0CC@PHGHJOLD@the?5server?5does?5not?5have?5this?5m@ 00478b10     server.obj
 0002:0000db34       ??_C@_0BJ@GHAEIAPJ@first?5do?5a?3?5?$AM1sendmap?5?$CFs@ 00478b34     server.obj
 0002:0000db50       ??_C@_0CD@CFHMDAPO@?$AM3map?5?$CC?$CFs?$CC?5does?5not?5support?5?$CC?$CFs@ 00478b50     server.obj
 0002:0000db74       ??_C@_0BA@JLKMKDLC@map?5is?5readonly@ 00478b74     server.obj
 0002:0000db84       ??_C@_0BK@OCCJAJBH@player?5spawns?5?$CIminimum?35?$CJ@ 00478b84     server.obj
 0002:0000dba0       ??_C@_05OMGAMCPJ@?5and?5@  00478ba0     server.obj
 0002:0000dba8       ??_C@_0L@GLKDCPGP@flag?5bases@ 00478ba8     server.obj
 0002:0000dbb4       ??_C@_08NDNIJDBN@?5missing@ 00478bb4     server.obj
 0002:0000dbc0       ??_C@_02DKCKIIND@?$CFs@    00478bc0     server.obj
 0002:0000dbc4       ??_C@_0BL@ODOLBKFO@load?5map?5?8?$CFs?8?5in?5mode?5?8?$CFs?8@ 00478bc4     server.obj
 0002:0000dbe0       ??_C@_0BE@CMIJKKAF@?5?$CIin?5the?5next?5game?$CJ@ 00478be0     server.obj
 0002:0000dbf4       ??_C@_0BL@KLCOLIHG@force?5player?5?$CFs?5to?5team?5?$CFs@ 00478bf4     server.obj
 0002:0000dc10       ??_C@_0BL@DAFFAHDF@kick?5player?5?$CFs?0?5reason?3?5?$CFs@ 00478c10     server.obj
 0002:0000dc2c       ??_C@_0BK@DFKEPACD@ban?5player?5?$CFs?0?5reason?3?5?$CFs@ 00478c2c     server.obj
 0002:0000dc48       ??_C@_0BA@CMODEPPP@remove?5all?5bans@ 00478c48     server.obj
 0002:0000dc58       ??_C@_0P@CFBNFONL@pause?5the?5game@ 00478c58     server.obj
 0002:0000dc68       ??_C@_0BA@FDKDGHPE@resume?5the?5game@ 00478c68     server.obj
 0002:0000dc78       ??_C@_0BK@MACNFFGB@change?5mastermode?5to?5?8?$CFs?8@ 00478c78     server.obj
 0002:0000dc94       ??_C@_06OFNJOBDK@enable@   00478c94     server.obj
 0002:0000dc9c       ??_C@_07DBNODEFN@disable@  00478c9c     server.obj
 0002:0000dca4       ??_C@_0M@PLOEBEDN@?$CFs?5autoteam@ 00478ca4     server.obj
 0002:0000dcb0       ??_C@_0O@NPMMHHAE@shuffle?5teams@ 00478cb0     server.obj
 0002:0000dcc0       ??_C@_0CA@LOAMFEOG@shuffle?5teams?5requires?5teammode@ 00478cc0     server.obj
 0002:0000dce0       ??_C@_0O@MDFFACOL@?$CFs?5demorecord@ 00478ce0     server.obj
 0002:0000dcf0       ??_C@_0O@KGFFHOAE@clear?5demo?5?$CFd@ 00478cf0     server.obj
 0002:0000dd00       ??_C@_0BP@LFNDKAFG@set?5server?5description?5to?5?8?$CFs?8@ 00478d00     server.obj
 0002:0000dd20       ??_C@_02KAJCLHKP@no@       00478d20     server.obj
 0002:0000dd24       ??_C@_03ICICOMAL@yes@      00478d24     server.obj
 0002:0000dd28       ??_C@_0BI@NAACJIDA@?$FL?$CFs?$FN?5client?5?$CFs?5voted?5?$CFs@ 00478d28     server.obj
 0002:0000dd40       ??_C@_02ODPEEKDN@ri@       00478d40     server.obj
 0002:0000dd44       ??_C@_09DJENBFJK@?$FLunknown?$FN@ 00478d44     server.obj
 0002:0000dd50       ??_C@_0CB@EFMKMBHI@?$FL?$CFs?$FN?5client?5?$CFs?5called?5a?5vote?3?5?$CF@ 00478d50     server.obj
 0002:0000dd74       ??_C@_0CC@GBCGBFMK@?$AM3shuffle?5teams?5requires?5teammo@ 00478d74     server.obj
 0002:0000dd98       ??_C@_0CO@OGJCHPFO@?$FL?$CFs?$FN?5client?5?$CFs?5failed?5to?5call?5a@ 00478d98     server.obj
 0002:0000ddc8       ??_C@_09BHGEMBEK@?$FLunnamed?$FN@ 00478dc8     server.obj
 0002:0000ddd4       ??_C@_0CO@GHJIOCFJ@?$FL?$CFs?$FN?5player?5?$CFs?5used?5admin?5passw@ 00478dd4     server.obj
 0002:0000de08       ??_C@_0ED@FNKAJAPE@?$FL?$CFs?$FN?5player?5?$CFs?5claimed?5admin?5th@ 00478e08     server.obj
 0002:0000de4c       ??_C@_0O@BMJKFEFI@normal?5player@ 00478e4c     server.obj
 0002:0000de5c       ??_C@_0CB@LMBFBACF@?$FL?$CFs?$FN?5set?5role?5of?5player?5?$CFs?5to?5?$CF@ 00478e5c     server.obj
 0002:0000de80       ??_C@_03OMLEGILF@rii@      00478e80     server.obj
 0002:0000de84       ??_C@_04DMOIMBME@ri2x@     00478e84     server.obj
 0002:0000de8c       ??_C@_0BO@NGFOAFKD@Waiting?5for?5players?4?4?4?5?$CI?$CFd?12?$CJ@ 00478e8c     server.obj
 0002:0000deac       ??_C@_0CB@HIOBDLEH@Match?5ready?$CB?5Spawning?5players?4?4@ 00478eac     server.obj
 0002:0000ded0       ??_C@_0O@GBHLNNFC@?0?5score?5saved@ 00478ed0     server.obj
 0002:0000dee0       ??_C@_0DN@CHPBBPC@?$FL?$CFs?$FN?5disconnecting?5client?5?$CFs?5?$CI?$CF@ 00478ee0     server.obj
 0002:0000df20       ??_C@_0DH@BODBKIPC@?$FL?$CFs?$FN?5disconnected?5client?5?$CFs?5cn?5@ 00478f20     server.obj
 0002:0000df58       ??_C@_09NNHJADML@ri3i8ivvi@ 00478f58     server.obj
 0002:0000df64       ??_C@_09BHIGKPDD@ri6IIIi3k@ 00478f64     server.obj
 0002:0000df70       ??_C@_07DAFEBGJG@riimiss@  00478f70     server.obj
 0002:0000df78       ??_C@_0P@MOLAMMIG@auth_verify_ip@ 00478f78     server.obj
 0002:0000df88       ??_C@_0EE@EJGEAAAN@?$FL?$CFs?$FN?5client?5reported?5different?5@ 00478f88     server.obj
 0002:0000dfcc       ??_C@_0DC@GGLLMHCL@SERVINFOCHALLENGE?$DM?$CI?$CFd?$CJ?5cn?3?5?$CFd?5c@ 00478fcc     server.obj
 0002:0000e000       ??_C@_0BI@MKKOMFOE@?5?$CFs?5st?3?5?$CFd?5ct?3?5?$CFd?5?$CI?$CFd?$CJ?$DO@ 00479000     server.obj
 0002:0000e018       ??_C@_0BD@IJOJOPMD@SERVINFOSIGNED?$DM?$CFs?$DO@ 00479018     server.obj
 0002:0000e02c       ??_C@_0M@JBAACIJC@?0?5AC?3?5?$CFd?$HM?$CFx@ 0047902c     server.obj
 0002:0000e038       ??_C@_0N@FELMAHAH@?0?5pubkey?3?5?$CFs@ 00479038     server.obj
 0002:0000e048       ??_C@_0BL@IHGBIFAL@?0?5nickname?5whitelist?5match@ 00479048     server.obj
 0002:0000e064       ??_C@_0BH@LEGOAJIM@?0?5vita?5whitelist?5match@ 00479064     server.obj
 0002:0000e07c       ??_C@_0CJ@MNMCBDLD@?$FL?$CFs?$FN?5?$CFs?5logged?5in?5?$CIreconnect?5to@ 0047907c     server.obj
 0002:0000e0a8       ??_C@_03OIFAJNHF@PWD@      004790a8     server.obj
 0002:0000e0ac       ??_C@_0DB@CAFCEIDH@?$FL?$CFs?$FN?5?8?$CFs?8?5matches?5nickname?5whit@ 004790ac     server.obj
 0002:0000e0e0       ??_C@_0CP@FMIPILOP@?$FL?$CFs?$FN?5?8?$CFs?8?5matches?5nickname?5blac@ 004790e0     server.obj
 0002:0000e110       ??_C@_0O@PLGNHIKI@?0?5ban?5removed@ 00479110     server.obj
 0002:0000e120       ??_C@_0DI@PDCCIHHC@?$FL?$CFs?$FN?5?$CFs?5logged?5in?5using?5the?5adm@ 00479120     server.obj
 0002:0000e158       ??_C@_0CP@IBLJBKAC@?$FL?$CFs?$FN?5?$CFs?5logged?5in?5using?5the?5vit@ 00479158     server.obj
 0002:0000e188       ??_C@_0DC@FAPPFMOC@?$FL?$CFs?$FN?5?$CFs?5client?5logged?5in?5?$CIusing@ 00479188     server.obj
 0002:0000e1bc       ??_C@_0BO@IFDANLCP@?$FL?$CFs?$FN?5?$CFs?5logged?5in?5?$CIdefault?$CJ?$CFs@ 004791bc     server.obj
 0002:0000e1dc       ??_C@_0BL@CBDFDHFH@?$DMNULL?$DO?5client?5in?5process?$CI?$CJ@ 004791dc     server.obj
 0002:0000e1f8       ??_C@_05GKIADEAH@?$CIme?$CJ?5@ 004791f8     server.obj
 0002:0000e200       ??_C@_0CA@NOOICLB@?$FL?$CFs?$FN?5?$CFs?$CFs?5says?5to?5team?5?$CFs?3?5?8?$CFs?8@ 00479200     server.obj
 0002:0000e220       ??_C@_0O@CJDLHKDA@SPAM?5detected@ 00479220     server.obj
 0002:0000e230       ??_C@_0BB@MMLLCPDI@Forbidden?5speech@ 00479230     server.obj
 0002:0000e244       ??_C@_0CE@GHKEIHML@?$FL?$CFs?$FN?5?$CFs?$CFs?5says?5to?5team?5?$CFs?3?5?8?$CFs?8@ 00479244     server.obj
 0002:0000e268       ??_C@_0DG@IDLCDFAJ@?$AM3Please?5do?5not?5spam?$DL?5your?5mess@ 00479268     server.obj
 0002:0000e2a0       ??_C@_0DH@MADHHECP@?$AM3Watch?5your?5language?$CB?5Your?5mes@ 004792a0     server.obj
 0002:0000e2d8       ??_C@_0BF@JEKPNMLI@?$FL?$CFs?$FN?5?$CFs?$CFs?5says?3?5?8?$CFs?8@ 004792d8     server.obj
 0002:0000e2f0       ??_C@_06LNEICABJ@riiuis@   004792f0     server.obj
 0002:0000e2f8       ??_C@_0BJ@BMDPJOFP@?$FL?$CFs?$FN?5?$CFs?$CFs?5says?3?5?8?$CFs?8?0?5?$CFs@ 004792f8     server.obj
 0002:0000e314       ??_C@_07BHLLLGNC@allowed@  00479314     server.obj
 0002:0000e31c       ??_C@_0L@BNMPONEH@disallowed@ 0047931c     server.obj
 0002:0000e328       ??_C@_0BO@FJIADOJP@?$FL?$CFs?$FN?5?$CFs?5says?5to?5?$CFs?3?5?8?$CFs?8?5?$CI?$CFs?$CJ@ 00479328     server.obj
 0002:0000e348       ??_C@_05JJMPIFLJ@riiis@    00479348     server.obj
 0002:0000e350       ??_C@_0BN@HBPFNFPO@?$FL?$CFs?$FN?5?$CFs?5says?5to?5?$CFs?3?5?8?$CFs?8?0?5?$CFs@ 00479350     server.obj
 0002:0000e370       ??_C@_0DA@HEHLCMOG@?$FL?$CFs?$FN?5?$CFs?5is?5now?5on?5the?5right?5map@ 00479370     server.obj
 0002:0000e3a0       ??_C@_0CM@DAHMHNME@?$FL?$CFs?$FN?5?$CFs?5is?5on?5the?5wrong?5map?3?5re@ 004793a0     server.obj
 0002:0000e3cc       ??_C@_0BL@KCDEMBPD@?$FL?$CFs?$FN?5?$CFs?5changed?5name?5to?5?$CFs@ 004793cc     server.obj
 0002:0000e3e8       ??_C@_0BF@KMJHPLNN@?$AM3Please?5do?5not?5spam@ 004793e8     server.obj
 0002:0000e400       ??_C@_0DD@CAPPLCII@?$FL?$CFs?$FN?5?8?$CFs?8?5matches?5nickname?5whit@ 00479400     server.obj
 0002:0000e434       ??_C@_0CN@KJALLOBA@?$FL?$CFs?$FN?5?8?$CFs?8?5matches?5nickname?5blac@ 00479434     server.obj
 0002:0000e464       ??_C@_02PDIHAGKM@ii@       00479464     server.obj
 0002:0000e468       ??_C@_09DJPLOHAF@map?5is?5RO@ 00479468     server.obj
 0002:0000e474       ??_C@_0CK@ONEGOBN@?$AM3map?5upload?5rejected?3?5map?5?$CFs?5i@ 00479474     server.obj
 0002:0000e4a0       ??_C@_0CD@OBIDBOGI@server?5incoming?5reached?5its?5lim@ 004794a0     server.obj
 0002:0000e4c4       ??_C@_0DI@BEFFHL@?$AM3server?5does?5not?5support?5more?5@ 004794c4     server.obj
 0002:0000e4fc       ??_C@_0CB@LJBAEAOB@no?5permission?5for?5initial?5uploa@ 004794fc     server.obj
 0002:0000e520       ??_C@_0DE@CIKMLDDH@?$AM3initial?5map?5upload?5rejected?3?5@ 00479520     server.obj
 0002:0000e554       ??_C@_0BI@OADHIB@no?5permission?5to?5update@ 00479554     server.obj
 0002:0000e56c       ??_C@_0CM@JIIFFCLH@?$AM3map?5update?5rejected?3?5you?5need@ 0047956c     server.obj
 0002:0000e598       ??_C@_0BF@CJFJOKOP@fake?5revision?5number@ 00479598     server.obj
 0002:0000e5b0       ??_C@_0CB@FJFDAIAP@no?5permission?5to?5revert?5revisio@ 004795b0     server.obj
 0002:0000e5d8       ??_C@_0FF@ECGOCJEE@?$AM3map?5revert?5to?5older?5revision?5@ 004795d8     server.obj
 0002:0000e630       ??_C@_0DH@LBDLOLFL@?$FL?$CFs?$FN?5?$CFs?5sent?5map?5?$CFs?0?5rev?5?$CFd?0?5?$CFd@ 00479630     server.obj
 0002:0000e668       ??_C@_04EONOHKEP@load@     00479668     server.obj
 0002:0000e670       ??_C@_03GILJFNFC@dat@      00479670     server.obj
 0002:0000e674       ??_C@_0BO@MDELMJLP@?$CFs?5?$CI?$CFd?$CJ?5up?$CFsed?5map?5?$CFs?0?5rev?5?$CFd@ 00479674     server.obj
 0002:0000e694       ??_C@_0BO@CECMOOHG@write?5failed?5?$CIno?5?8incoming?8?$DP?$CJ@ 00479694     server.obj
 0002:0000e6b4       ??_C@_0BE@HPANOEPL@?$AM3map?5upload?5failed@ 004796b4     server.obj
 0002:0000e6c8       ??_C@_0CJ@BJJNMFFF@?$FL?$CFs?$FN?5?$CFs?5sent?5map?5?$CFs?5rev?5?$CFd?0?5rej@ 004796c8     server.obj
 0002:0000e6f4       ??_C@_0CJ@PECHPKFK@?$CFd?3?$CFs?5GETMAP?5while?5on?5right?5map@ 004796f4     server.obj
 0002:0000e720       ??_C@_0BL@BOFNIBMK@you?8re?5already?5on?5this?5map@ 00479720     server.obj
 0002:0000e73c       ??_C@_0O@NHNGNFAH@no?5permission@ 0047973c     server.obj
 0002:0000e74c       ??_C@_0O@BFHFLMAO@map?5not?5found@ 0047974c     server.obj
 0002:0000e75c       ??_C@_0BB@FGOGBDN@map?5?8?$CFs?8?5deleted@ 0047975c     server.obj
 0002:0000e770       ??_C@_0BE@EMOFJHIM@?$FL?$CFs?$FN?5deleted?5map?5?$CFs@ 00479770     server.obj
 0002:0000e784       ??_C@_0CA@ILMNBPFM@?$FL?$CFs?$FN?5deleting?5map?5?$CFs?5failed?3?5?$CFs@ 00479784     server.obj
 0002:0000e7a4       ??_C@_0BM@GGPEIGEI@?$AM3can?8t?5delete?5map?5?8?$CFs?8?0?5?$CFs@ 004797a4     server.obj
 0002:0000e7c0       ??_C@_0CB@LJCFJLOA@unable?5to?5get?5next?5map?5in?5mapro@ 004797c0     server.obj
 0002:0000e7e4       ??_C@_0CA@BMOIGNAC@?$AM3You?5must?5be?5admin?5to?5get?5vita@ 004797e4     server.obj
 0002:0000e804       ??_C@_07HCIHFFCI@riimssv@  00479804     server.obj
 0002:0000e80c       ??_C@_0CD@LPCKNKMO@?$AM3Invalid?5cn?5to?5retrieve?5vita?5d@ 0047980c     server.obj
 0002:0000e830       ??_C@_0BA@NLDGCHEE@driAn?3?3writelog@ 00479830     server.obj
 0002:0000e840       ??_C@_0BK@FGAIABAO@?$FL?$CFs?$FN?5?$CFs?5writes?5to?5log?3?5?$CFs@ 00479840     server.obj
 0002:0000e85c       ??_C@_0BN@KDGBJNAO@your?5message?5has?5been?5logged@ 0047985c     server.obj
 0002:0000e87c       ??_C@_0N@GAIGPAFP@servpar?3?3get@ 0047987c     server.obj
 0002:0000e88c       ??_C@_07DHPDHKIF@?$CFs?5?$DN?5?$CFd@ 0047988c     server.obj
 0002:0000e894       ??_C@_09JGKJLALO@?$CFs?5?$DN?5?$CC?$CFs?$CC@ 00479894     server.obj
 0002:0000e8a0       ??_C@_0BF@LIFHEAFD@servpar?5?$CFs?5not?5found@ 004798a0     server.obj
 0002:0000e8b8       ??_C@_0N@LPPNDAJH@servpar?3?3set@ 004798b8     server.obj
 0002:0000e8c8       ??_C@_02BNFKLOHE@?5?3@     004798c8     server.obj
 0002:0000e8cc       ??_C@_0N@HGMIGPIF@?$CFs?5set?5to?5?$CFs@ 004798cc     server.obj
 0002:0000e8dc       ??_C@_0BJ@ILMOAACM@?$CFs?5cannot?5be?5set?5to?5?$CC?$CFs?$CC@ 004798dc     server.obj
 0002:0000e8f8       ??_C@_0P@ELBNMNKJ@servpar?3?3reset@ 004798f8     server.obj
 0002:0000e908       ??_C@_0DB@FHFPGAAC@reset?5all?5server?5parameters?5to?5@ 00479908     server.obj
 0002:0000e93c       ??_C@_0O@CMJBPFCI@set?3?3teamsize@ 0047993c     server.obj
 0002:0000e94c       ??_C@_0BK@CPKCNLNI@match?5team?5size?5set?5to?5?$CFd@ 0047994c     server.obj
 0002:0000e968       ??_C@_0BF@FJEEOAHC@?$CFd?5minutes?5remaining@ 00479968     server.obj
 0002:0000e980       ??_C@_0CP@GDFHMPGO@Game?5status?3?5?$CFs?5on?5?$CFs?0?5?$CFs?0?5?$CFs?0?5@ 00479980     server.obj
 0002:0000e9b0       ??_C@_03OLOABHEL@tk?5@     004799b0     server.obj
 0002:0000e9b4       ??_C@_05JHNEEBDG@flag?5@   004799b4     server.obj
 0002:0000e9bc       ??_C@_05NJENAFAB@team?5@   004799bc     server.obj
 0002:0000e9c4       ??_C@_0DI@BECOJFKK@cn?5name?5?5?5?5?5?5?5?5?5?5?5?5?5?$CFs?$CFs?5frag?5d@ 004799c4     server.obj
 0002:0000e9fc       ??_C@_0L@FLMJEJEO@?$CF2d?5?$CF?916s?5@ 004799fc     server.obj
 0002:0000ea08       ??_C@_05JMHHLMDB@?$CF?94s?5@ 00479a08     server.obj
 0002:0000ea10       ??_C@_04JFOPIADO@?$CF4d?5@ 00479a10     server.obj
 0002:0000ea18       ??_C@_07JBBOHJHJ@?$CF4d?5?$CF5d@ 00479a18     server.obj
 0002:0000ea20       ??_C@_04EJIOOHLH@?5?$CF2d@ 00479a20     server.obj
 0002:0000ea28       ??_C@_06CMHGODGB@admin?5@  00479a28     server.obj
 0002:0000ea30       ??_C@_06IKLLLDHL@normal@   00479a30     server.obj
 0002:0000ea38       ??_C@_0N@MHLCINNI@?$CFs?$CF5d?5?$CFs?5?5?$CFs@ 00479a38     server.obj
 0002:0000ea48       ??_C@_03GGOOJDNC@?5?5?9@   00479a48     server.obj
 0002:0000ea4c       ??_C@_0CH@FAJGIMDF@?5?5?5?$CF?916s?5?$CFs?$CF4d?5?$CF5d?$CFs?5?5?5?5?9?5disco@ 00479a4c     server.obj
 0002:0000ea74       ??_C@_0CK@IMNKLHBA@Team?5?$CF4s?3?$CF3d?5players?0?$CF5d?5frags?$CF@ 00479a74     server.obj
 0002:0000eaa0       ??_C@_0BC@FMHGLGFP@Uplink?5quality?5?$FL?5@ 00479aa0     server.obj
 0002:0000eab4       ??_C@_05BFHEBJNP@?$CF02X?5@ 00479ab4     server.obj
 0002:0000eabc       ??_C@_07MPDOLAKI@?$CFs?$FN?5?$CL?$CFd@ 00479abc     server.obj
 0002:0000eac4       ??_C@_0P@NJJPJABJ@mandatory_auth@ 00479ac4     server.obj
 0002:0000ead4       ??_C@_0O@NHNADMEJ@game?5finished@ 00479ad4     server.obj
 0002:0000eae4       ??_C@_0CG@HFFKLFDA@Match?5ended?5?b?$IA?$JE?5server?5shutting@ 00479ae4     server.obj
 0002:0000eb0c       ??_C@_0BC@HOECMGHJ@?$CFd?9?$CFm?9?$CFY?5?$CFH?3?$CFM?3?$CFS@ 00479b0c     server.obj
 0002:0000eb20       ??_C@_0GG@FBKBJGDC@Status?5at?5?$CFs?3?5?$CFd?5remote?5clients@ 00479b20     server.obj
 0002:0000eb88       ??_C@_02BAABKJLB@?9?9@     00479b88     server.obj
 0002:0000eb8c       ??_C@_0BL@OAFPDMPN@?$FL?$CFs?$FN?5client?5connected?5?$CI?$CFs?$CJ@ 00479b8c     server.obj
 0002:0000eba8       ??_C@_02LFNMGJAP@en@       00479ba8     server.obj
 0002:0000ebac       ??_C@_0L@NEBFLIKO@cleargbans@ 00479bac     server.obj
 0002:0000ebb8       ??_C@_0L@GFKKJDPE@addgban?5?$CFs@ 00479bb8     server.obj
 0002:0000ebc4       ??_C@_05GFCDIDHO@debug@    00479bc4     server.obj
 0002:0000ebcc       ??_C@_07KBAMPNJK@verbose@  00479bcc     server.obj
 0002:0000ebd4       ??_C@_04NIDJFNBE@info@     00479bd4     server.obj
 0002:0000ebdc       ??_C@_07FPLKDJGL@warning@  00479bdc     server.obj
 0002:0000ebe4       ??_C@_05KKCIMGE@error@     00479be4     server.obj
 0002:0000ebec       ??_C@_0BF@MELPJPAD@logthreshold_console@ 00479bec     server.obj
 0002:0000ec04       ??_C@_0BE@CCKCJOFH@logthreshold_syslog@ 00479c04     server.obj
 0002:0000ec18       ??_C@_0BC@GBKAKCCH@logthreshold_file@ 00479c18     server.obj
 0002:0000ec2c       ??_C@_0BH@CLLDOHFL@stat_mainlog_peaklevel@ 00479c2c     server.obj
 0002:0000ec44       ??_C@_0BI@HALOOJDJ@stat_theadlog_peaklevel@ 00479c44     server.obj
 0002:0000ec5c       ??_C@_05CKLOHKLO@?$CFs?$CD?$CFd@ 00479c5c     server.obj
 0002:0000ec64       ??_C@_0BP@NNFBIMPD@WARNING?3?5logging?5not?5started?$CB?6@ 00479c64     server.obj
 0002:0000ec88       ??_C@_0EE@BIGINKDB@logging?5local?5AssaultCube?5serve@ 00479c88     server.obj
 0002:0000eccc       ??_C@_0BI@IGOEOFEC@server?5ip?5not?5resolved?$CB@ 00479ccc     server.obj
 0002:0000ece4       ??_C@_0BN@JBKHAIPE@could?5not?5create?5server?5host@ 00479ce4     server.obj
 0002:0000ed04       ??_C@_0BG@JONAACAN@server?5public?5key?3?5?$CFs@ 00479d04     server.obj
 0002:0000ed1c       ??_C@_06EDCEMKKP@?$CFs?4cfg@ 00479d1c     server.obj
 0002:0000ed24       ??_C@_0L@DPJOEBMO@?$CFs_bak?4cfg@ 00479d24     server.obj
 0002:0000ed30       ??_C@_0O@DLDKKHLF@?$CFs_update?4cfg@ 00479d30     server.obj
 0002:0000ed40       ??_C@_0L@HLKLPOEP@?$CFs_update_@ 00479d40     server.obj
 0002:0000ed4c       ??_C@_0BN@KDMADCMC@read?5?$CFd?5player?5vitas?5from?5?$CFs@ 00479d4c     server.obj
 0002:0000ed6c       ??_C@_0CK@LJBFPEPN@holding?5up?5to?5?$CFd?5recorded?5demos@ 00479d6c     server.obj
 0002:0000ed98       ??_C@_0CM@GMDDLLAD@all?5recorded?5demos?5will?5be?5writ@ 00479d98     server.obj
 0002:0000edc4       ??_C@_0BN@OIAEGBEC@vote?5permission?5string?3?5?$CC?$CFs?$CC@ 00479dc4     server.obj
 0002:0000ede4       ??_C@_0BM@OBNBOGNH@map?5permission?5string?3?5?$CC?$CFs?$CC@ 00479de4     server.obj
 0002:0000ee00       ??_C@_0BJ@GEHDALOI@server?5description?3?5?$CC?$CFs?$CC@ 00479e00     server.obj
 0002:0000ee1c       ??_C@_0CM@OMMDKJJC@custom?5server?5description?3?5?$CC?$CFsC@ 00479e1c     server.obj
 0002:0000ee48       ??_C@_0DG@OINLBBKM@maxclients?3?5?$CFd?0?5kick?5threshold?3@ 00479e48     server.obj
 0002:0000ee80       ??_C@_0BI@KBBCAOEI@master?5server?5URL?3?5?$CC?$CFs?$CC@ 00479e80     server.obj
 0002:0000ee98       ??_C@_0BG@MHCIBKLA@server?5password?3?5?$CC?$CFs?$CC@ 00479e98     server.obj
 0002:0000eeb0       ??_C@_0BE@HMFGPNNM@anticheat?3?5disabled@ 00479eb0     server.obj
 0002:0000eec4       ??_C@_0BG@PNJJLFCO@Cannot?5handle?5SIGINT?$CB@ 00479ec4     server.obj
 0002:0000eedc       ??_C@_0BH@PMIKMMFF@Cannot?5handle?5SIGTERM?$CB@ 00479edc     server.obj
 0002:0000eef4       ??_C@_0DB@CMNGHKAG@dedicated?5server?5started?0?5waiti@ 00479ef4     server.obj
 0002:0000ef28       ??_C@_0P@OMKJFPJH@Ctrl?9C?5to?5exit@ 00479f28     server.obj
 0002:0000ef38       ??_C@_0BD@FDPKPJCO@?$CFsreadmaps_log?4txt@ 00479f38     server.obj
 0002:0000ef4c       ??_C@_0BE@EJEIPCIL@?$CFsmisc?1modeinfo?4txt@ 00479f4c     server.obj
 0002:0000ef60       ??_C@_0BM@KMMFFJOE@AssaultCube?5fatal?5error?3?5?$CFs@ 00479f60     server.obj
 0002:0000ef7c       ??_C@_05EMIBFIGM@POSIX@    00479f7c     server.obj
 0002:0000ef84       ??_C@_08GIBDDDIA@?9?9wizard@ 00479f84     server.obj
 0002:0000ef90       ??_C@_0CM@KPPBGDFC@WARNING?3?5unknown?5commandline?5ar@ 00479f90     server.obj
 0002:0000efbc       ??_C@_0CE@BHIAAJAA@Unable?5to?5initialise?5network?5mo@ 00479fbc     server.obj
 0002:0000efe0       ??_C@_02BBAHNLBA@?$CFp@    00479fe0     server.obj
 0002:0000efe4       ??_C@_02MDKMJEGG@eE@       00479fe4     server.obj
 0002:0000efe8       ??_C@_02OOPEBDOJ@pP@       00479fe8     server.obj
 0002:0000efec       ??_C@_0BK@OGNNAFAB@invalid?5hash?5bucket?5count@ 00479fec     server.obj
 0002:0000f008       ??_C@_0BL@GOIGLPKN@unordered_map?1set?5too?5long@ 0047a008     server.obj
 0002:0000f030       ?servermappath_off@@3PBDB  0047a030     server.obj
 0002:0000f034       ?shuffleskillthreshold@@3HA 0047a034     server.obj
 0002:0000f03c       ?spk@@3PAEA                0047a03c     server.obj
 0002:0000f040       ?entscale@@3PAY06EA        0047a040     server.obj
 0002:0000f0c0       ?killmessages@@3PAY08PBDA  0047a0c0     server.obj
 0002:0000f108       ?servermappath_serv@@3PBDB 0047a108     server.obj
 0002:0000f10c       ?servermappath_local@@3PBDB 0047a10c     server.obj
 0002:0000f110       ?entwraparound@@3PAY06FA   0047a110     server.obj
 0002:0000f20c       ?servermappath_incom@@3PBDB 0047a20c     server.obj
 0002:0000f210       ?maprotkeywords@@3PAPBDA   0047a210     server.obj
 0002:0000f240       ?entnames@@3PAPBDA         0047a240     server.obj
 0002:0000f290       ?vskeywords@@3PAPBDA       0047a290     server.obj
 0002:0000f364       ?mmfullnames@@3PAPBDA      0047a364     protocol1.obj
 0002:0002a148       ?voteerrors@@3PAPBDA       00495148     protocol1.obj
 0002:0002a488       ?modefullnames@@3PAPBDA    00495488     protocol1.obj
 0002:0002a4ec       ??_7clientstate@@6B@       004954ec     server.obj
 0002:0002a4f8       ??_7?$basic_streambuf@DU?$char_traits@D@std@@@std@@6B@ 004954f8     server.obj
 0002:0002a538       ??_7cleardemosaction@@6B@  00495538     server.obj
 0002:0002a54c       ??_7?$basic_ostringstream@DU?$char_traits@D@std@@V?$allocator@D@2@@std@@6B@ 0049554c     server.obj
 0002:0002a554       ??_7pauseaction@@6B@       00495554     server.obj
 0002:0002a568       ??_7shuffleteamaction@@6B@ 00495568     server.obj
 0002:0002a578       ?_Iostream_error@?4??message@_Iostream_error_category2@std@@UBE?AV?$basic_string@DU?$char_traits@D@std@@V?$allocator@D@2@@3@H@Z@4QBDB 00495578     server.obj
 0002:0002a594       ??_7serveripblacklist@@6B@ 00495594     server.obj
 0002:0002a65c       ??_7servermaprot@@6B@      0049565c     server.obj
 0002:0002a670       ??_7serverconfigfile@@6B@  00495670     server.obj
 0002:0002a684       ??_7ios_base@std@@6B@      00495684     server.obj
 0002:0002a68c       ??_7winservice@@6B@        0049568c     server.obj
 0002:0002a6a0       ??_7mastermodeaction@@6B@  004956a0     server.obj
 0002:0002a6b4       ??_7servernickblacklist@@6B@ 004956b4     server.obj
 0002:0002a6c8       ??_7removebansaction@@6B@  004956c8     server.obj
 0002:0002a6dc       ??_7kickaction@@6B@        004956dc     server.obj
 0002:0002a6f0       ??_7playeraction@@6B@      004956f0     server.obj
 0002:0002a704       ??_7?$basic_ios@DU?$char_traits@D@std@@@std@@6B@ 00495704     server.obj
 0002:0002a70c       ??_7giveadminaction@@6B@   0049570c     server.obj
 0002:0002a720       ??_7serverpasswords@@6B@   00495720     server.obj
 0002:0002a734       ??_7banaction@@6B@         00495734     server.obj
 0002:0002a748       ??_7?$basic_stringbuf@DU?$char_traits@D@std@@V?$allocator@D@2@@std@@6B@ 00495748     server.obj
 0002:0002a7b0       ??_7mapaction@@6B@         004957b0     server.obj
 0002:0002a7c0       ??_8?$basic_ostringstream@DU?$char_traits@D@std@@V?$allocator@D@2@@std@@7B@ 004957c0     server.obj
 0002:0002a7cc       ??_7forceteamaction@@6B@   004957cc     server.obj
 0002:0002a7e0       ??_7serverparameter@@6B@   004957e0     server.obj
 0002:0002a7f4       ??_7recorddemoaction@@6B@  004957f4     server.obj
 0002:0002a808       ??_7autoteamaction@@6B@    00495808     server.obj
 0002:0002a81c       ??_7servercontroller@@6B@  0049581c     server.obj
 0002:0002a830       ??_7serverinfofile@@6B@    00495830     server.obj
 0002:0002a844       ??_7serverforbiddenlist@@6B@ 00495844     server.obj
 0002:0002a858       ??_7playerstate@@6B@       00495858     server.obj
 0002:0002a864       ??_7serverdescaction@@6B@  00495864     server.obj
 0002:0002a878       ??_7serveripcclist@@6B@    00495878     server.obj
 0002:0002a88c       ??_7?$basic_ostream@DU?$char_traits@D@std@@@std@@6B@ 0049588c     server.obj
 0002:0002a894       ??_7demoplayaction@@6B@    00495894     server.obj
 0002:0002a8a8       ??_7serveraction@@6B@      004958a8     server.obj
 0002:0002a8b8       ??_C@_0BE@ELBPMJAO@looking?5up?5?$CFs?3?$CFd?4?4?4@ 004958b8     serverms.obj
 0002:0002a8cc       ??_C@_0BG@MGDPKDE@could?5not?5open?5socket@ 004958cc     serverms.obj
 0002:0002a8e4       ??_C@_0BC@OBHFAANF@could?5not?5connect@ 004958e4     serverms.obj
 0002:0002a8f8       ??_C@_07HHDHJGJJ@failreg@  004958f8     serverms.obj
 0002:0002a900       ??_C@_0CG@HCBAKCCK@master?5server?5registration?5fail@ 00495900     serverms.obj
 0002:0002a928       ??_C@_07PDDGKFLM@succreg@  00495928     serverms.obj
 0002:0002a930       ??_C@_0CF@GLNKPO@master?5server?5registration?5succ@ 00495930     serverms.obj
 0002:0002a958       ??_C@_06LNKFDEGN@noname@   00495958     serverms.obj
 0002:0002a960       ??_C@_05DLGHGLJM@nokey@    00495960     serverms.obj
 0002:0002a968       ??_C@_0BF@LAPAJAIC@regserv?5?$CFd?5?$CFs?9?$CFs?5?$CFd?6@ 00495968     serverms.obj
 0002:0002a980       ??_C@_0CE@LHJPBKAF@maxclient?5exceeded?3?5cannot?5regi@ 00495980     serverms.obj
 0002:0002a9a4       ??_C@_0BM@IKKPIGFI@server?5ip?5?$CC?$CFs?$CC?5not?5resolved@ 004959a4     serverms.obj
 0002:0002a9c0       ??_C@_0CE@OEAOIBIG@could?5not?5create?5server?5info?5so@ 004959c0     serverms.obj
 0002:0002a9e4       ??_C@_0CI@HKMLPMGF@could?5not?5create?5LAN?5server?5inf@ 004959e4     serverms.obj
 0002:0002aa0c       ??_C@_0DI@PDIGEDDB@server?5is?5LAN?9only?5?9?5without?5co@ 00495a0c     serverms.obj
 0002:0002aa48       ??_C@_0FK@ODJABIHA@ACTION?5REQUIRED?3?5you?5must?5provi@ 00495a48     serverms.obj
 0002:0002aaa4       ??_C@_0CE@HOGJMMBJ@LAN?9only?5because?5no?5master?5is?5g@ 00495aa4     serverms.obj
 0002:0002aac8       ??_C@_0CN@GJBHOEMH@LAN?9only?5because?5too?5many?5clien@ 00495ac8     serverms.obj
 0002:0002ab00       ??_C@_0BB@JCEFLFJE@0123456789abcdef@ 00495b00     crypto.obj
 0002:0002ab18       ??_C@_0EB@PIIHFDOJ@Tiger?5?9?5A?5Fast?5New?5Hash?5Functio@ 00495b18     crypto.obj
 0002:0002ab5c       ??_C@_0BE@PNEEEHCK@private?2entropy?4dat@ 00495b5c     crypto.obj
 0002:0002ab70       ??_C@_0M@EAGKAPPE@AC?9CERT?5v1?5@ 00495b70     crypto.obj
 0002:0002ab7c       ??_C@_0P@MKOOAIOL@?$CFs?5?$CFd?5?$CFs?5?$CFs?5?$CFd@ 00495b7c     crypto.obj
 0002:0002ab8c       ??_C@_08EPEHIMMI@?$CFs?5?$CFs?5?$CFs@ 00495b8c     crypto.obj
 0002:0002ae20       ??_C@_09PIEMHOIP@WARNING?3?5@ 00495e20     log.obj
 0002:0002ae2c       ??_C@_07JHDPBCI@ERROR?3?5@ 00495e2c     log.obj
 0002:0002ae34       ??_C@_05KOLFGEDA@DEBUG@    00495e34     log.obj
 0002:0002ae3c       ??_C@_07FMFBEBBO@VERBOSE@  00495e3c     log.obj
 0002:0002ae44       ??_C@_04BEADLPGM@INFO@     00495e44     log.obj
 0002:0002ae4c       ??_C@_07KCOHIFOP@WARNING@  00495e4c     log.obj
 0002:0002ae54       ??_C@_05MBDEGLCK@ERROR@    00495e54     log.obj
 0002:0002ae5c       ??_C@_08GLNGGDPJ@DISABLED@ 00495e5c     log.obj
 0002:0002ae68       ??_C@_0BA@BOKPBGHN@AssaultCube?$FL?$CFs?$FN@ 00495e68     log.obj
 0002:0002ae78       ??_C@_09IPAEKDAI@localhost@ 00495e78     log.obj
 0002:0002ae84       ??_C@_0BG@FPNFEOFG@?$CFsserverlog_?$CFs_?$CFs?4txt@ 00495e84     log.obj
 0002:0002ae9c       ??_C@_0CB@DAIBPKIL@failed?5to?5open?5?$CC?$CFs?$CC?5for?5writing@ 00495e9c     log.obj
 0002:0002aec0       ??_C@_0CG@MLICDBNE@logging?5started?3?5console?$CI?$CFs?$CJ?0?5f@ 00495ec0     log.obj
 0002:0002aee8       ??_C@_06LAMKMFBO@?0?5?$CC?$CFs?$CC@ 00495ee8     log.obj
 0002:0002aef0       ??_C@_0N@PNNCCFAE@?$CJ?0?5syslog?$CI?$CFs@ 00495ef0     log.obj
 0002:0002af00       ??_C@_0BA@GNBMKKBP@?0?5?$CC?$CFs?$CC?0?5local?$CFd@ 00495f00     log.obj
 0002:0002af10       ??_C@_07DKCFBCHE@ENABLED@  00495f10     log.obj
 0002:0002af18       ??_C@_0BB@JFJJMLJC@?$CJ?0?5timestamp?$CI?$CFs?$CJ@ 00495f18     log.obj
 0002:0002af2c       ??_C@_0BA@CLBENMPK@?$CFb?5?$CFd?5?$CFH?3?$CFM?3?$CFS?5@ 00495f2c     log.obj
 0002:0002af3c       ??_C@_07CEGMOJAH@?$CFs?$CFs?$CFs?6@ 00495f3c     log.obj
 0002:0002af44       ??_C@_0L@OPLAAGMI@?$DM?$CFd?$DO?$CFs?3?5?$CFs@ 00495f44     log.obj
 0002:0002af50       ??_C@_0CO@IBIKJLII@main?5log?5ringbuffer?5overflow?0?5?$CF@ 00495f50     log.obj
 0002:0002af80       ??_C@_02CFKBDFGI@?1?2@     00495f80     stream.obj
 0002:0002af84       ??_C@_04HDOCAJNK@?$CFs?$CFs@ 00495f84     stream.obj
 0002:0002af8c       ??_C@_03LKILIBFM@?4?4?2@   00495f8c     stream.obj
 0002:0002af90       ??_C@_01NBENCBCI@?$CK@     00495f90     stream.obj
 0002:0002af94       ??_C@_07HMIPAPAI@?$CFs?2?$CK?4?$CFs@ 00495f94     stream.obj
 0002:0002af9c       ??_C@_06ECDJDAMM@zip?3?1?1@ 00495f9c     stream.obj
 0002:0002afa4       ??_C@_06CJNJFBNP@1?42?411@ 00495fa4     stream.obj
 0002:0002afb0       ??_7stream@@6B@            00495fb0     stream.obj
 0002:0002aff4       ??_7gzstream@@6B@          00495ff4     stream.obj
 0002:0002b038       ??_7vecstream@@6B@         00496038     stream.obj
 0002:0002b07c       ??_7filestream@@6B@        0049607c     stream.obj
 0002:0002b0bc       ??_C@_0BA@BLDCNPAH@?$CFY?$CFm?$CFd_?$CFH?4?$CFM?4?$CFS@ 004960bc     tools.obj
 0002:0002b0cc       ??_C@_06LEAOBEKC@?$CFd?$CF06d@ 004960cc     tools.obj
 0002:0002b0d4       ??_C@_01GBGANLPD@0@        004960d4     tools.obj
 0002:0002b0d8       ??_C@_0N@IFJMFGJK@unknown?5type@ 004960d8     tools.obj
 0002:0002b0e8       ??_C@_0BP@MCOHPFJG@Win32?5Exception?3?50x?$CFx?5?$FL0x?$CFx?$FN?6?6@ 004960e8     tools.obj
 0002:0002b108       ??_C@_0O@BKHKJPEB@?$CFs?5?9?5?$CFs?5?$FL?$CFd?$FN?6@ 00496108     tools.obj
 0002:0002b118       ??_C@_0O@DOJIKGIE@?$CFu?4?$CFu?4?$CFu?4?$CFu?$CFn@ 00496118     tools.obj
 0002:0002b128       ??_C@_04EBEAAKOA@?$CFd?$CFn@ 00496128     tools.obj
 0002:0002b130       ??_C@_0M@PCENNPGA@?$CFd?4?$CFd?4?$CFd?4?$CFd@ 00496130     tools.obj
 0002:0002b13c       ??_C@_0BI@OFIENKAC@?$CFd?4?$CFd?4?$CFd?4?$CFd?9?$CFd?4?$CFd?4?$CFd?4?$CFd@ 0049613c     tools.obj
 0002:0002b154       ??_C@_02DPKJAMEF@?$CFd@    00496154     tools.obj
 0002:0002b158       ??_C@_0M@OGPIPFOF@?$CFw_?$CFh_?$CFn_?$CFG@ 00496158     tools.obj
 0002:0002b164       ??_C@_04PFAOODAA@?$CFs?3?5@ 00496164     wizard.obj
 0002:0002b16c       ??_C@_0BO@EOHALGMJ@invalid?5arguments?5specified?$CB?6@ 0049616c     wizard.obj
 0002:0002b18c       ??_C@_0CM@FIOMKFPD@usage?3?5ac_server?5?$DMoutfile?$DO?5?$DMrel@ 0049618c     wizard.obj
 0002:0002b1b8       ??_C@_0CA@KMNBJJLN@The?5AssaultCube?5Server?5Wizard?6?6@ 004961b8     wizard.obj
 0002:0002b1d8       ??_C@_0HF@JLPAHLGH@Before?5setting?5up?5a?5new?5server?0@ 004961d8     wizard.obj
 0002:0002b250       ??_C@_0BBF@IDGGPNLA@You?5will?5also?5need?5to?5ensure?5th@ 00496250     wizard.obj
 0002:0002b368       ??_C@_0BCF@LFGDACCA@Now?5to?5specify?5some?5optional?5se@ 00496368     wizard.obj
 0002:0002b490       ??_C@_02MLFFLFHH@?9n@      00496490     wizard.obj
 0002:0002b494       ??_C@_0BD@FFNEMFMP@Server?5description@ 00496494     wizard.obj
 0002:0002b4a8       ??_C@_02NCEOIEDG@?9o@      004964a8     wizard.obj
 0002:0002b4ac       ??_C@_0BD@BDGOMDOI@Message?5of?5the?5day@ 004964ac     wizard.obj
 0002:0002b4c0       ??_C@_02HOPLMLDK@?9c@      004964c0     wizard.obj
 0002:0002b4c4       ??_C@_0CL@MBNNEOAG@Maximum?5clients?5?$CINo?5more?5than?51@ 004964c4     wizard.obj
 0002:0002b4f0       ??_C@_02NHMNAAKA@?9x@      004964f0     wizard.obj
 0002:0002b4f4       ??_C@_0BH@HJIBNAGD@Administrator?5password@ 004964f4     wizard.obj
 0002:0002b50c       ??_C@_02DIMDPHP@?9f@       0049650c     wizard.obj
 0002:0002b510       ??_C@_0M@PNKIAJFB@Server?5port@ 00496510     wizard.obj
 0002:0002b51c       ??_C@_0DE@PHFABAKN@?6Private?5server?5settings?3?6?9?9?9?9?9@ 0049651c     wizard.obj
 0002:0002b550       ??_C@_0BI@KNMCFCCM@Public?5server?5?$CIYes?1No?$CJ?$DP@ 00496550     wizard.obj
 0002:0002b568       ??_C@_0M@KIFAMDI@?9mlocalhost@ 00496568     wizard.obj
 0002:0002b574       ??_C@_02BPBEIKKI@?9p@      00496574     wizard.obj
 0002:0002b578       ??_C@_0BA@GLAAGEDO@Player?5password@ 00496578     wizard.obj
 0002:0002b588       ??_C@_0BM@HJCKKGGB@?6Additional?5server?5switches@ 00496588     wizard.obj
 0002:0002b5a4       ??_C@_0BB@JDGIGHNK@win?5service?5name@ 004965a4     wizard.obj
 0002:0002b5b8       ??_C@_0BE@BMCAKGNK@win?5service?5display@ 004965b8     wizard.obj
 0002:0002b5cc       ??_C@_0CH@KPIDEFOK@?6Writing?5your?5configuration?5to?5@ 004965cc     wizard.obj
 0002:0002b5f4       ??_C@_08OPNBKLNK@Failed?$CB?6@ 004965f4     wizard.obj
 0002:0002b600       ??_C@_0M@EBGJAHJO@?$CFs?$CFs?6pause?6@ 00496600     wizard.obj
 0002:0002b60c       ??_C@_06PGPHGPCF@Done?6?6@ 0049660c     wizard.obj
 0002:0002b618       ??_C@_0GM@LBFNACMI@Note?3?5You?5can?5start?5?$CFs?5directly@ 00496618     wizard.obj
 0002:0002b684       ??_C@_0DB@GPKPKCCE@Installing?5the?5AC?5Server?5as?5win@ 00496684     wizard.obj
 0002:0002b6b8       ??_C@_0CN@JMJBFLPP@Could?5not?5get?5current?5working?5d@ 004966b8     wizard.obj
 0002:0002b6e8       ??_C@_03NPIKFEPJ@?5?9S@    004966e8     wizard.obj
 0002:0002b6ec       ??_C@_0DA@DLKHEEML@Could?5not?5open?5the?5Service?5Cont@ 004966ec     wizard.obj
 0002:0002b720       ??_C@_0EA@BEGAJIDF@A?5windows?5service?5with?5this?5nam@ 00496720     wizard.obj
 0002:0002b760       ??_C@_0CO@KBAILLPA@Could?5not?5create?5the?5new?5window@ 00496760     wizard.obj
 0002:0002b790       ??_C@_0EI@CFLDHKLD@Note?3?5You?5can?5now?5manage?5your?5A@ 00496790     wizard.obj
 0002:0002b7d8       ??_C@_0DA@EAFABIME@Please?5press?5ENTER?5now?5to?5start@ 004967d8     wizard.obj
 0002:0002b808       ??_C@_0BM@JDHBLOEO@Starting?5the?5AC?5server?5?4?4?4?6@ 00496808     wizard.obj
 0002:0002b824       ??_C@_0BD@BFMELDMM@COMLPTCONPRNAUXNUL@ 00496824     protocol1.obj
 0002:0002b838       ??_C@_0BB@MAOFLMFN@1374?$EA5$2?$CB?$CK?$CD?$CF80?$HM?$CL@ 00496838     protocol1.obj
 0002:0002b850       ??_C@_0BB@CFKEPPCJ@letaassziohzhoit@ 00496850     protocol1.obj
 0002:0002b864       ??_C@_05BOOOGDNE@?$FL?$FN?$HL?$HN?2@ 00496864     protocol1.obj
 0002:0002b86c       ??_C@_05CJBFFGKB@?$CI?$CJ?$CI?$CJ?1@ 0049686c     protocol1.obj
 0002:0002b874       ??_C@_05OJJIJNFA@?4_?9?$CI?$CJ@ 00496874     protocol1.obj
 0002:0002b87c       ??_C@_04HHBCGPAB@?$CI$?$CJ?$CC@ 0049687c     protocol1.obj
 0002:0002b884       ??_C@_03HGEHODII@_?9?4@    00496884     protocol1.obj
 0002:0002b888       ??_C@_0BA@KOKJMPCK@?$CC?1?2?$DL?$CI?$CJ?$FL?$FN?5?$AM?7?$AH?6?$AN$@ 00496888     protocol1.obj
 0002:0002b898       ??_C@_0O@EIJOPNKI@demo?5playback@ 00496898     protocol1.obj
 0002:0002b8a8       ??_C@_0BA@DGNOHMDO@team?5deathmatch@ 004968a8     protocol1.obj
 0002:0002b8b8       ??_C@_08OKMMABNO@coopedit@ 004968b8     protocol1.obj
 0002:0002b8c4       ??_C@_0L@ILDAINPG@deathmatch@ 004968c4     protocol1.obj
 0002:0002b8d0       ??_C@_08BGBANJHO@survivor@ 004968d0     protocol1.obj
 0002:0002b8dc       ??_C@_0O@KGFHBJIM@team?5survivor@ 004968dc     protocol1.obj
 0002:0002b8ec       ??_C@_0BB@BOFMIPI@capture?5the?5flag@ 004968ec     protocol1.obj
 0002:0002b900       ??_C@_0O@LAJDFKIE@pistol?5frenzy@ 00496900     protocol1.obj
 0002:0002b910       ??_C@_0BE@PEAKFHDB@bot?5team?5deathmatch@ 00496910     protocol1.obj
 0002:0002b924       ??_C@_0P@GFOJDNLK@bot?5deathmatch@ 00496924     protocol1.obj
 0002:0002b934       ??_C@_0BE@EFNFEOIE@last?5swiss?5standing@ 00496934     protocol1.obj
 0002:0002b948       ??_C@_0BD@LOBHNIBM@one?5shot?0?5one?5kill@ 00496948     protocol1.obj
 0002:0002b95c       ??_C@_0BI@BBEEADKE@team?5one?5shot?0?5one?5kill@ 0049695c     protocol1.obj
 0002:0002b974       ??_C@_0BH@ECIFHEEH@bot?5one?5shot?0?5one?5kill@ 00496974     protocol1.obj
 0002:0002b98c       ??_C@_0O@ICJGJMIF@hunt?5the?5flag@ 0049698c     protocol1.obj
 0002:0002b99c       ??_C@_0BD@FOBCBAMO@team?5keep?5the?5flag@ 0049699c     protocol1.obj
 0002:0002b9b0       ??_C@_0O@ILLLMIAI@keep?5the?5flag@ 004969b0     protocol1.obj
 0002:0002b9c0       ??_C@_0BD@GFDKICEC@team?5pistol?5frenzy@ 004969c0     protocol1.obj
 0002:0002b9d4       ??_C@_0BJ@IAMACGOB@team?5last?5swiss?5standing@ 004969d4     protocol1.obj
 0002:0002b9f0       ??_C@_0BC@NCNJOKAG@bot?5pistol?5frenzy@ 004969f0     protocol1.obj
 0002:0002ba04       ??_C@_0BI@LJJAFEFE@bot?5last?5swiss?5standing@ 00496a04     protocol1.obj
 0002:0002ba1c       ??_C@_0BC@MEBNKJAO@bot?5team?5survivor@ 00496a1c     protocol1.obj
 0002:0002ba30       ??_C@_0BM@BPKEJJOM@bot?5team?5one?5shot?0?5one?5kill@ 00496a30     protocol1.obj
 0002:0002ba4c       ??_C@_04DHMHBDDN@DEMO@     00496a4c     protocol1.obj
 0002:0002ba54       ??_C@_03KIJAKMEC@TDM@      00496a54     protocol1.obj
 0002:0002ba58       ??_C@_04OILOBHMB@coop@     00496a58     protocol1.obj
 0002:0002ba60       ??_C@_02DCPKDCLJ@DM@       00496a60     protocol1.obj
 0002:0002ba64       ??_C@_04DJGEECGF@SURV@     00496a64     protocol1.obj
 0002:0002ba6c       ??_C@_05NJJLFODK@TSURV@    00496a6c     protocol1.obj
 0002:0002ba74       ??_C@_03JKIMLJNP@CTF@      00496a74     protocol1.obj
 0002:0002ba78       ??_C@_02MKCBOANO@PF@       00496a78     protocol1.obj
 0002:0002ba7c       ??_C@_04GNMFIPGK@BTDM@     00496a7c     protocol1.obj
 0002:0002ba84       ??_C@_03NNOCKEAB@BDM@      00496a84     protocol1.obj
 0002:0002ba88       ??_C@_03PABFFJBI@LSS@      00496a88     protocol1.obj
 0002:0002ba8c       ??_C@_04FCINDLAF@OSOK@     00496a8c     protocol1.obj
 0002:0002ba94       ??_C@_05LCHCCHFK@TOSOK@    00496a94     protocol1.obj
 0002:0002ba9c       ??_C@_05GHPNMGNM@BOSOK@    00496a9c     protocol1.obj
 0002:0002baa4       ??_C@_03ENINDONO@HTF@      00496aa4     protocol1.obj
 0002:0002baa8       ??_C@_04HFMNNADK@TKTF@     00496aa8     protocol1.obj
 0002:0002bab0       ??_C@_03FPDIJBDA@KTF@      00496ab0     protocol1.obj
 0002:0002bab4       ??_C@_03FAELHOCF@TPF@      00496ab4     protocol1.obj
 0002:0002bab8       ??_C@_04NKOABIBC@TLSS@     00496ab8     protocol1.obj
 0002:0002bac0       ??_C@_03CFDJHGGG@BPF@      00496ac0     protocol1.obj
 0002:0002bac4       ??_C@_04DFEAHKDA@BLSS@     00496ac4     protocol1.obj
 0002:0002bacc       ??_C@_06CGKBEELH@BTSURV@   00496acc     protocol1.obj
 0002:0002bad4       ??_C@_06ENEIDNNH@BTOSOK@   00496ad4     protocol1.obj
 0002:0002badc       ??_C@_0BN@GAJCHLOO@voting?5is?5currently?5disabled@ 00496adc     protocol1.obj
 0002:0002bafc       ??_C@_0CA@NGEKNLAA@there?5is?5already?5a?5vote?5pending@ 00496afc     protocol1.obj
 0002:0002bb1c       ??_C@_0O@GMOMDMPB@already?5voted@ 00496b1c     protocol1.obj
 0002:0002bb2c       ??_C@_0BG@JKFNENLK@can?8t?5vote?5that?5often@ 00496b2c     protocol1.obj
 0002:0002bb48       ??_C@_0EP@BPGJFKGG@this?5vote?5is?5not?5allowed?5in?5the@ 00496b48     protocol1.obj
 0002:0002bb98       ??_C@_0N@MDDPCIJH@invalid?5vote@ 00496b98     protocol1.obj
 0002:0002bba8       ??_C@_0BI@MFLCEHGI@server?5denied?5your?5call@ 00496ba8     protocol1.obj
 0002:0002bbc0       ??_C@_0CB@BJEHLOFM@the?5next?5map?1mode?5is?5already?5se@ 00496bc0     protocol1.obj
 0002:0002bbe4       ??_C@_04PMOCAHAA@open@     00496be4     protocol1.obj
 0002:0002bbec       ??_C@_07NMPLPEPB@private@  00496bec     protocol1.obj
 0002:0002bbf4       ??_C@_03ELOBOJHH@UNK@      00496bf4     protocol1.obj
 0002:0002bbf8       ??_C@_0BD@KIEIHFAD@terminated?5by?5enet@ 00496bf8     protocol1.obj
 0002:0002bc0c       ??_C@_0O@JBDOGIMF@end?5of?5packet@ 00496c0c     protocol1.obj
 0002:0002bc1c       ??_C@_0L@CNDFKLPO@client?5num@ 00496c1c     protocol1.obj
 0002:0002bc28       ??_C@_08LHFLPAFL@tag?5type@ 00496c28     protocol1.obj
 0002:0002bc34       ??_C@_0BF@LENDFKJE@duplicate?5connection@ 00496c34     protocol1.obj
 0002:0002bc4c       ??_C@_08CLAAFLMB@overflow@ 00496c4c     protocol1.obj
 0002:0002bc58       ??_C@_06NLFCANPD@random@   00496c58     protocol1.obj
 0002:0002bc60       ??_C@_06BKEBADKC@voodoo@   00496c60     protocol1.obj
 0002:0002bc68       ??_C@_04JNABKDKF@sync@     00496c68     protocol1.obj
 0002:0002bc70       ??_C@_0M@NIFGNMIB@auth?5failed@ 00496c70     protocol1.obj
 0002:0002bc7c       ??_C@_0BD@PJLIIJEL@connection?5refused@ 00496c7c     protocol1.obj
 0002:0002bc90       ??_C@_0L@IIJHPNMN@due?5to?5ban@ 00496c90     protocol1.obj
 0002:0002bc9c       ??_C@_0BE@CKIOEIMA@due?5to?5blacklisting@ 00496c9c     protocol1.obj
 0002:0002bcb0       ??_C@_0P@KCKFHBGO@wrong?5password@ 00496cb0     protocol1.obj
 0002:0002bcc0       ??_C@_0M@GNAEPDCL@server?5FULL@ 00496cc0     protocol1.obj
 0002:0002bccc       ??_C@_0BP@KKCNPJDL@server?5mastermode?5is?5?$CCprivate?$CC@ 00496ccc     protocol1.obj
 0002:0002bcec       ??_C@_0BC@KABDGOLF@server?5overloaded@ 00496cec     protocol1.obj
 0002:0002bd00       ??_C@_0BE@NEBLCEPP@removed?5from?5server@ 00496d00     protocol1.obj
 0002:0002bd14       ??_C@_0BD@PDJKEEEL@failed?5admin?5login@ 00496d14     protocol1.obj
 0002:0002bd28       ??_C@_0BH@BNEINOOH@inappropriate?5nickname@ 00496d28     protocol1.obj
 0002:0002bd40       ??_C@_0BJ@DFCENKPD@annoyance?5limit?5exceeded@ 00496d40     protocol1.obj
 0002:0002bd5c       ??_C@_04LJOMGEOE@SPAM@     00496d5c     protocol1.obj
 0002:0002bd64       ??_C@_03CAJNCLOD@DOS@      00496d64     protocol1.obj
 0002:0002bd68       ??_C@_0BA@BNMCECPN@ludicrous?5speed@ 00496d68     protocol1.obj
 0002:0002bd78       ??_C@_0M@OCBIMOME@fishslapped@ 00496d78     protocol1.obj
 0002:0002bd84       ??_C@_03JHHCLFHL@afk@      00496d84     protocol1.obj
 0002:0002bd88       ??_C@_06LJOBLMPL@kicked@   00496d88     protocol1.obj
 0002:0002bd90       ??_C@_06PGEEPMG@banned@    00496d90     protocol1.obj
 0002:0002bd98       ??_C@_0P@LFNNJHHF@kicked?5by?5vote@ 00496d98     protocol1.obj
 0002:0002bda8       ??_C@_0P@CPHJIJEC@banned?5by?5vote@ 00496da8     protocol1.obj
 0002:0002bdb8       ??_C@_0BK@MMIECPOG@kicked?5by?5server?5operator@ 00496db8     protocol1.obj
 0002:0002bdd4       ??_C@_0BK@PDLKLLPL@banned?5by?5server?5operator@ 00496dd4     protocol1.obj
 0002:0002bdf0       ??_C@_0BK@NOBHDFJF@auto?5kicked?5?9?5teamkilling@ 00496df0     protocol1.obj
 0002:0002be0c       ??_C@_0BK@CKDFJIBH@auto?5banned?5?9?5teamkilling@ 00496e0c     protocol1.obj
 0002:0002be28       ??_C@_0BM@DNGFHAGD@auto?5kicked?5?9?5friendly?5fire@ 00496e28     protocol1.obj
 0002:0002be44       ??_C@_0BM@JMLHKBNN@auto?5banned?5?9?5friendly?5fire@ 00496e44     protocol1.obj
 0002:0002be60       ??_C@_09KOHIOBMN@auto?5kick@ 00496e60     protocol1.obj
 0002:0002be6c       ??_C@_08LFFOFPEH@auto?5ban@ 00496e6c     protocol1.obj
 0002:0002be78       ??_C@_0BM@JACFPDFL@network?5protocol?5error?5?8?$CFd?8@ 00496e78     protocol1.obj
 0002:0002be94       ??_C@_0BI@MHPLBNAC@connection?5refused?5?8?$CFd?8@ 00496e94     protocol1.obj
 0002:0002beac       ??_C@_0BJ@GGKJMLNI@removed?5from?5server?5?8?$CFd?8@ 00496eac     protocol1.obj
 0002:0002bec8       ??_C@_07IAHBPOKF@?$CFs?5?8?$CFd?8@ 00496ec8     protocol1.obj
 0002:0002bed0       ??_C@_0N@KCJEHFLA@unknown?5?8?$CFd?8@ 00496ed0     protocol1.obj
 0002:0002bf78       __real@00000000            00496f78     server.obj
 0002:0002bf7c       __real@33800000            00496f7c     protocol1.obj
 0002:0002bf80       __real@35800000            00496f80     server.obj
 0002:0002bf84       __real@3a800000            00496f84     protocol1.obj
 0002:0002bf88       __real@3ca3d70a            00496f88     server.obj
 0002:0002bf8c       __real@3ccccccd            00496f8c     server.obj
 0002:0002bf90       __real@3d2f8af9            00496f90     server.obj
 0002:0002bf94       __real@3d800000            00496f94     server.obj
 0002:0002bf98       __real@3eae147b            00496f98     server.obj
 0002:0002bf9c       __real@3f000000            00496f9c     tools.obj
 0002:0002bfa0       __real@3f028f5c            00496fa0     server.obj
 0002:0002bfa4       __real@3f23d70a            00496fa4     server.obj
 0002:0002bfa8       __real@3f800000            00496fa8     server.obj
 0002:0002bfac       __real@3fc00000            00496fac     server.obj
 0002:0002bfb0       __real@40000000            00496fb0     server.obj
 0002:0002bfb4       __real@400ccccd            00496fb4     server.obj
 0002:0002bfb8       __real@403e000000000000    00496fb8     server.obj
 0002:0002bfc0       __real@40866666            00496fc0     server.obj
 0002:0002bfc4       __real@41100000            00496fc4     server.obj
 0002:0002bfc8       __real@41200000            00496fc8     server.obj
 0002:0002bfcc       __real@41800000            00496fcc     server.obj
 0002:0002bfd0       __real@4202a05f20000000    00496fd0     server.obj
 0002:0002bfd8       __real@42700000            00496fd8     server.obj
 0002:0002bfdc       __real@42b40000            00496fdc     protocol1.obj
 0002:0002bfe0       __real@42c80000            00496fe0     server.obj
 0002:0002bfe4       __real@43b40000            00496fe4     protocol1.obj
 0002:0002bfe8       __real@be23d70a            00496fe8     server.obj
 0002:0002bfec       __real@bf2e147b            00496fec     server.obj
 0002:0002bff0       __real@bf800000            00496ff0     server.obj
 0002:0002bff4       __real@c2b40000            00496ff4     protocol1.obj
 0002:0002c000       __xmm@00000000000000000000000000000003 00497000     tools.obj
 0002:0002c010       __xmm@00000026000000260000002600000026 00497010     crypto.obj
 0002:0002c020       __xmm@0000003000000024000000180000000c 00497020     server.obj
 0002:0002c030       __xmm@000000c0000000900000006000000030 00497030     server.obj
 0002:0002c040       __xmm@000000ff000000ff000000ff000000ff 00497040     crypto.obj
 0002:0002c050       __xmm@000001fe000001fe000001fe000001fe 00497050     crypto.obj
 0002:0002c060       __xmm@41f00000000000000000000000000000 00497060     server.obj
 0002:0002c070       __xmm@7fffffffffffffff7fffffffffffffff 00497070     server.obj
 0002:0002c080       __xmm@ffffffffffffffffffffffffffffffff 00497080     server.obj
 0002:0002c0c8       __load_config_used         004970c8     LIBCMT:loadcfg.obj
 0002:0002c200       __tls_used                 00497200     LIBCMT:tlssup.obj
 0002:0002c218       ??_R4logic_error@std@@6B@  00497218     libcpmt:xthrow.obj
 0002:0002c22c       ??_R3logic_error@std@@8    0049722c     libcpmt:xthrow.obj
 0002:0002c23c       ??_R2logic_error@std@@8    0049723c     libcpmt:xthrow.obj
 0002:0002c248       ??_R1A@?0A@EA@logic_error@std@@8 00497248     libcpmt:xthrow.obj
 0002:0002c264       ??_R4length_error@std@@6B@ 00497264     libcpmt:xthrow.obj
 0002:0002c278       ??_R3length_error@std@@8   00497278     libcpmt:xthrow.obj
 0002:0002c288       ??_R2length_error@std@@8   00497288     libcpmt:xthrow.obj
 0002:0002c298       ??_R1A@?0A@EA@length_error@std@@8 00497298     libcpmt:xthrow.obj
 0002:0002c2b4       ??_R4out_of_range@std@@6B@ 004972b4     libcpmt:xthrow.obj
 0002:0002c2c8       ??_R3out_of_range@std@@8   004972c8     libcpmt:xthrow.obj
 0002:0002c2d8       ??_R2out_of_range@std@@8   004972d8     libcpmt:xthrow.obj
 0002:0002c2e8       ??_R1A@?0A@EA@out_of_range@std@@8 004972e8     libcpmt:xthrow.obj
 0002:0002c304       ??_R4_Locimp@locale@std@@6B@ 00497304     libcpmt:locale0.obj
 0002:0002c318       ??_R3_Locimp@locale@std@@8 00497318     libcpmt:locale0.obj
 0002:0002c328       ??_R2_Locimp@locale@std@@8 00497328     libcpmt:locale0.obj
 0002:0002c33c       ??_R1A@?0A@EA@_Locimp@locale@std@@8 0049733c     libcpmt:locale0.obj
 0002:0002c358       ??_R4type_info@@6B@        00497358     LIBCMT:std_type_info_static.obj
 0002:0002c36c       ??_R3type_info@@8          0049736c     LIBCMT:std_type_info_static.obj
 0002:0002c37c       ??_R2type_info@@8          0049737c     LIBCMT:std_type_info_static.obj
 0002:0002c384       ??_R1A@?0A@EA@type_info@@8 00497384     LIBCMT:std_type_info_static.obj
 0002:0002c3a0       ??_R4bad_exception@std@@6B@ 004973a0     libvcruntime:frame.obj
 0002:0002c3b4       ??_R3bad_exception@std@@8  004973b4     libvcruntime:frame.obj
 0002:0002c3c4       ??_R2bad_exception@std@@8  004973c4     libvcruntime:frame.obj
 0002:0002c3d0       ??_R1A@?0A@EA@bad_exception@std@@8 004973d0     libvcruntime:frame.obj
 0002:0002c3ec       ??_R4exception@std@@6B@    004973ec     encryption.obj
 0002:0002c400       ??_R2bad_array_new_length@std@@8 00497400     encryption.obj
 0002:0002c410       ??_R2bad_alloc@std@@8      00497410     encryption.obj
 0002:0002c41c       ??_R1A@?0A@EA@exception@std@@8 0049741c     encryption.obj
 0002:0002c438       ??_R1A@?0A@EA@bad_alloc@std@@8 00497438     encryption.obj
 0002:0002c454       ??_R2exception@std@@8      00497454     encryption.obj
 0002:0002c45c       ??_R3exception@std@@8      0049745c     encryption.obj
 0002:0002c46c       ??_R4bad_alloc@std@@6B@    0049746c     encryption.obj
 0002:0002c480       ??_R3bad_array_new_length@std@@8 00497480     encryption.obj
 0002:0002c490       ??_R3bad_alloc@std@@8      00497490     encryption.obj
 0002:0002c4a0       ??_R4bad_array_new_length@std@@6B@ 004974a0     encryption.obj
 0002:0002c4b4       ??_R1A@?0A@EA@bad_array_new_length@std@@8 004974b4     encryption.obj
 0002:0002c4d0       ??_R3autoteamaction@@8     004974d0     server.obj
 0002:0002c4e0       ??_R2demoplayaction@@8     004974e0     server.obj
 0002:0002c4ec       ??_R4?$basic_ostringstream@DU?$char_traits@D@std@@V?$allocator@D@2@@std@@6B@ 004974ec     server.obj
 0002:0002c500       ??_R2autoteamaction@@8     00497500     server.obj
 0002:0002c510       ??_R4pauseaction@@6B@      00497510     server.obj
 0002:0002c524       ??_R4playerstate@@6B@      00497524     server.obj
 0002:0002c538       ??_R1A@?0A@EA@servernickblacklist@@8 00497538     server.obj
 0002:0002c554       ??_R1A@?0A@EA@mapaction@@8 00497554     server.obj
 0002:0002c570       ??_R1A@?0A@EA@serveripcclist@@8 00497570     server.obj
 0002:0002c58c       ??_R1A@?0A@EA@recorddemoaction@@8 0049758c     server.obj
 0002:0002c5a8       ??_R2system_error@std@@8   004975a8     server.obj
 0002:0002c5bc       ??_R4servermaprot@@6B@     004975bc     server.obj
 0002:0002c5d0       ??_R1A@?0A@EA@system_error@std@@8 004975d0     server.obj
 0002:0002c5ec       ??_R4?$basic_ostream@DU?$char_traits@D@std@@@std@@6B@ 004975ec     server.obj
 0002:0002c600       ??_R3?$ctype@D@std@@8      00497600     server.obj
 0002:0002c610       ??_R2pauseaction@@8        00497610     server.obj
 0002:0002c61c       ??_R4mastermodeaction@@6B@ 0049761c     server.obj
 0002:0002c630       ??_R2cleardemosaction@@8   00497630     server.obj
 0002:0002c63c       ??_R2?$num_put@DV?$ostreambuf_iterator@DU?$char_traits@D@std@@@std@@@std@@8 0049763c     server.obj
 0002:0002c650       ??_R3removebansaction@@8   00497650     server.obj
 0002:0002c660       ??_R4serverforbiddenlist@@6B@ 00497660     server.obj
 0002:0002c674       ??_R4demoplayaction@@6B@   00497674     server.obj
 0002:0002c688       ??_R1A@?0A@EA@servermaprot@@8 00497688     server.obj
 0002:0002c6a4       ??_R4runtime_error@std@@6B@ 004976a4     server.obj
 0002:0002c6b8       ??_R3serverinfofile@@8     004976b8     server.obj
 0002:0002c6c8       ??_R1A@?0A@EA@forceteamaction@@8 004976c8     server.obj
 0002:0002c6e4       ??_R4clientstate@@6B@      004976e4     server.obj
 0002:0002c6f8       ??_R2serverforbiddenlist@@8 004976f8     server.obj
 0002:0002c704       ??_R4serverconfigfile@@6B@ 00497704     server.obj
 0002:0002c718       ??_R3serverdescaction@@8   00497718     server.obj
 0002:0002c728       ??_R4winservice@@6B@       00497728     server.obj
 0002:0002c73c       ??_R4_System_error@std@@6B@ 0049773c     server.obj
 0002:0002c750       ??_R3_Facet_base@std@@8    00497750     server.obj
 0002:0002c760       ??_R1A@?0A@EA@bad_cast@std@@8 00497760     server.obj
 0002:0002c77c       ??_R1A@?0A@EA@cleardemosaction@@8 0049777c     server.obj
 0002:0002c798       ??_R2winservice@@8         00497798     server.obj
 0002:0002c7a4       ??_R2giveadminaction@@8    004977a4     server.obj
 0002:0002c7b4       ??_R1A@?0A@EA@enableaction@@8 004977b4     server.obj
 0002:0002c7d0       ??_R2?$basic_stringbuf@DU?$char_traits@D@std@@V?$allocator@D@2@@std@@8 004977d0     server.obj
 0002:0002c7dc       ??_R3?$basic_ostringstream@DU?$char_traits@D@std@@V?$allocator@D@2@@std@@8 004977dc     server.obj
 0002:0002c7ec       ??_R3_Crt_new_delete@std@@8 004977ec     server.obj
 0002:0002c7fc       ??_R1A@?0A@EA@runtime_error@std@@8 004977fc     server.obj
 0002:0002c818       ??_R2serveripblacklist@@8  00497818     server.obj
 0002:0002c824       ??_R1A@?0A@EA@kickaction@@8 00497824     server.obj
 0002:0002c840       ??_R2_System_error@std@@8  00497840     server.obj
 0002:0002c850       ??_R2recorddemoaction@@8   00497850     server.obj
 0002:0002c860       ??_R3pauseaction@@8        00497860     server.obj
 0002:0002c870       ??_R3kickaction@@8         00497870     server.obj
 0002:0002c880       ??_R13?0A@EA@_Crt_new_delete@std@@8 00497880     server.obj
 0002:0002c89c       ??_R3enableaction@@8       0049789c     server.obj
 0002:0002c8ac       ??_R1A@?0A@EA@removebansaction@@8 004978ac     server.obj
 0002:0002c8c8       ??_R3forceteamaction@@8    004978c8     server.obj
 0002:0002c8d8       ??_R17A@3EA@?$_Iosb@H@std@@8 004978d8     server.obj
 0002:0002c8f4       ??_R3serverforbiddenlist@@8 004978f4     server.obj
 0002:0002c904       ??_R2mapaction@@8          00497904     server.obj
 0002:0002c910       ??_R4shuffleteamaction@@6B@ 00497910     server.obj
 0002:0002c924       ??_R2serverpasswords@@8    00497924     server.obj
 0002:0002c930       ??_R4ios_base@std@@6B@     00497930     server.obj
 0002:0002c944       ??_R4system_error@std@@6B@ 00497944     server.obj
 0002:0002c958       ??_R1A@?0A@EA@?$basic_streambuf@DU?$char_traits@D@std@@@std@@8 00497958     server.obj
 0002:0002c974       ??_R1A@?0A@EA@serverforbiddenlist@@8 00497974     server.obj
 0002:0002c990       ??_R1A@?0A@EA@_Facet_base@std@@8 00497990     server.obj
 0002:0002c9ac       ??_R3_System_error@std@@8  004979ac     server.obj
 0002:0002c9bc       ??_R3playeraction@@8       004979bc     server.obj
 0002:0002c9cc       ??_R4serverdescaction@@6B@ 004979cc     server.obj
 0002:0002c9e0       ??_R2serverparameter@@8    004979e0     server.obj
 0002:0002c9ec       ??_R3serverconfigfile@@8   004979ec     server.obj
 0002:0002c9fc       ??_R1A@?0A@EA@serverdescaction@@8 004979fc     server.obj
 0002:0002ca18       ??_R4?$basic_ios@DU?$char_traits@D@std@@@std@@6B@ 00497a18     server.obj
 0002:0002ca2c       ??_R4serveraction@@6B@     00497a2c     server.obj
 0002:0002ca40       ??_R4serverinfofile@@6B@   00497a40     server.obj
 0002:0002ca54       ??_R1A@?0A@EA@demoplayaction@@8 00497a54     server.obj
 0002:0002ca70       ??_R1A@?0A@EA@?$basic_ostringstream@DU?$char_traits@D@std@@V?$allocator@D@2@@std@@8 00497a70     server.obj
 0002:0002ca8c       ??_R3mastermodeaction@@8   00497a8c     server.obj
 0002:0002ca9c       ??_R3serverpasswords@@8    00497a9c     server.obj
 0002:0002caac       ??_R4servernickblacklist@@6B@ 00497aac     server.obj
 0002:0002cac0       ??_R3?$basic_stringbuf@DU?$char_traits@D@std@@V?$allocator@D@2@@std@@8 00497ac0     server.obj
 0002:0002cad0       ??_R2bad_cast@std@@8       00497ad0     server.obj
 0002:0002cadc       ??_R4failure@ios_base@std@@6B@ 00497adc     server.obj
 0002:0002caf0       ??_R2?$basic_ostream@DU?$char_traits@D@std@@@std@@8 00497af0     server.obj
 0002:0002cb04       ??_R1A@?0A@EA@serverconfigfile@@8 00497b04     server.obj
 0002:0002cb20       ??_R3?$basic_ios@DU?$char_traits@D@std@@@std@@8 00497b20     server.obj
 0002:0002cb30       ??_R4_Iostream_error_category2@std@@6B@ 00497b30     server.obj
 0002:0002cb44       ??_R4serverpasswords@@6B@  00497b44     server.obj
 0002:0002cb58       ??_R4banaction@@6B@        00497b58     server.obj
 0002:0002cb6c       ??_R2error_category@std@@8 00497b6c     server.obj
 0002:0002cb74       ??_R2banaction@@8          00497b74     server.obj
 0002:0002cb84       ??_R1A@?0A@EA@_Iostream_error_category2@std@@8 00497b84     server.obj
 0002:0002cba0       ??_R1A@?0A@EA@facet@locale@std@@8 00497ba0     server.obj
 0002:0002cbbc       ??_R1A@?0A@EA@serveraction@@8 00497bbc     server.obj
 0002:0002cbd8       ??_R1A@?0A@EA@giveadminaction@@8 00497bd8     server.obj
 0002:0002cbf4       ??_R3giveadminaction@@8    00497bf4     server.obj
 0002:0002cc04       ??_R4removebansaction@@6B@ 00497c04     server.obj
 0002:0002cc18       ??_R2failure@ios_base@std@@8 00497c18     server.obj
 0002:0002cc30       ??_R3servercontroller@@8   00497c30     server.obj
 0002:0002cc40       ??_R2shuffleteamaction@@8  00497c40     server.obj
 0002:0002cc4c       ??_R2removebansaction@@8   00497c4c     server.obj
 0002:0002cc58       ??_R3serveripcclist@@8     00497c58     server.obj
 0002:0002cc68       ??_R3failure@ios_base@std@@8 00497c68     server.obj
 0002:0002cc78       ??_R1A@?0A@EA@shuffleteamaction@@8 00497c78     server.obj
 0002:0002cc94       ??_R1A@?0A@EA@playerstate@@8 00497c94     server.obj
 0002:0002ccb0       ??_R2forceteamaction@@8    00497cb0     server.obj
 0002:0002ccc0       ??_R2?$ctype@D@std@@8      00497cc0     server.obj
 0002:0002ccd8       ??_R4playeraction@@6B@     00497cd8     server.obj
 0002:0002ccec       ??_R1A@?0A@EA@mastermodeaction@@8 00497cec     server.obj
 0002:0002cd08       ??_R1A@?0A@EA@ios_base@std@@8 00497d08     server.obj
 0002:0002cd24       ??_R1A@?0A@EA@?$basic_ostream@DU?$char_traits@D@std@@@std@@8 00497d24     server.obj
 0002:0002cd40       ??_R1A@?0A@EA@failure@ios_base@std@@8 00497d40     server.obj
 0002:0002cd5c       ??_R3recorddemoaction@@8   00497d5c     server.obj
 0002:0002cd6c       ??_R2?$numpunct@D@std@@8   00497d6c     server.obj
 0002:0002cd80       ??_R3shuffleteamaction@@8  00497d80     server.obj
 0002:0002cd90       ??_R4kickaction@@6B@       00497d90     server.obj
 0002:0002cda4       ??_R1A@?0A@EA@serverpasswords@@8 00497da4     server.obj
 0002:0002cdc0       ??_R2?$basic_streambuf@DU?$char_traits@D@std@@@std@@8 00497dc0     server.obj
 0002:0002cdc8       ??_R1A@?0A@EA@?$_Iosb@H@std@@8 00497dc8     server.obj
 0002:0002cde4       ??_R1A@?0A@EA@autoteamaction@@8 00497de4     server.obj
 0002:0002ce00       ??_R1A@?0A@EA@serverinfofile@@8 00497e00     server.obj
 0002:0002ce1c       ??_R2mastermodeaction@@8   00497e1c     server.obj
 0002:0002ce28       ??_R3facet@locale@std@@8   00497e28     server.obj
 0002:0002ce38       ??_R1A@?0A@EA@?$basic_stringbuf@DU?$char_traits@D@std@@V?$allocator@D@2@@std@@8 00497e38     server.obj
 0002:0002ce54       ??_R3ctype_base@std@@8     00497e54     server.obj
 0002:0002ce64       ??_R1A@?0A@EA@playeraction@@8 00497e64     server.obj
 0002:0002ce80       ??_R2serveripcclist@@8     00497e80     server.obj
 0002:0002ce8c       ??_R2playerstate@@8        00497e8c     server.obj
 0002:0002ce94       ??_R1A@?0A@EA@_System_error@std@@8 00497e94     server.obj
 0002:0002ceb0       ??_R3bad_cast@std@@8       00497eb0     server.obj
 0002:0002cec0       ??_R2servermaprot@@8       00497ec0     server.obj
 0002:0002cecc       ??_R4servercontroller@@6B@ 00497ecc     server.obj
 0002:0002cee0       ??_R3error_category@std@@8 00497ee0     server.obj
 0002:0002cef0       ??_R1A@?0A@EA@banaction@@8 00497ef0     server.obj
 0002:0002cf0c       ??_R4bad_cast@std@@6B@     00497f0c     server.obj
 0002:0002cf20       ??_R1A@?0A@EA@_Crt_new_delete@std@@8 00497f20     server.obj
 0002:0002cf3c       ??_R3demoplayaction@@8     00497f3c     server.obj
 0002:0002cf4c       ??_R3banaction@@8          00497f4c     server.obj
 0002:0002cf5c       ??_R2serveraction@@8       00497f5c     server.obj
 0002:0002cf64       ??_R4forceteamaction@@6B@  00497f64     server.obj
 0002:0002cf78       ??_R2enableaction@@8       00497f78     server.obj
 0002:0002cf84       ??_R3servernickblacklist@@8 00497f84     server.obj
 0002:0002cf94       ??_R4?$basic_stringbuf@DU?$char_traits@D@std@@V?$allocator@D@2@@std@@6B@ 00497f94     server.obj
 0002:0002cfa8       ??_R4giveadminaction@@6B@  00497fa8     server.obj
 0002:0002cfbc       ??_R4serveripblacklist@@6B@ 00497fbc     server.obj
 0002:0002cfd0       ??_R4_Facet_base@std@@6B@  00497fd0     server.obj
 0002:0002cfe4       ??_R3?$numpunct@D@std@@8   00497fe4     server.obj
 0002:0002cff4       ??_R3_Iostream_error_category2@std@@8 00497ff4     server.obj
 0002:0002d004       ??_R4?$numpunct@D@std@@6B@ 00498004     server.obj
 0002:0002d018       ??_R1A@?0A@EA@pauseaction@@8 00498018     server.obj
 0002:0002d034       ??_R2runtime_error@std@@8  00498034     server.obj
 0002:0002d040       ??_R1A@A@3FA@?$basic_ios@DU?$char_traits@D@std@@@std@@8 00498040     server.obj
 0002:0002d05c       ??_R1A@?0A@EA@winservice@@8 0049805c     server.obj
 0002:0002d078       ??_R3cleardemosaction@@8   00498078     server.obj
 0002:0002d088       ??_R1A@?0A@EA@?$num_put@DV?$ostreambuf_iterator@DU?$char_traits@D@std@@@std@@@std@@8 00498088     server.obj
 0002:0002d0a4       ??_R3serveraction@@8       004980a4     server.obj
 0002:0002d0b4       ??_R4?$basic_streambuf@DU?$char_traits@D@std@@@std@@6B@ 004980b4     server.obj
 0002:0002d0c8       ??_R2ios_base@std@@8       004980c8     server.obj
 0002:0002d0d4       ??_R2servercontroller@@8   004980d4     server.obj
 0002:0002d0dc       ??_R3?$basic_ostream@DU?$char_traits@D@std@@@std@@8 004980dc     server.obj
 0002:0002d0ec       ??_R1A@?0A@EA@ctype_base@std@@8 004980ec     server.obj
 0002:0002d108       ??_R1A@?0A@EA@?$numpunct@D@std@@8 00498108     server.obj
 0002:0002d124       ??_R3mapaction@@8          00498124     server.obj
 0002:0002d134       ??_R2_Iostream_error_category2@std@@8 00498134     server.obj
 0002:0002d140       ??_R2_Crt_new_delete@std@@8 00498140     server.obj
 0002:0002d148       ??_R1A@?0A@EA@?$ctype@D@std@@8 00498148     server.obj
 0002:0002d164       ??_R2clientstate@@8        00498164     server.obj
 0002:0002d170       ??_R3ios_base@std@@8       00498170     server.obj
 0002:0002d180       ??_R1A@?0A@EA@servercontroller@@8 00498180     server.obj
 0002:0002d19c       ??_R4autoteamaction@@6B@   0049819c     server.obj
 0002:0002d1b0       ??_R3serveripblacklist@@8  004981b0     server.obj
 0002:0002d1c0       ??_R1A@?0A@EA@serveripblacklist@@8 004981c0     server.obj
 0002:0002d1dc       ??_R3servermaprot@@8       004981dc     server.obj
 0002:0002d1ec       ??_R3?$basic_streambuf@DU?$char_traits@D@std@@@std@@8 004981ec     server.obj
 0002:0002d1fc       ??_R3playerstate@@8        004981fc     server.obj
 0002:0002d20c       ??_R4cleardemosaction@@6B@ 0049820c     server.obj
 0002:0002d220       ??_R3winservice@@8         00498220     server.obj
 0002:0002d230       ??_R2playeraction@@8       00498230     server.obj
 0002:0002d23c       ??_R2?$_Iosb@H@std@@8      0049823c     server.obj
 0002:0002d244       ??_R2kickaction@@8         00498244     server.obj
 0002:0002d254       ??_R3system_error@std@@8   00498254     server.obj
 0002:0002d264       ??_R1A@A@3EA@ios_base@std@@8 00498264     server.obj
 0002:0002d280       ??_R4serverparameter@@6B@  00498280     server.obj
 0002:0002d294       ??_R1A@?0A@EA@?$basic_ios@DU?$char_traits@D@std@@@std@@8 00498294     server.obj
 0002:0002d2b0       ??_R1A@?0A@EA@clientstate@@8 004982b0     server.obj
 0002:0002d2cc       ??_R2serverinfofile@@8     004982cc     server.obj
 0002:0002d2d8       ??_R4mapaction@@6B@        004982d8     server.obj
 0002:0002d2ec       ??_R3?$_Iosb@H@std@@8      004982ec     server.obj
 0002:0002d2fc       ??_R2_Facet_base@std@@8    004982fc     server.obj
 0002:0002d304       ??_R2facet@locale@std@@8   00498304     server.obj
 0002:0002d314       ??_R2serverdescaction@@8   00498314     server.obj
 0002:0002d320       ??_R17?0A@EA@?$_Iosb@H@std@@8 00498320     server.obj
 0002:0002d33c       ??_R4serveripcclist@@6B@   0049833c     server.obj
 0002:0002d350       ??_R4recorddemoaction@@6B@ 00498350     server.obj
 0002:0002d364       ??_R4?$ctype@D@std@@6B@    00498364     server.obj
 0002:0002d378       ??_R3serverparameter@@8    00498378     server.obj
 0002:0002d388       ??_R3runtime_error@std@@8  00498388     server.obj
 0002:0002d398       ??_R2servernickblacklist@@8 00498398     server.obj
 0002:0002d3a4       ??_R2serverconfigfile@@8   004983a4     server.obj
 0002:0002d3ac       ??_R2?$basic_ios@DU?$char_traits@D@std@@@std@@8 004983ac     server.obj
 0002:0002d3bc       ??_R2ctype_base@std@@8     004983bc     server.obj
 0002:0002d3d0       ??_R3clientstate@@8        004983d0     server.obj
 0002:0002d3e0       ??_R2?$basic_ostringstream@DU?$char_traits@D@std@@V?$allocator@D@2@@std@@8 004983e0     server.obj
 0002:0002d3f8       ??_R4?$num_put@DV?$ostreambuf_iterator@DU?$char_traits@D@std@@@std@@@std@@6B@ 004983f8     server.obj
 0002:0002d40c       ??_R3?$num_put@DV?$ostreambuf_iterator@DU?$char_traits@D@std@@@std@@@std@@8 0049840c     server.obj
 0002:0002d41c       ??_R1A@?0A@EA@serverparameter@@8 0049841c     server.obj
 0002:0002d438       ??_R1A@?0A@EA@error_category@std@@8 00498438     server.obj
 0002:0002d454       ??_R2filestream@@8         00498454     stream.obj
 0002:0002d460       ??_R1A@?0A@EA@gzstream@@8  00498460     stream.obj
 0002:0002d47c       ??_R2vecstream@@8          0049847c     stream.obj
 0002:0002d488       ??_R4filestream@@6B@       00498488     stream.obj
 0002:0002d49c       ??_R1A@?0A@EA@vecstream@@8 0049849c     stream.obj
 0002:0002d4b8       ??_R1A@?0A@EA@filestream@@8 004984b8     stream.obj
 0002:0002d4d4       ??_R4stream@@6B@           004984d4     stream.obj
 0002:0002d4e8       ??_R3filestream@@8         004984e8     stream.obj
 0002:0002d4f8       ??_R3stream@@8             004984f8     stream.obj
 0002:0002d508       ??_R3vecstream@@8          00498508     stream.obj
 0002:0002d518       ??_R3gzstream@@8           00498518     stream.obj
 0002:0002d528       ??_R1A@?0A@EA@stream@@8    00498528     stream.obj
 0002:0002d544       ??_R2gzstream@@8           00498544     stream.obj
 0002:0002d550       ??_R4vecstream@@6B@        00498550     stream.obj
 0002:0002d564       ??_R4gzstream@@6B@         00498564     stream.obj
 0002:0002d578       ??_R2stream@@8             00498578     stream.obj
 0002:0002d580       ___volatile_metadata       00498580     <linker-defined>
 0002:0002db70       ___rtc_iaa                 00498b70     LIBCMT:initsect.obj
 0002:0002db74       ___rtc_izz                 00498b74     LIBCMT:initsect.obj
 0002:0002db78       ___rtc_taa                 00498b78     LIBCMT:initsect.obj
 0002:0002db7c       ___rtc_tzz                 00498b7c     LIBCMT:initsect.obj
 0002:0002db80       __tls_start                00498b80     LIBCMT:tlssup.obj
 0002:0002db84       __Init_thread_epoch        00498b84     LIBCMT:thread_safe_statics.obj
 0002:0002db88       __tls_end                  00498b88     LIBCMT:tlssup.obj
 0002:0002dd48       __TI2?AVbad_alloc@std@@    00498d48     libcpmt:xthrow.obj
 0002:0002dd58       __CTA2?AVbad_alloc@std@@   00498d58     libcpmt:xthrow.obj
 0002:0002dd64       __CT??_R0?AVlogic_error@std@@@8??0logic_error@std@@QAE@ABV01@@Z12 00498d64     libcpmt:xthrow.obj
 0002:0002dd80       __TI3?AVlength_error@std@@ 00498d80     libcpmt:xthrow.obj
 0002:0002dd90       __CTA3?AVlength_error@std@@ 00498d90     libcpmt:xthrow.obj
 0002:0002dda0       __CT??_R0?AVlength_error@std@@@8??0length_error@std@@QAE@ABV01@@Z12 00498da0     libcpmt:xthrow.obj
 0002:0002ddbc       __TI3?AVout_of_range@std@@ 00498dbc     libcpmt:xthrow.obj
 0002:0002ddcc       __CTA3?AVout_of_range@std@@ 00498dcc     libcpmt:xthrow.obj
 0002:0002dddc       __CT??_R0?AVout_of_range@std@@@8??0out_of_range@std@@QAE@ABV01@@Z12 00498ddc     libcpmt:xthrow.obj
 0002:0002ddf8       __TI2?AVruntime_error@std@@ 00498df8     libcpmt:xthrow.obj
 0002:0002de08       __CTA2?AVruntime_error@std@@ 00498e08     libcpmt:xthrow.obj
 0002:0002dfac       __TI2?AVbad_exception@std@@ 00498fac     libvcruntime:frame.obj
 0002:0002dfbc       __CTA2?AVbad_exception@std@@ 00498fbc     libvcruntime:frame.obj
 0002:0002dfc8       __CT??_R0?AVbad_exception@std@@@8??0bad_exception@std@@QAE@ABV01@@Z12 00498fc8     libvcruntime:frame.obj
 0002:0002e7ac       __CTA3?AVbad_array_new_length@std@@ 004997ac     encryption.obj
 0002:0002e7bc       __CT??_R0?AVbad_alloc@std@@@8??0bad_alloc@std@@QAE@ABV01@@Z12 004997bc     encryption.obj
 0002:0002e7d8       __CT??_R0?AVexception@std@@@8??0exception@std@@QAE@ABV01@@Z12 004997d8     encryption.obj
 0002:0002e7f4       __TI3?AVbad_array_new_length@std@@ 004997f4     encryption.obj
 0002:0002e804       __CT??_R0?AVbad_array_new_length@std@@@8??0bad_array_new_length@std@@QAE@ABV01@@Z12 00499804     encryption.obj
 0002:0002e820       __CTA2?AVbad_cast@std@@    00499820     server.obj
 0002:0002e82c       __CT??_R0?AVbad_cast@std@@@8??0bad_cast@std@@QAE@ABV01@@Z12 0049982c     server.obj
 0002:0002e848       __CT??_R0?AVsystem_error@std@@@8??0system_error@std@@QAE@ABV01@@Z20 00499848     server.obj
 0002:0002e864       __TI2?AVbad_cast@std@@     00499864     server.obj
 0002:0002e874       __CT??_R0?AVruntime_error@std@@@8??0runtime_error@std@@QAE@ABV01@@Z12 00499874     server.obj
 0002:0002e890       __TI5?AVfailure@ios_base@std@@ 00499890     server.obj
 0002:0002e8a0       __CTA5?AVfailure@ios_base@std@@ 004998a0     server.obj
 0002:0002e8b8       __CT??_R0?AV_System_error@std@@@8??0_System_error@std@@QAE@ABV01@@Z20 004998b8     server.obj
 0002:0002e8d4       __CT??_R0?AVfailure@ios_base@std@@@8??0failure@ios_base@std@@QAE@ABV012@@Z20 004998d4     server.obj
 0002:0002e90c       __IMPORT_DESCRIPTOR_libcurl 0049990c     libcurl_imp:libcurl.dll
 0002:0002e920       __IMPORT_DESCRIPTOR_zlib1  00499920     zdll:zlib1.dll
 0002:0002e934       __IMPORT_DESCRIPTOR_SDL2   00499934     SDL2:SDL2.dll
 0002:0002e948       __IMPORT_DESCRIPTOR_WS2_32 00499948     ws2_32:WS2_32.dll
 0002:0002e95c       __IMPORT_DESCRIPTOR_WINMM  0049995c     winmm:WINMM.dll
 0002:0002e970       __IMPORT_DESCRIPTOR_dbghelp 00499970     Dbghelp:dbghelp.dll
 0002:0002e984       __IMPORT_DESCRIPTOR_KERNEL32 00499984     kernel32:KERNEL32.dll
 0002:0002e998       __IMPORT_DESCRIPTOR_ADVAPI32 00499998     advapi32:ADVAPI32.dll
 0002:0002e9ac       __NULL_IMPORT_DESCRIPTOR   004999ac     libcurl_imp:libcurl.dll
 0003:00000010       ?_Sync@ios_base@std@@0_NA  0049b010     libcpmt:ios.obj
 0003:00000018       ___scrt_native_dllmain_reason 0049b018     LIBCMT:utility.obj
 0003:0000001c       __Init_global_epoch        0049b01c     LIBCMT:thread_safe_statics.obj
 0003:00000020       ___isa_enabled             0049b020     LIBCMT:cpu_disp.obj
 0003:00000028       ___isa_inverted            0049b028     LIBCMT:cpu_disp.obj
 0003:00000040       ___security_cookie         0049b040     LIBCMT:gs_cookie.obj
 0003:00000080       ___security_cookie_complement 0049b080     LIBCMT:gs_cookie.obj
 0003:00000084       __fltused                  0049b084     LIBCMT:fltused.obj
 0003:00000090       ___scrt_default_matherr    0049b090     LIBCMT:matherr.obj
 0003:000000b0       __NLG_Destination          0049b0b0     libvcruntime:exsup.obj
 0003:000000c0       __iob                      0049b0c0     libucrt:_file.obj
 0003:00000170       ___acrt_lconv_c            0049b170     libucrt:localeconv.obj
 0003:000001c0       ___acrt_lconv              0049b1c0     libucrt:localeconv.obj
 0003:000001c4       ___acrt_lconv_static_decimal 0049b1c4     libucrt:localeconv.obj
 0003:000001c8       ___acrt_lconv_static_W_decimal 0049b1c8     libucrt:localeconv.obj
 0003:000001d0       ___abort_behavior          0049b1d0     libucrt:abort.obj
 0003:000001d4       __pctype                   0049b1d4     libucrt:ctype.obj
 0003:000001d8       __pwctype                  0049b1d8     libucrt:ctype.obj
 0003:000001f4       ___globallocalestatus      0049b1f4     libucrt:glstatus.obj
 0003:000001f8       ___acrt_initial_locale_data 0049b1f8     libucrt:nlsdata.obj
 0003:000002b0       ___acrt_initial_locale_pointers 0049b2b0     libucrt:nlsdata.obj
 0003:000002b8       ___acrt_wide_c_locale_string 0049b2b8     libucrt:nlsdata.obj
 0003:000002bc       ___mb_cur_max              0049b2bc     libucrt:nlsdata.obj
 0003:000002c0       ___badioinfo               0049b2c0     libucrt:ioinit.obj
 0003:00000300       __lookuptrailbytes         0049b300     libucrt:read.obj
 0003:000005a8       ___acrt_initial_multibyte_data 0049b5a8     libucrt:mbctype.obj
 0003:00000ae0       ?next_afk_check@@3HA       0049bae0     server.obj
 0003:00000ae4       ?sg@@3PAUservergame@@A     0049bae4     server.obj
 0003:00000ae8       ?masterport@@3HA           0049bae8     serverms.obj
 0003:00000aec       ?pongsock@@3IA             0049baec     serverms.obj
 0003:00000af0       ?soundcfg@@3PAUsoundcfgitem@@A 0049baf0     server.obj
 0003:00001160       ?powerupstats@@3PAUitemstat@@A 0049c160     server.obj
 0003:00001190       ?loglevelnames@@3PAPBDA    0049c190     server.obj
 0003:000011ac       ?teamnames_s@@3PAPBDA      0049c1ac     server.obj
 0003:000011c8       ?teamnames@@3PAPBDA        0049c1c8     server.obj
 0003:000011e4       ?mastersock@@3IA           0049c1e4     serverms.obj
 0003:000011e8       ?lansock@@3IA              0049c1e8     serverms.obj
 0003:000011ec       ?logsock@@3IA              0049c1ec     log.obj
 0003:000011f0       ?guns@@3PAUguninfo@@A      0049c1f0     server.obj
 0003:00001598       ?endis@@3PAPBDA            0049c598     server.obj
 0003:000015a8       ?ammostats@@3PAUitemstat@@A 0049c5a8     server.obj
 0003:00001638       ?mastername@@3PADA         0049c638     serverms.obj
 0003:0000173c       ?rootcert@@3PAEA           0049c73c     crypto.obj
 0003:0000175c       ?logdest@@3U_ENetAddress@@A 0049c75c     log.obj
 0003:00001770       ?modeacronymnames@@3PAPBDA 0049c770     protocol1.obj
 0003:00001aa0       ?vitas@@3U?$hashtable@Uuchar32@@Uvita_s@@@@A 0049caa0     server.obj
 0003:00001ac0       ?forbiddenlist@@3Userverforbiddenlist@@A 0049cac0     server.obj
 0003:00002870       ?serverinfomotd@@3Userverinfofile@@A 0049d870     server.obj
 0003:000029a0       ?scl@@3Uservercommandline@@A 0049d9a0     server.obj
 0003:00003050       ?nickblacklist@@3Uservernickblacklist@@A 0049e050     server.obj
 0003:000031b0       ?passwords@@3Userverpasswords@@A 0049e1b0     server.obj
 0003:000032e0       ?ipblacklist@@3Userveripblacklist@@A 0049e2e0     server.obj
 0003:00003410       ?serverinfoinfo@@3Userverinfofile@@A 0049e410     server.obj
 0003:00003540       ?serverparameters@@3Userverparameter@@A 0049e540     server.obj
 0003:00003660       ?maprot@@3Uservermaprot@@A 0049e660     server.obj
 0003:00003a20       ?geoiplist@@3Userveripcclist@@A 0049ea20     server.obj
 0003:00003d30       ?certblacklist@@3U?$hashtable@$$CBUuchar32@@D@@A 0049ed30     crypto.obj
 0003:000042ec       ?_Static@?1???$_Immortalize_memcpy_image@V_Iostream_error_category2@std@@@std@@YAABV_Iostream_error_category2@1@XZ@4V21@B 0049f2ec     server.obj
 0003:00004490       ??_R0?AVlogic_error@std@@@8 0049f490     libcpmt:xthrow.obj
 0003:000044b0       ??_R0?AVlength_error@std@@@8 0049f4b0     libcpmt:xthrow.obj
 0003:000044d0       ??_R0?AVout_of_range@std@@@8 0049f4d0     libcpmt:xthrow.obj
 0003:000044f0       ??_R0?AVbad_exception@std@@@8 0049f4f0     libvcruntime:frame.obj
 0003:00004510       ??_R0?AVbad_alloc@std@@@8  0049f510     encryption.obj
 0003:0000452c       ??_R0?AVexception@std@@@8  0049f52c     encryption.obj
 0003:00004548       ??_R0?AVbad_array_new_length@std@@@8 0049f548     encryption.obj
 0003:00004570       ??_R0?AVfailure@ios_base@std@@@8 0049f570     server.obj
 0003:00004594       ??_R0?AVruntime_error@std@@@8 0049f594     server.obj
 0003:000045b4       ??_R0?AVsystem_error@std@@@8 0049f5b4     server.obj
 0003:000045d4       ??_R0?AVbad_cast@std@@@8   0049f5d4     server.obj
 0003:000045f0       ??_R0?AV_System_error@std@@@8 0049f5f0     server.obj
 0003:00004610       ??_R0?AV_Locimp@locale@std@@@8 0049f610     libcpmt:locale0.obj
 0003:00004634       ??_R0?AVtype_info@@@8      0049f634     LIBCMT:std_type_info_static.obj
 0003:0000464c       ??_R0?AUrecorddemoaction@@@8 0049f64c     server.obj
 0003:0000466c       ??_R0?AUserverdescaction@@@8 0049f66c     server.obj
 0003:0000468c       ??_R0?AVplayerstate@@@8    0049f68c     server.obj
 0003:000046a8       ??_R0?AUenableaction@@@8   0049f6a8     server.obj
 0003:000046c4       ??_R0?AUplayeraction@@@8   0049f6c4     server.obj
 0003:000046e0       ??_R0?AUservermaprot@@@8   0049f6e0     server.obj
 0003:000046fc       ??_R0?AUforceteamaction@@@8 0049f6fc     server.obj
 0003:0000471c       ??_R0?AUdemoplayaction@@@8 0049f71c     server.obj
 0003:00004740       ??_R0?AV?$basic_stringbuf@DU?$char_traits@D@std@@V?$allocator@D@2@@std@@@8 0049f740     server.obj
 0003:00004790       ??_R0?AVios_base@std@@@8   0049f790     server.obj
 0003:000047ac       ??_R0?AVerror_category@std@@@8 0049f7ac     server.obj
 0003:000047d0       ??_R0?AV?$ctype@D@std@@@8  0049f7d0     server.obj
 0003:000047ec       ??_R0?AUkickaction@@@8     0049f7ec     server.obj
 0003:00004808       ??_R0?AUserveripcclist@@@8 0049f808     server.obj
 0003:00004828       ??_R0?AUserverconfigfile@@@8 0049f828     server.obj
 0003:00004848       ??_R0?AUserveraction@@@8   0049f848     server.obj
 0003:00004864       ??_R0?AV_Facet_base@std@@@8 0049f864     server.obj
 0003:00004884       ??_R0?AUserverpasswords@@@8 0049f884     server.obj
 0003:000048a4       ??_R0?AU_Crt_new_delete@std@@@8 0049f8a4     server.obj
 0003:000048c8       ??_R0?AV?$_Iosb@H@std@@@8  0049f8c8     server.obj
 0003:000048e4       ??_R0?AV_Iostream_error_category2@std@@@8 0049f8e4     server.obj
 0003:00004910       ??_R0?AV?$numpunct@D@std@@@8 0049f910     server.obj
 0003:00004930       ??_R0?AV?$basic_streambuf@DU?$char_traits@D@std@@@std@@@8 0049f930     server.obj
 0003:00004970       ??_R0?AV?$basic_ostringstream@DU?$char_traits@D@std@@V?$allocator@D@2@@std@@@8 0049f970     server.obj
 0003:000049c4       ??_R0?AUserverinfofile@@@8 0049f9c4     server.obj
 0003:000049e4       ??_R0?AUpauseaction@@@8    0049f9e4     server.obj
 0003:00004a00       ??_R0?AUserverforbiddenlist@@@8 0049fa00     server.obj
 0003:00004a24       ??_R0?AUservercontroller@@@8 0049fa24     server.obj
 0003:00004a44       ??_R0?AUservernickblacklist@@@8 0049fa44     server.obj
 0003:00004a68       ??_R0?AUclientstate@@@8    0049fa68     server.obj
 0003:00004a84       ??_R0?AUctype_base@std@@@8 0049fa84     server.obj
 0003:00004aa4       ??_R0?AUcleardemosaction@@@8 0049faa4     server.obj
 0003:00004ac4       ??_R0?AV?$basic_ios@DU?$char_traits@D@std@@@std@@@8 0049fac4     server.obj
 0003:00004afc       ??_R0?AVfacet@locale@std@@@8 0049fafc     server.obj
 0003:00004b1c       ??_R0?AUserverparameter@@@8 0049fb1c     server.obj
 0003:00004b3c       ??_R0?AUbanaction@@@8      0049fb3c     server.obj
 0003:00004b54       ??_R0?AUmastermodeaction@@@8 0049fb54     server.obj
 0003:00004b74       ??_R0?AV?$basic_ostream@DU?$char_traits@D@std@@@std@@@8 0049fb74     server.obj
 0003:00004bb0       ??_R0?AUshuffleteamaction@@@8 0049fbb0     server.obj
 0003:00004bd0       ??_R0?AUremovebansaction@@@8 0049fbd0     server.obj
 0003:00004bf0       ??_R0?AUserveripblacklist@@@8 0049fbf0     server.obj
 0003:00004c10       ??_R0?AV?$num_put@DV?$ostreambuf_iterator@DU?$char_traits@D@std@@@std@@@std@@@8 0049fc10     server.obj
 0003:00004c64       ??_R0?AUgiveadminaction@@@8 0049fc64     server.obj
 0003:00004c84       ??_R0?AUmapaction@@@8      0049fc84     server.obj
 0003:00004c9c       ??_R0?AUautoteamaction@@@8 0049fc9c     server.obj
 0003:00004cbc       ??_R0?AUwinservice@@@8     0049fcbc     server.obj
 0003:00004cd8       ??_R0?AUfilestream@@@8     0049fcd8     stream.obj
 0003:00004cf4       ??_R0?AUgzstream@@@8       0049fcf4     stream.obj
 0003:00004d0c       ??_R0?AUvecstream@@@8      0049fd0c     stream.obj
 0003:00004d24       ??_R0?AUstream@@@8         0049fd24     stream.obj
 0003:000052a8       ?_Id_cnt@id@locale@std@@0HA 004a02a8     libcpmt:locale0.obj
 0003:000052ac       ?_Clocptr@_Locimp@locale@std@@0PAV123@A 004a02ac     libcpmt:locale0.obj
 0003:000052b0       ?id@?$ctype@G@std@@2V0locale@2@A 004a02b0     libcpmt:locale0.obj
 0003:000052b4       ?id@?$codecvt@_WDU_Mbstatet@@@std@@2V0locale@2@A 004a02b4     libcpmt:locale0.obj
 0003:000052b8       ?id@?$codecvt@GDU_Mbstatet@@@std@@2V0locale@2@A 004a02b8     libcpmt:locale0.obj
 0003:000052bc       ?id@?$ctype@_W@std@@2V0locale@2@A 004a02bc     libcpmt:locale0.obj
 0003:000052c0       ?id@?$ctype@D@std@@2V0locale@2@A 004a02c0     libcpmt:locale0.obj
 0003:000052dc       ?_Index@ios_base@std@@0HA  004a02dc     libcpmt:ios.obj
 0003:00005314       ?id@?$num_get@DV?$istreambuf_iterator@DU?$char_traits@D@std@@@std@@@std@@2V0locale@2@A 004a0314     libcpmt:locale.obj
 0003:00005318       ?id@?$codecvt@DDU_Mbstatet@@@std@@2V0locale@2@A 004a0318     libcpmt:locale.obj
 0003:0000531c       ?_Ptr_cin@std@@3PAV?$basic_istream@DU?$char_traits@D@std@@@1@A 004a031c     libcpmt:iosptrs.obj
 0003:00005320       ?_Ptr_cout@std@@3PAV?$basic_ostream@DU?$char_traits@D@std@@@1@A 004a0320     libcpmt:iosptrs.obj
 0003:00005324       ?_Ptr_cerr@std@@3PAV?$basic_ostream@DU?$char_traits@D@std@@@1@A 004a0324     libcpmt:iosptrs.obj
 0003:00005328       ?_Ptr_clog@std@@3PAV?$basic_ostream@DU?$char_traits@D@std@@@1@A 004a0328     libcpmt:iosptrs.obj
 0003:0000532c       ?_Ptr_wcin@std@@3PAV?$basic_istream@_WU?$char_traits@_W@std@@@1@A 004a032c     libcpmt:iosptrs.obj
 0003:00005330       ?_Ptr_wcout@std@@3PAV?$basic_ostream@_WU?$char_traits@_W@std@@@1@A 004a0330     libcpmt:iosptrs.obj
 0003:00005334       ?_Ptr_wcerr@std@@3PAV?$basic_ostream@_WU?$char_traits@_W@std@@@1@A 004a0334     libcpmt:iosptrs.obj
 0003:00005338       ?_Ptr_wclog@std@@3PAV?$basic_ostream@_WU?$char_traits@_W@std@@@1@A 004a0338     libcpmt:iosptrs.obj
 0003:00005368       ?id@?$time_put@_WV?$ostreambuf_iterator@_WU?$char_traits@_W@std@@@std@@@std@@2V0locale@2@A 004a0368     libcpmt:wlocale.obj
 0003:0000536c       ?id@?$num_get@_WV?$istreambuf_iterator@_WU?$char_traits@_W@std@@@std@@@std@@2V0locale@2@A 004a036c     libcpmt:wlocale.obj
 0003:00005370       ?id@?$num_put@_WV?$ostreambuf_iterator@_WU?$char_traits@_W@std@@@std@@@std@@2V0locale@2@A 004a0370     libcpmt:wlocale.obj
 0003:00005374       ?id@?$numpunct@_W@std@@2V0locale@2@A 004a0374     libcpmt:wlocale.obj
 0003:00005378       ?id@?$collate@_W@std@@2V0locale@2@A 004a0378     libcpmt:wlocale.obj
 0003:0000537c       ?id@?$messages@_W@std@@2V0locale@2@A 004a037c     libcpmt:wlocale.obj
 0003:00005380       ?id@?$money_get@_WV?$istreambuf_iterator@_WU?$char_traits@_W@std@@@std@@@std@@2V0locale@2@A 004a0380     libcpmt:wlocale.obj
 0003:00005384       ?id@?$money_put@_WV?$ostreambuf_iterator@_WU?$char_traits@_W@std@@@std@@@std@@2V0locale@2@A 004a0384     libcpmt:wlocale.obj
 0003:00005388       ?id@?$moneypunct@_W$0A@@std@@2V0locale@2@A 004a0388     libcpmt:wlocale.obj
 0003:0000538c       ?id@?$moneypunct@_W$00@std@@2V0locale@2@A 004a038c     libcpmt:wlocale.obj
 0003:00005390       ?id@?$time_get@_WV?$istreambuf_iterator@_WU?$char_traits@_W@std@@@std@@@std@@2V0locale@2@A 004a0390     libcpmt:wlocale.obj
 0003:00005394       ?id@?$num_get@GV?$istreambuf_iterator@GU?$char_traits@G@std@@@std@@@std@@2V0locale@2@A 004a0394     libcpmt:wlocale.obj
 0003:00005398       ?id@?$num_put@GV?$ostreambuf_iterator@GU?$char_traits@G@std@@@std@@@std@@2V0locale@2@A 004a0398     libcpmt:wlocale.obj
 0003:0000539c       ?id@?$numpunct@G@std@@2V0locale@2@A 004a039c     libcpmt:wlocale.obj
 0003:000053a0       ?id@?$collate@G@std@@2V0locale@2@A 004a03a0     libcpmt:wlocale.obj
 0003:000053a4       ?id@?$messages@G@std@@2V0locale@2@A 004a03a4     libcpmt:wlocale.obj
 0003:000053a8       ?id@?$money_get@GV?$istreambuf_iterator@GU?$char_traits@G@std@@@std@@@std@@2V0locale@2@A 004a03a8     libcpmt:wlocale.obj
 0003:000053ac       ?id@?$money_put@GV?$ostreambuf_iterator@GU?$char_traits@G@std@@@std@@@std@@2V0locale@2@A 004a03ac     libcpmt:wlocale.obj
 0003:000053b0       ?id@?$moneypunct@G$0A@@std@@2V0locale@2@A 004a03b0     libcpmt:wlocale.obj
 0003:000053b4       ?id@?$moneypunct@G$00@std@@2V0locale@2@A 004a03b4     libcpmt:wlocale.obj
 0003:000053b8       ?id@?$time_get@GV?$istreambuf_iterator@GU?$char_traits@G@std@@@std@@@std@@2V0locale@2@A 004a03b8     libcpmt:wlocale.obj
 0003:000053bc       ?id@?$time_put@GV?$ostreambuf_iterator@GU?$char_traits@G@std@@@std@@@std@@2V0locale@2@A 004a03bc     libcpmt:wlocale.obj
 0003:000053c0       ?id@?$collate@D@std@@2V0locale@2@A 004a03c0     libcpmt:xlocale.obj
 0003:000053c4       ?id@?$messages@D@std@@2V0locale@2@A 004a03c4     libcpmt:xlocale.obj
 0003:000053c8       ?id@?$money_get@DV?$istreambuf_iterator@DU?$char_traits@D@std@@@std@@@std@@2V0locale@2@A 004a03c8     libcpmt:xlocale.obj
 0003:000053cc       ?id@?$money_put@DV?$ostreambuf_iterator@DU?$char_traits@D@std@@@std@@@std@@2V0locale@2@A 004a03cc     libcpmt:xlocale.obj
 0003:000053d0       ?id@?$moneypunct@D$0A@@std@@2V0locale@2@A 004a03d0     libcpmt:xlocale.obj
 0003:000053d4       ?id@?$moneypunct@D$00@std@@2V0locale@2@A 004a03d4     libcpmt:xlocale.obj
 0003:000053d8       ?id@?$time_get@DV?$istreambuf_iterator@DU?$char_traits@D@std@@@std@@@std@@2V0locale@2@A 004a03d8     libcpmt:xlocale.obj
 0003:000053dc       ?id@?$time_put@DV?$ostreambuf_iterator@DU?$char_traits@D@std@@@std@@@std@@2V0locale@2@A 004a03dc     libcpmt:xlocale.obj
 0003:000053e0       ___scrt_current_native_startup_state 004a03e0     LIBCMT:utility.obj
 0003:000053e4       ___scrt_native_startup_lock 004a03e4     LIBCMT:utility.obj
 0003:0000540c       ___isa_available           004a040c     LIBCMT:cpu_disp.obj
 0003:00005410       ___favor                   004a0410     LIBCMT:cpu_disp.obj
 0003:00005414       ___avx10_version           004a0414     LIBCMT:cpu_disp.obj
 0003:00005418       ___scrt_debugger_hook_flag 004a0418     LIBCMT:utility_desktop.obj
 0003:0000541c       __tls_index                004a041c     LIBCMT:tlssup.obj
 0003:00005420       ?__type_info_root_node@@3U__type_info_node@@A 004a0420     LIBCMT:tncleanup.obj
 0003:00005428       ?__WinRTOutOfMemoryExceptionCallback@@3P6GPAXXZA 004a0428     libvcruntime:ehhelpers.obj
 0003:0000542c       ___pPurecall               004a042c     libvcruntime:purevirt_data.obj
 0003:00005480       __nstream                  004a0480     libucrt:_file.obj
 0003:00005484       ___piob                    004a0484     libucrt:_file.obj
 0003:00005488       __cflush                   004a0488     libucrt:_file.obj
 0003:0000548c       ___acrt_lconv_static_null  004a048c     libucrt:localeconv.obj
 0003:00005490       ___acrt_lconv_static_W_null 004a0490     libucrt:localeconv.obj
 0003:00005720       __environ_table            004a0720     libucrt:environment_initialization.obj
 0003:00005724       __wenviron_table           004a0724     libucrt:environment_initialization.obj
 0003:00005728       ___dcrt_initial_wide_environment 004a0728     libucrt:environment_initialization.obj
 0003:0000572c       ___dcrt_initial_narrow_environment 004a072c     libucrt:environment_initialization.obj
 0003:00005730       ___acrt_atexit_table       004a0730     libucrt:onexit.obj
 0003:0000573c       ___acrt_at_quick_exit_table 004a073c     libucrt:onexit.obj
 0003:00005750       __pgmptr                   004a0750     libucrt:argv_data.obj
 0003:00005754       ___argc                    004a0754     libucrt:argv_data.obj
 0003:00005758       ___argv                    004a0758     libucrt:argv_data.obj
 0003:0000575c       ___wargv                   004a075c     libucrt:argv_data.obj
 0003:00005760       __acmdln                   004a0760     libucrt:argv_data.obj
 0003:00005764       __wcmdln                   004a0764     libucrt:argv_data.obj
 0003:00005768       ___acrt_locale_changed_data 004a0768     libucrt:wsetlocale.obj
 0003:00005770       __commode                  004a0770     libucrt:ncommode.obj
 0003:0000577c       ?__acrt_use_tls2_apis@@3_NA 004a077c     libucrt:per_thread_data.obj
 0003:000057e0       ___acrt_current_locale_data 004a07e0     libucrt:nlsdata.obj
 0003:000057e8       ___pioinfo                 004a07e8     libucrt:ioinit.obj
 0003:000059e8       __nhandle                  004a09e8     libucrt:ioinit.obj
 0003:00005a08       ___acrt_stdout_buffer      004a0a08     libucrt:_sftbuf.obj
 0003:00005a0c       ___acrt_stderr_buffer      004a0a0c     libucrt:_sftbuf.obj
 0003:00005a10       ?_timezone@@3V?$dual_state_global@J@__crt_state_management@@A 004a0a10     libucrt:timeset.obj
 0003:00005a14       ?_daylight@@3V?$dual_state_global@H@__crt_state_management@@A 004a0a14     libucrt:timeset.obj
 0003:00005a18       ?_dstbias@@3V?$dual_state_global@J@__crt_state_management@@A 004a0a18     libucrt:timeset.obj
 0003:00005adc       __mbctype                  004a0adc     libucrt:mbctype.obj
 0003:00005ae0       __mbcasemap                004a0ae0     libucrt:mbctype.obj
 0003:00005ae4       ___acrt_current_multibyte_data 004a0ae4     libucrt:mbctype.obj
 0003:00005af0       ___acrt_heap               004a0af0     libucrt:heap_handle.obj
 0003:00005af4       __fmode                    004a0af4     libucrt:txtmode.obj
 0003:00005af8       __umaskval                 004a0af8     libucrt:umask.obj
 0003:00005b00       ___fastflag                004a0b00     libucrt:fp_flags.obj
 0003:00005b10       ?servclock@@3HA            004a0b10     server.obj
 0003:00005b14       ?last_demo_timestampformat@@3PADA 004a0b14     server.obj
 0003:00005b2c       ?last_dumpparameters@@3HA  004a0b2c     server.obj
 0003:00005b30       ?demoplayback@@3PAUstream@@A 004a0b30     server.obj
 0003:00005b34       ?map_queued@@3_NA          004a0b34     server.obj
 0003:00005b35       ?triggerpollrestart@@3_NA  004a0b35     server.obj
 0003:00005b36       ?recheckallserverconfigs@@3_NC 004a0b36     server.obj
 0003:00005b37       ?servinfoauth_done@@3_NC   004a0b37     server.obj
 0003:00005b38       ?isdedicated@@3_NA         004a0b38     server.obj
 0003:00005b39       ?startnewservermapsepoch@@3_NC 004a0b39     server.obj
 0003:00005b3a       ?usemaster@@3_NA           004a0b3a     serverms.obj
 0003:00005b40       ?vitafilename_update_backup@@3PADA 004a0b40     server.obj
 0003:00005c44       ?nextplayback@@3HA         004a0c44     server.obj
 0003:00005c48       ?last_logthreshold_syslog@@3HA 004a0c48     server.obj
 0003:00005c4c       ?laststatus@@3HA           004a0c4c     server.obj
 0003:00005c50       ?passtries@@3HA            004a0c50     server.obj
 0003:00005c54       ?servpars@@3PAU?$hashtable@PBDUservpar@@@@A 004a0c54     server.obj
 0003:00005c58       ?last_dumpsuggestions@@3HA 004a0c58     server.obj
 0003:00005c5c       ?last_stat_mainlog_peaklevel@@3HA 004a0c5c     server.obj
 0003:00005c60       ?passguy@@3IA              004a0c60     server.obj
 0003:00005c64       ?modeinfologfilename@@3PBDB 004a0c64     server.obj
 0003:00005c68       ?cn2boot@@3HA              004a0c68     server.obj
 0003:00005c6c       ?last_logthreshold_file@@3HA 004a0c6c     server.obj
 0003:00005c70       ?vitastosave@@3PAU?$vector@Uvitakey_s@@@@A 004a0c70     server.obj
 0003:00005c74       ?incoming_size@@3JA        004a0c74     server.obj
 0003:00005c78       ?last_gamepenalty_cutoff@@3HA 004a0c78     server.obj
 0003:00005c80       ?last_demo_filenameformat@@3PADA 004a0c80     server.obj
 0003:00005cc0       ?svc@callbacks@winservice@@2PAU2@A 004a0cc0     server.obj
 0003:00005cc4       ?readmaplog@@3PAUstream@@A 004a0cc4     server.obj
 0003:00005cc8       ?servmillis@@3HA           004a0cc8     server.obj
 0003:00005ccc       ?last_stat_theadlog_peaklevel@@3HA 004a0ccc     server.obj
 0003:00005cd0       ?vitafilename_update@@3PADA 004a0cd0     server.obj
 0003:00005dd8       ?vitafilename_update_backup_base@@3PADA 004a0dd8     server.obj
 0003:00005edc       ?demorecord@@3PAUdemo_s@@A 004a0edc     server.obj
 0003:00005ee0       ?serverhost@@3PAU_ENetHost@@A 004a0ee0     server.obj
 0003:00005ee4       ?servermapdropbox@@3PCUservermap@@C 004a0ee4     server.obj
 0003:00005ee8       ?last_mandatory_auth@@3HA  004a0ee8     server.obj
 0003:00005ef0       ?last_use_hx_modeinfo@@3PADA 004a0ef0     server.obj
 0003:00005f90       ?last_mappenalty_cutoff@@3HA 004a0f90     server.obj
 0003:00005f94       ?use_hx_modeinfo_mask@@3HA 004a0f94     server.obj
 0003:00005f98       ?last_demo_max_number@@3HA 004a0f98     server.obj
 0003:00005f9c       ?last_vitamaxage@@3HA      004a0f9c     server.obj
 0003:00005fa0       ?totalclients@@3HA         004a0fa0     server.obj
 0003:00005fa4       ?last_demo_save@@3HA       004a0fa4     server.obj
 0003:00005fa8       ?last_demo_debug@@3HA      004a0fa8     server.obj
 0003:00005fb0       ?vitafilename_backup@@3PADA 004a0fb0     server.obj
 0003:000060b8       ?last_demo_path@@3PADA     004a10b8     server.obj
 0003:000060f8       ?last_logthreshold_console@@3HA 004a10f8     server.obj
 0003:000060fc       ?vitaupdatebuflen@@3HA     004a10fc     server.obj
 0003:00006100       ?servinfoauth_dropbox@@3PCUservinfoauth@@C 004a1100     server.obj
 0003:00006104       ?last_auth_verify_ip@@3HA  004a1104     server.obj
 0003:00006108       ?vitaupdatebuf@@3PADA      004a1108     server.obj
 0003:00006110       ?vitafilename@@3PADA       004a1110     server.obj
 0003:00006218       ?servpubkey@@3PADA         004a1218     server.obj
 0003:0000631c       ?readmapsthread_sem@@3PAUsl_semaphore@@A 004a131c     server.obj
 0003:00006320       ?svcctrl@@3PAUservercontroller@@A 004a1320     server.obj
 0003:00006324       ?servownip@@3IA            004a1324     server.obj
 0003:00006328       ?last_modepenalty_weight@@3HA 004a1328     server.obj
 0003:00006330       ?demo_filenameformat@@3PADA 004a1330     server.obj
 0003:00006370       ?use_hx_modeinfo@@3PADA    004a1370     server.obj
 0003:00006410       ?demo_path@@3PADA          004a1410     server.obj
 0003:00006450       ?ssk@@3PAEA                004a1450     server.obj
 0003:00006490       ?readserverconfigsthread_sem@@3PAUsl_semaphore@@A 004a1490     server.obj
 0003:00006494       ?last_gamepenalty_random@@3HA 004a1494     server.obj
 0003:00006498       ?last_mappenalty_weight@@3HA 004a1498     server.obj
 0003:000064a0       ?demo_timestampformat@@3PADA 004a14a0     server.obj
 0003:000064b8       ?last_dumpmaprot@@3HA      004a14b8     server.obj
 0003:000064bc       ?passtime@@3HA             004a14bc     server.obj
 0003:000064c0       ?masterinpos@@3HA          004a14c0     serverms.obj
 0003:000064c4       ?masteroutpos@@3HA         004a14c4     serverms.obj
 0003:000064c8       ?lastupdatemaster@@3HA     004a14c8     serverms.obj
 0003:000064cc       ?masteraddress@@3U_ENetAddress@@A 004a14cc     serverms.obj
 0003:000064d4       ?serveraddress@@3U_ENetAddress@@A 004a14d4     serverms.obj
 0003:000064e0       ?sboxes@tiger@@3PA_KA      004a14e0     crypto.obj
 0003:000084e0       ?findfilelocation@@3HA     004a34e0     stream.obj
 0003:000084e8       ?homedir@@3PADA            004a34e8     stream.obj
 0003:000085f0       ?_timestringbuffer@@3PADA  004a35f0     tools.obj
 0003:000086f4       ?logthreshold_file@@3HA    004a36f4     server.obj
 0003:000086f8       ?logthreshold_console@@3HA 004a36f8     server.obj
 0003:000086fc       ?gbans@@3U?$vector@Ugbaninfo@@@@A 004a36fc     server.obj
 0003:00008708       ?demo_max_number@@3HA      004a3708     server.obj
 0003:0000870c       ?shuffle@@3U?$vector@H@@A  004a370c     server.obj
 0003:00008718       ?demo_save@@3HA            004a3718     server.obj
 0003:0000871c       ?servermaps@@3U?$vector@PAUservermap@@@@A 004a371c     server.obj
 0003:00008728       ?cursgame@@3Uservergame@@A 004a3728     server.obj
 0003:00008af0       ?stat_theadlog_peaklevel@@3HA 004a3af0     server.obj
 0003:00008af4       ?dumpmaprot@@3HA           004a3af4     server.obj
 0003:00008af8       ?sdistrib@@3U?$vector@Utwoint@@@@A 004a3af8     server.obj
 0003:00008b04       ?gamepenalty_random@@3HA   004a3b04     server.obj
 0003:00008b08       ?stat_mainlog_peaklevel@@3HA 004a3b08     server.obj
 0003:00008b0c       ?auth_verify_ip@@3HA       004a3b0c     server.obj
 0003:00008b10       ?demoringbuf_store@@3U?$ringbuf@PAU?$ringbuf@E$0EAAAA@@@$0BI@@@A 004a3b10     server.obj
 0003:00008b78       ?sem_demoworkerthread@@3Usl_semaphore@@A 004a3b78     server.obj
 0003:00008b80       ?dumpsuggestions@@3HA      004a3b80     server.obj
 0003:00008b84       ?mapfilenames@@3U?$vector@Umapfilename@@@@A 004a3b84     server.obj
 0003:00008b90       ?logthreshold_syslog@@3HA  004a3b90     server.obj
 0003:00008b94       ?gamepenalty_cutoff@@3HA   004a3b94     server.obj
 0003:00008b98       ?servinfoauth_deferred@@3Usl_semaphore@@A 004a3b98     server.obj
 0003:00008ba0       ?mappenalty_weight@@3HA    004a3ba0     server.obj
 0003:00008ba4       ?demo_debug@@3HA           004a3ba4     server.obj
 0003:00008ba8       ?clients@@3U?$vector@PAUclient@@@@A 004a3ba8     server.obj
 0003:00008bb4       ?bans@@3U?$vector@Uban@@@@A 004a3bb4     server.obj
 0003:00008bc0       ?gamesuggestions@@3U?$vector@PAUservermap@@@@A 004a3bc0     server.obj
 0003:00008bcc       ?modepenalty_weight@@3HA   004a3bcc     server.obj
 0003:00008bd0       ?mandatory_auth@@3HA       004a3bd0     server.obj
 0003:00008bd8       ?dumpparameters@@3HA       004a3bd8     server.obj
 0003:00008bdc       ?vitamaxage@@3HA           004a3bdc     server.obj
 0003:00008be0       ?demos@@3PAUdemo_s@@A      004a3be0     server.obj
 0003:0000dec0       ?serverconfigs@@3U?$vector@PAUserverconfigfile@@@@A 004a8ec0     server.obj
 0003:0000decc       ?mappenalty_cutoff@@3HA    004a8ecc     server.obj
 0003:0000ded0       ?demobuf_store@@3U?$ringbuf@PAU?$vector@E@@$0BI@@@A 004a8ed0     server.obj
 0003:0000df38       ?savedscores@@3U?$vector@Usavedscore@@@@A 004a8f38     server.obj
 0003:0000df44       ?worldstates@@3U?$vector@PAUworldstate@@@@A 004a8f44     server.obj
 0003:0000df50       ?servinfoauths@@3U?$ringbuf@PAUservinfoauth@@$0BA@@@A 004a8f50     server.obj
 0003:0000df98       ?masterout@@3U?$vector@D@@A 004a8f98     serverms.obj
 0003:0000dfa4       ?masterin@@3U?$vector@D@@A 004a8fa4     serverms.obj
 0003:0000dfb0       ?certs@@3U?$vector@PAUcert@@@@A 004a8fb0     crypto.obj
 0003:0000f068       ?packagedirs@@3U?$vector@PAD@@A 004aa068     stream.obj
 0003:00010870       ?_OptionsStorage@?1??__local_stdio_printf_options@@9@4_KA 004ab870     server.obj
 0003:000108a4       ?overreadval@?1??get@?$databuf@E@@QAEABEXZ@4EA 004ab8a4     server.obj
 0003:000108ac       ?staticbuffer@?1??load@servermap@@QAEXXZ@4PAEA 004ab8ac     server.obj
 0003:000108b0       ?_Psave@?$_Facetptr@V?$numpunct@D@std@@@std@@2PBVfacet@locale@2@B 004ab8b0     server.obj
 0003:000108b4       ?_Psave@?$_Facetptr@V?$num_put@DV?$ostreambuf_iterator@DU?$char_traits@D@std@@@std@@@std@@@std@@2PBVfacet@locale@2@B 004ab8b4     server.obj
 0003:000108b8       ?_Psave@?$_Facetptr@V?$ctype@D@std@@@std@@2PBVfacet@locale@2@B 004ab8b8     server.obj
 0003:000110d8       ?_OptionsStorage@?1??__local_stdio_scanf_options@@9@4_KA 004ac0d8     server.obj
 0003:00011904       ?id@?$num_put@DV?$ostreambuf_iterator@DU?$char_traits@D@std@@@std@@@std@@2V0locale@2@A 004ac904     server.obj
 0003:00012a64       ?id@?$numpunct@D@std@@2V0locale@2@A 004ada64     server.obj
 0003:00012a80       ?dummy@?1??addevent@client@@QAEAATgameevent@@XZ@4T3@A 004ada80     server.obj
 0003:00014c8c       ___dyn_tls_dtor_callback   004afc8c     <common>
 0003:00014c90       ___dyn_tls_init_callback   004afc90     <common>
 0003:00014c94       ___scrt_ucrt_dll_is_in_use 004afc94     <common>
 0003:00014c98       ___use_sse2_mathfcns       004afc98     <common>
 0003:00014c9c       __pmatherr                 004afc9c     <common>

 entry point at        0001:0001727f

 Static symbols

 0000:fff3e000       .debug$S                   00400000     libcurl_imp:libcurl.dll
 0000:fff3e000       .debug$S                   00400000     libcurl_imp:libcurl.dll
 0000:fff3e000       .debug$S                   00400000     libcurl_imp:libcurl.dll
 0000:fff3e000       .debug$S                   00400000     libcurl_imp:libcurl.dll
 0000:fff3e000       .debug$S                   00400000     libcurl_imp:libcurl.dll
 0000:fff3e000       .debug$S                   00400000     libcurl_imp:libcurl.dll
 0000:fff3e000       .debug$S                   00400000     libcurl_imp:libcurl.dll
 0000:fff3e000       .debug$S                   00400000     libcurl_imp:libcurl.dll
 0000:fff3e000       .debug$S                   00400000     libcurl_imp:libcurl.dll
 0000:fff3e000       .debug$S                   00400000     SDL2:SDL2.dll
 0000:fff3e000       .debug$S                   00400000     SDL2:SDL2.dll
 0000:fff3e000       .debug$S                   00400000     SDL2:SDL2.dll
 0000:fff3e000       .debug$S                   00400000     SDL2:SDL2.dll
 0000:fff3e000       .debug$S                   00400000     SDL2:SDL2.dll
 0000:fff3e000       .debug$S                   00400000     SDL2:SDL2.dll
 0000:fff3e000       .debug$S                   00400000     SDL2:SDL2.dll
 0000:fff3e000       .debug$S                   00400000     SDL2:SDL2.dll
 0000:fff3e000       .debug$S                   00400000     SDL2:SDL2.dll
 0000:fff3e000       .debug$S                   00400000     SDL2:SDL2.dll
 0000:fff3e000       .debug$S                   00400000     SDL2:SDL2.dll
 0000:fff3e000       .debug$S                   00400000     winmm:WINMM.dll
 0000:fff3e000       .debug$S                   00400000     winmm:WINMM.dll
 0000:fff3e000       .debug$S                   00400000     winmm:WINMM.dll
 0000:fff3e000       .debug$S                   00400000     ws2_32:WS2_32.dll
 0000:fff3e000       .debug$S                   00400000     ws2_32:WS2_32.dll
 0000:fff3e000       .debug$S                   00400000     ws2_32:WS2_32.dll
 0000:fff3e000       .debug$S                   00400000     ws2_32:WS2_32.dll
 0000:fff3e000       .debug$S                   00400000     ws2_32:WS2_32.dll
 0000:fff3e000       .debug$S                   00400000     ws2_32:WS2_32.dll
 0000:fff3e000       .debug$S                   00400000     ws2_32:WS2_32.dll
 0000:fff3e000       .debug$S                   00400000     ws2_32:WS2_32.dll
 0000:fff3e000       .debug$S                   00400000     ws2_32:WS2_32.dll
 0000:fff3e000       .debug$S                   00400000     ws2_32:WS2_32.dll
 0000:fff3e000       .debug$S                   00400000     ws2_32:WS2_32.dll
 0000:fff3e000       .debug$S                   00400000     ws2_32:WS2_32.dll
 0000:fff3e000       .debug$S                   00400000     ws2_32:WS2_32.dll
 0000:fff3e000       .debug$S                   00400000     ws2_32:WS2_32.dll
 0000:fff3e000       .debug$S                   00400000     ws2_32:WS2_32.dll
 0000:fff3e000       .debug$S                   00400000     ws2_32:WS2_32.dll
 0000:fff3e000       .debug$S                   00400000     ws2_32:WS2_32.dll
 0000:fff3e000       .debug$S                   00400000     ws2_32:WS2_32.dll
 0000:fff3e000       .debug$S                   00400000     ws2_32:WS2_32.dll
 0000:fff3e000       .debug$S                   00400000     ws2_32:WS2_32.dll
 0000:fff3e000       .debug$S                   00400000     ws2_32:WS2_32.dll
 0000:fff3e000       .debug$S                   00400000     ws2_32:WS2_32.dll
 0000:fff3e000       .debug$S                   00400000     ws2_32:WS2_32.dll
 0000:fff3e000       .debug$S                   00400000     ws2_32:WS2_32.dll
 0000:fff3e000       .debug$S                   00400000     zdll:zlib1.dll
 0000:fff3e000       .debug$S                   00400000     zdll:zlib1.dll
 0000:fff3e000       .debug$S                   00400000     zdll:zlib1.dll
 0000:fff3e000       .debug$S                   00400000     zdll:zlib1.dll
 0000:fff3e000       .debug$S                   00400000     zdll:zlib1.dll
 0000:fff3e000       .debug$S                   00400000     zdll:zlib1.dll
 0000:fff3e000       .debug$S                   00400000     zdll:zlib1.dll
 0000:fff3e000       .debug$S                   00400000     zdll:zlib1.dll
 0000:fff3e000       .debug$S                   00400000     zdll:zlib1.dll
 0000:fff3e000       .debug$S                   00400000     zdll:zlib1.dll
 0000:fff3e000       .debug$S                   00400000     Dbghelp:dbghelp.dll
 0000:fff3e000       .debug$S                   00400000     Dbghelp:dbghelp.dll
 0000:fff3e000       .debug$S                   00400000     Dbghelp:dbghelp.dll
 0000:fff3e000       .debug$S                   00400000     Dbghelp:dbghelp.dll
 0000:fff3e000       .debug$S                   00400000     Dbghelp:dbghelp.dll
 0000:fff3e000       .debug$S                   00400000     Dbghelp:dbghelp.dll
 0000:fff3e000       .debug$S                   00400000     advapi32:ADVAPI32.dll
 0000:fff3e000       .debug$S                   00400000     advapi32:ADVAPI32.dll
 0000:fff3e000       .debug$S                   00400000     advapi32:ADVAPI32.dll
 0000:fff3e000       .debug$S                   00400000     advapi32:ADVAPI32.dll
 0000:fff3e000       .debug$S                   00400000     advapi32:ADVAPI32.dll
 0000:fff3e000       .debug$S                   00400000     advapi32:ADVAPI32.dll
 0000:fff3e000       .debug$S                   00400000     advapi32:ADVAPI32.dll
 0000:fff3e000       .debug$S                   00400000     advapi32:ADVAPI32.dll
 0000:fff3e000       .debug$S                   00400000     advapi32:ADVAPI32.dll
 0000:fff3e000       .debug$S                   00400000     advapi32:ADVAPI32.dll
 0000:fff3e000       .debug$S                   00400000     kernel32:KERNEL32.dll
 0000:fff3e000       .debug$S                   00400000     kernel32:KERNEL32.dll
 0000:fff3e000       .debug$S                   00400000     kernel32:KERNEL32.dll
 0000:fff3e000       .debug$S                   00400000     kernel32:KERNEL32.dll
 0000:fff3e000       .debug$S                   00400000     kernel32:KERNEL32.dll
 0000:fff3e000       .debug$S                   00400000     kernel32:KERNEL32.dll
 0000:fff3e000       .debug$S                   00400000     kernel32:KERNEL32.dll
 0000:fff3e000       .debug$S                   00400000     kernel32:KERNEL32.dll
 0000:fff3e000       .debug$S                   00400000     kernel32:KERNEL32.dll
 0000:fff3e000       .debug$S                   00400000     kernel32:KERNEL32.dll
 0000:fff3e000       .debug$S                   00400000     kernel32:KERNEL32.dll
 0000:fff3e000       .debug$S                   00400000     kernel32:KERNEL32.dll
 0000:fff3e000       .debug$S                   00400000     kernel32:KERNEL32.dll
 0000:fff3e000       .debug$S                   00400000     kernel32:KERNEL32.dll
 0000:fff3e000       .debug$S                   00400000     kernel32:KERNEL32.dll
 0000:fff3e000       .debug$S                   00400000     kernel32:KERNEL32.dll
 0000:fff3e000       .debug$S                   00400000     kernel32:KERNEL32.dll
 0000:fff3e000       .debug$S                   00400000     kernel32:KERNEL32.dll
 0000:fff3e000       .debug$S                   00400000     kernel32:KERNEL32.dll
 0000:fff3e000       .debug$S                   00400000     kernel32:KERNEL32.dll
 0000:fff3e000       .debug$S                   00400000     kernel32:KERNEL32.dll
 0000:fff3e000       .debug$S                   00400000     kernel32:KERNEL32.dll
 0000:fff3e000       .debug$S                   00400000     kernel32:KERNEL32.dll
 0000:fff3e000       .debug$S                   00400000     kernel32:KERNEL32.dll
 0000:fff3e000       .debug$S                   00400000     kernel32:KERNEL32.dll
 0000:fff3e000       .debug$S                   00400000     kernel32:KERNEL32.dll
 0000:fff3e000       .debug$S                   00400000     kernel32:KERNEL32.dll
 0000:fff3e000       .debug$S                   00400000     kernel32:KERNEL32.dll
 0000:fff3e000       .debug$S                   00400000     kernel32:KERNEL32.dll
 0000:fff3e000       .debug$S                   00400000     kernel32:KERNEL32.dll
 0000:fff3e000       .debug$S                   00400000     kernel32:KERNEL32.dll
 0000:fff3e000       .debug$S                   00400000     kernel32:KERNEL32.dll
 0000:fff3e000       .debug$S                   00400000     kernel32:KERNEL32.dll
 0000:fff3e000       .debug$S                   00400000     kernel32:KERNEL32.dll
 0000:fff3e000       .debug$S                   00400000     kernel32:KERNEL32.dll
 0000:fff3e000       .debug$S                   00400000     kernel32:KERNEL32.dll
 0000:fff3e000       .debug$S                   00400000     kernel32:KERNEL32.dll
 0000:fff3e000       .debug$S                   00400000     kernel32:KERNEL32.dll
 0000:fff3e000       .debug$S                   00400000     kernel32:KERNEL32.dll
 0000:fff3e000       .debug$S                   00400000     kernel32:KERNEL32.dll
 0000:fff3e000       .debug$S                   00400000     kernel32:KERNEL32.dll
 0000:fff3e000       .debug$S                   00400000     kernel32:KERNEL32.dll
 0000:fff3e000       .debug$S                   00400000     kernel32:KERNEL32.dll
 0000:fff3e000       .debug$S                   00400000     kernel32:KERNEL32.dll
 0000:fff3e000       .debug$S                   00400000     kernel32:KERNEL32.dll
 0000:fff3e000       .debug$S                   00400000     kernel32:KERNEL32.dll
 0000:fff3e000       .debug$S                   00400000     kernel32:KERNEL32.dll
 0000:fff3e000       .debug$S                   00400000     kernel32:KERNEL32.dll
 0000:fff3e000       .debug$S                   00400000     kernel32:KERNEL32.dll
 0000:fff3e000       .debug$S                   00400000     kernel32:KERNEL32.dll
 0000:fff3e000       .debug$S                   00400000     kernel32:KERNEL32.dll
 0000:fff3e000       .debug$S                   00400000     kernel32:KERNEL32.dll
 0000:fff3e000       .debug$S                   00400000     kernel32:KERNEL32.dll
 0000:fff3e000       .debug$S                   00400000     kernel32:KERNEL32.dll
 0000:fff3e000       .debug$S                   00400000     kernel32:KERNEL32.dll
 0000:fff3e000       .debug$S                   00400000     kernel32:KERNEL32.dll
 0000:fff3e000       .debug$S                   00400000     kernel32:KERNEL32.dll
 0000:fff3e000       .debug$S                   00400000     kernel32:KERNEL32.dll
 0000:fff3e000       .debug$S                   00400000     kernel32:KERNEL32.dll
 0000:fff3e000       .debug$S                   00400000     kernel32:KERNEL32.dll
 0000:fff3e000       .debug$S                   00400000     kernel32:KERNEL32.dll
 0000:fff3e000       .debug$S                   00400000     kernel32:KERNEL32.dll
 0000:fff3e000       .debug$S                   00400000     kernel32:KERNEL32.dll
 0000:fff3e000       .debug$S                   00400000     kernel32:KERNEL32.dll
 0000:fff3e000       .debug$S                   00400000     kernel32:KERNEL32.dll
 0000:fff3e000       .debug$S                   00400000     kernel32:KERNEL32.dll
 0000:fff3e000       .debug$S                   00400000     kernel32:KERNEL32.dll
 0000:fff3e000       .debug$S                   00400000     kernel32:KERNEL32.dll
 0000:fff3e000       .debug$S                   00400000     kernel32:KERNEL32.dll
 0000:fff3e000       .debug$S                   00400000     kernel32:KERNEL32.dll
 0000:fff3e000       .debug$S                   00400000     kernel32:KERNEL32.dll
 0000:fff3e000       .debug$S                   00400000     kernel32:KERNEL32.dll
 0000:fff3e000       .debug$S                   00400000     kernel32:KERNEL32.dll
 0000:fff3e000       .debug$S                   00400000     kernel32:KERNEL32.dll
 0000:fff3e000       .debug$S                   00400000     kernel32:KERNEL32.dll
 0000:fff3e000       .debug$S                   00400000     kernel32:KERNEL32.dll
 0000:fff3e000       .debug$S                   00400000     kernel32:KERNEL32.dll
 0000:fff3e000       .debug$S                   00400000     kernel32:KERNEL32.dll
 0000:fff3e000       .debug$S                   00400000     kernel32:KERNEL32.dll
 0000:fff3e000       .debug$S                   00400000     kernel32:KERNEL32.dll
 0000:fff3e000       .debug$S                   00400000     kernel32:KERNEL32.dll
 0000:fff3e000       .debug$S                   00400000     kernel32:KERNEL32.dll
 0000:fff3e000       .debug$S                   00400000     kernel32:KERNEL32.dll
 0000:fff3e000       .debug$S                   00400000     kernel32:KERNEL32.dll
 0000:fff3e000       .debug$S                   00400000     kernel32:KERNEL32.dll
 0000:fff3e000       .debug$S                   00400000     kernel32:KERNEL32.dll
 0000:fff3e000       .debug$S                   00400000     kernel32:KERNEL32.dll
 0000:fff3e000       .debug$S                   00400000     kernel32:KERNEL32.dll
 0000:fff3e000       .debug$S                   00400000     kernel32:KERNEL32.dll
 0000:fff3e000       .debug$S                   00400000     kernel32:KERNEL32.dll
 0000:fff3e000       .debug$S                   00400000     kernel32:KERNEL32.dll
 0000:fff3e000       .debug$S                   00400000     kernel32:KERNEL32.dll
 0000:fff3e000       .debug$S                   00400000     kernel32:KERNEL32.dll
 0000:fff3e000       .debug$S                   00400000     kernel32:KERNEL32.dll
 0000:fff3e000       .debug$S                   00400000     kernel32:KERNEL32.dll
 0000:fff3e000       .debug$S                   00400000     kernel32:KERNEL32.dll
 0000:fff3e000       .debug$S                   00400000     kernel32:KERNEL32.dll
 0000:fff3e000       .debug$S                   00400000     kernel32:KERNEL32.dll
 0000:fff3e000       .debug$S                   00400000     kernel32:KERNEL32.dll
 0000:fff3e000       .debug$S                   00400000     kernel32:KERNEL32.dll
 0000:fff3e000       .debug$S                   00400000     kernel32:KERNEL32.dll
 0000:fff3e000       .debug$S                   00400000     kernel32:KERNEL32.dll
 0000:fff3e000       .debug$S                   00400000     kernel32:KERNEL32.dll
 0000:fff3e000       .debug$S                   00400000     kernel32:KERNEL32.dll
 0000:fff3e000       .debug$S                   00400000     kernel32:KERNEL32.dll
 0000:fff3e000       .debug$S                   00400000     kernel32:KERNEL32.dll
 0000:fff3e000       .debug$S                   00400000     kernel32:KERNEL32.dll
 0000:fff3e000       .debug$S                   00400000     kernel32:KERNEL32.dll
 0000:fff3e000       .debug$S                   00400000     kernel32:KERNEL32.dll
 0000:fff3e000       .debug$S                   00400000     kernel32:KERNEL32.dll
 0000:fff3e000       .debug$S                   00400000     kernel32:KERNEL32.dll
 0000:fff3e000       .debug$S                   00400000     kernel32:KERNEL32.dll
 0000:fff3e000       .debug$S                   00400000     kernel32:KERNEL32.dll
 0000:fff3e000       .debug$S                   00400000     kernel32:KERNEL32.dll
 0000:fff3e000       .debug$S                   00400000     kernel32:KERNEL32.dll
 0000:fff3e000       .debug$S                   00400000     kernel32:KERNEL32.dll
 0001:00000960       _enet_peer_remove_incoming_commands.isra.0 00401960 f   enet:peer.o
 0001:00002070       _enet_protocol_remove_sent_reliable_command 00403070 f   enet:protocol.o
 0001:00002210       _enet_protocol_dispatch_incoming_commands 00403210 f   enet:protocol.o
 0001:00002330       _enet_protocol_notify_disconnect 00403330 f   enet:protocol.o
 0001:000023c0       _enet_protocol_send_outgoing_commands 004033c0 f   enet:protocol.o
 0001:00005750       ??__Ecli_user_ids@@YAXXZ   00406750 f   encryption.obj
 0001:00005760       ??__Ecli_user_ids@@YAXXZ   00406760 f   GameAPI.obj
 0001:00005770       ??__Ecli_user_ids@@YAXXZ   00406770 f   netutil.obj
 0001:00005780       ??__Ecli_user_ids@@YAXXZ   00406780 f   server.obj
 0001:00005790       ??__Emapfilenames@@YAXXZ   00406790 f   server.obj
 0001:000057a0       ??__Eserverconfigs@@YAXXZ  004067a0 f   server.obj
 0001:000057b0       ??__E__sdummy_use_hx_modeinfo@@YAXXZ 004067b0 f   server.obj
 0001:000057e0       ??__Evitas@@YAXXZ          004067e0 f   server.obj
 0001:00005810       ??__Ecursgame@@YAXXZ       00406810 f   server.obj
 0001:00005820       ??__Eservermaps@@YAXXZ     00406820 f   server.obj
 0001:00005830       ??__Egamesuggestions@@YAXXZ 00406830 f   server.obj
 0001:00005840       ??__Eserverparameters@@YAXXZ 00406840 f   server.obj
 0001:00005890       ??__Escl@@YAXXZ            00406890 f   server.obj
 0001:000058a0       ??__Emaprot@@YAXXZ         004068a0 f   server.obj
 0001:00005930       ??__Eipblacklist@@YAXXZ    00406930 f   server.obj
 0001:000059a0       ??__Egeoiplist@@YAXXZ      004069a0 f   server.obj
 0001:00005a10       ??__Enickblacklist@@YAXXZ  00406a10 f   server.obj
 0001:00005b00       ??__Eforbiddenlist@@YAXXZ  00406b00 f   server.obj
 0001:00005b50       ??__Epasswords@@YAXXZ      00406b50 f   server.obj
 0001:00005bb0       ??__Eserverinfoinfo@@YAXXZ 00406bb0 f   server.obj
 0001:00005c20       ??__Eserverinfomotd@@YAXXZ 00406c20 f   server.obj
 0001:00005c90       ??__Eclients@@YAXXZ        00406c90 f   server.obj
 0001:00005ca0       ??__Eworldstates@@YAXXZ    00406ca0 f   server.obj
 0001:00005cb0       ??__Esavedscores@@YAXXZ    00406cb0 f   server.obj
 0001:00005cc0       ??__Ebans@@YAXXZ           00406cc0 f   server.obj
 0001:00005cd0       ??__Edumpmaprot@@YAXXZ     00406cd0 f   server.obj
 0001:00005da0       ??__Edumpparameters@@YAXXZ 00406da0 f   server.obj
 0001:00005e70       ??__Evitamaxage@@YAXXZ     00406e70 f   server.obj
 0001:00005f20       ??__Egamepenalty_cutoff@@YAXXZ 00406f20 f   server.obj
 0001:00005fd0       ??__Egamepenalty_random@@YAXXZ 00406fd0 f   server.obj
 0001:00006080       ??__Emappenalty_cutoff@@YAXXZ 00407080 f   server.obj
 0001:00006130       ??__Emappenalty_weight@@YAXXZ 00407130 f   server.obj
 0001:000061e0       ??__Emodepenalty_weight@@YAXXZ 004071e0 f   server.obj
 0001:00006290       ??__Edumpsuggestions@@YAXXZ 00407290 f   server.obj
 0001:00006360       ??__Edemo_max_number@@YAXXZ 00407360 f   server.obj
 0001:00006410       ??__Edemo_save@@YAXXZ      00407410 f   server.obj
 0001:000064e0       ??__E__sdummy_demo_path@@YAXXZ 004074e0 f   server.obj
 0001:00006510       ??__E__sdummy_demo_filenameformat@@YAXXZ 00407510 f   server.obj
 0001:00006540       ??__E__sdummy_demo_timestampformat@@YAXXZ 00407540 f   server.obj
 0001:00006570       ??__Edemo_debug@@YAXXZ     00407570 f   server.obj
 0001:00006640       ??__Edemos@@YAXXZ          00407640 f   server.obj
 0001:000066c0       ??__Esem_demoworkerthread@@YAXXZ 004076c0 f   server.obj
 0001:000066f0       ??__Esdistrib@@YAXXZ       004076f0 f   server.obj
 0001:00006700       ??__Eshuffle@@YAXXZ        00407700 f   server.obj
 0001:00006710       ??__Egbans@@YAXXZ          00407710 f   server.obj
 0001:00006720       ??__Eservinfoauth_deferred@@YAXXZ 00407720 f   server.obj
 0001:00006750       ??__Eauth_verify_ip@@YAXXZ 00407750 f   server.obj
 0001:00006820       ??__Emandatory_auth@@YAXXZ 00407820 f   server.obj
 0001:000068f0       ??__Elogthreshold_console@@YAXXZ 004078f0 f   server.obj
 0001:000069c0       ??__Elogthreshold_syslog@@YAXXZ 004079c0 f   server.obj
 0001:00006a90       ??__Elogthreshold_file@@YAXXZ 00407a90 f   server.obj
 0001:00006b60       ??__Estat_mainlog_peaklevel@@YAXXZ 00407b60 f   server.obj
 0001:00006c10       ??__Estat_theadlog_peaklevel@@YAXXZ 00407c10 f   server.obj
 0001:00006cc0       ??__Ecli_user_ids@@YAXXZ   00407cc0 f   serverms.obj
 0001:00006cd0       ??__Emasterout@@YAXXZ      00407cd0 f   serverms.obj
 0001:00006ce0       ??__Emasterin@@YAXXZ       00407ce0 f   serverms.obj
 0001:00006cf0       ??__Ecli_user_ids@@YAXXZ   00407cf0 f   crypto.obj
 0001:00006d00       ??__Ecerts@@YAXXZ          00407d00 f   crypto.obj
 0001:00006d10       ??__Ecertblacklist@@YAXXZ  00407d10 f   crypto.obj
 0001:00006d40       ??__Ecli_user_ids@@YAXXZ   00407d40 f   log.obj
 0001:00006d50       ??__Ethreadlogsem@@YAXXZ   00407d50 f   log.obj
 0001:00006d80       ??__Ethreadlogfullsem@@YAXXZ 00407d80 f   log.obj
 0001:00006db0       ??__Emainlogsem@@YAXXZ     00407db0 f   log.obj
 0001:00006de0       ??__Ecli_user_ids@@YAXXZ   00407de0 f   stream.obj
 0001:00006df0       ??__Epackagedirs@@YAXXZ    00407df0 f   stream.obj
 0001:00006e00       ??__Ecli_user_ids@@YAXXZ   00407e00 f   tools.obj
 0001:00006e10       ??__Eoldthreads@@YAXXZ     00407e10 f   tools.obj
 0001:00006e20       ??__Esem_oldthreads@@YAXXZ 00407e20 f   tools.obj
 0001:00006e50       ??__Emainthreadid@@YAXXZ   00407e50 f   tools.obj
 0001:00006e60       ??__Ecli_user_ids@@YAXXZ   00407e60 f   wizard.obj
 0001:00006e70       ??__Ecli_user_ids@@YAXXZ   00407e70 f   protocol1.obj
 0001:00006e80       ??__Egzbuf@@YAXXZ          00407e80 f   protocol1.obj
 0001:00006e8c       ??__Einitlocks@std@@YAXXZ  00407e8c f   libcpmt:xlock.obj
 0001:00006ea2       ??__E_Fac_tidy_reg@std@@YAXXZ 00407ea2 f   libcpmt:locale0.obj
 0001:00006eae       ??__Eclassic_locale@std@@YAXXZ 00407eae f   libcpmt:locale0.obj
 0001:00006eba       ??__Einit_atexit@@YAXXZ    00407eba f   libcpmt:iosptrs.obj
 0001:00006ec6       ??__Einitlocks@std@@YAXXZ  00407ec6 f   libcpmt:iosptrs.obj
 0001:00007c78       $LN33                      00408c78     server.obj
 0001:00008a1c       $LN190                     00409a1c     server.obj
 0001:00008ab4       $LN189                     00409ab4     server.obj
 0001:0000e9f0       _initialize_environment    0040f9f0 f i libucrt:initialization.obj
 0001:0000e9f0       _initialize_global_state_isolation 0040f9f0 f i libucrt:initialization.obj
 0001:0000e9f0       _report_memory_leaks       0040f9f0 f i libucrt:initialization.obj
 0001:0000e9f0       _uninitialize_c            0040f9f0 f i libucrt:initialization.obj
 0001:0000e9f0       _uninitialize_global_state_isolation 0040f9f0 f i libucrt:initialization.obj
 0001:0000fe2c       __catch$??$?6U?$char_traits@D@std@@@std@@YAAAV?$basic_ostream@DU?$char_traits@D@std@@@0@AAV10@PBD@Z$0 00410e2c f i server.obj
 0001:00011241       __catch$??6?$basic_ostream@DU?$char_traits@D@std@@@std@@QAEAAV01@H@Z$0 00412241 f i server.obj
 0001:000112e0       _no_op_initialize          004122e0 f i libucrt:wsetlocale.obj
 0001:00011afd       __catch$??$_Insert_string@DU?$char_traits@D@std@@I@std@@YAAAV?$basic_ostream@DU?$char_traits@D@std@@@0@AAV10@QBDI@Z$0 00412afd f i server.obj
 0001:00013c2e       __catch$?flush@?$basic_ostream@DU?$char_traits@D@std@@@std@@QAEAAV12@XZ$0 00414c2e f i server.obj
 0001:00013d3c       __catch$?_Osfx@?$basic_ostream@DU?$char_traits@D@std@@@std@@QAEXXZ$0 00414d3c f i server.obj
 0001:000154d0       ??$_Build_scalar_table_no_check@E@_Bitmap_impl@_Find_meow_of@?A0x8417fefe@@YAXQBXIAAY0BAA@_N@Z 004164d0 f   libcpmt:vector_algorithms.obj
 0001:00015500       ??$_Dispatch_pos@E$00@_Last_of@_Find_meow_of@?A0x8417fefe@@YGIQBXI0I@Z 00416500 f   libcpmt:vector_algorithms.obj
 0001:00015730       ??$_Dispatch_pos_sse_1_2@E$00@_First_of@_Find_meow_of@?A0x8417fefe@@YAIQBXI0I@Z 00416730 f   libcpmt:vector_algorithms.obj
 0001:00015900       ??$_Find_impl@U_Find_traits_1@_Finding@?A0x8417fefe@@$0A@E@_Finding@?A0x8417fefe@@YGPBXPBXQBXE@Z 00416900 f   libcpmt:vector_algorithms.obj
 0001:00015a00       ??$_Impl@E$00@_Last_of@_Find_meow_of@?A0x8417fefe@@YAIQBXI0I@Z 00416a00 f   libcpmt:vector_algorithms.obj
 0001:00015c50       ??$_Impl_pcmpestri@E$00@_First_of@_Find_meow_of@?A0x8417fefe@@YAPBXPBXIQBXI@Z 00416c50 f   libcpmt:vector_algorithms.obj
 0001:00015e20       ??$_Make_bitmap@E@_Bitmap_details@_Find_meow_of@?A0x8417fefe@@YA?AT__m256i@@QBEI@Z 00416e20 f   libcpmt:vector_algorithms.obj
 0001:00015f90       ??$_Pick_strategy@E@_Bitmap_impl@_Find_meow_of@?A0x8417fefe@@YA?AW4_Strategy@012@II_N@Z 00416f90 f   libcpmt:vector_algorithms.obj
 0001:00016040       ??R<lambda_1>@?BC@???$_Impl_pcmpestri@E$00@_First_of@_Find_meow_of@?A0x8417fefe@@YAPBXPBXIQBXI@Z@QBE@T__m128i@@HH@Z 00417040 f   libcpmt:vector_algorithms.obj
 0001:000160c0       ??R<lambda_1>@?BH@???$_Impl@E$00@_Last_of@_Find_meow_of@?A0x8417fefe@@YAIQBXI0I@Z@QBE@T__m128i@@H@Z 004170c0 f   libcpmt:vector_algorithms.obj
 0001:000165c0       _tidy_global               004175c0 f   libcpmt:locale0.obj
 0001:00016cda       ?find_pe_section@@YAPAU_IMAGE_SECTION_HEADER@@QAEI@Z 00417cda f   LIBCMT:utility.obj
 0001:00017035       ?pre_c_initialization@@YAHXZ 00418035 f   LIBCMT:exe_main.obj
 0001:000170e0       ?post_pgo_initialization@@YAHXZ 004180e0 f   LIBCMT:exe_main.obj
 0001:000170e8       ?pre_cpp_initialization@@YAXXZ 004180e8 f   LIBCMT:exe_main.obj
 0001:000170fa       ?__scrt_common_main_seh@@YAHXZ 004180fa f   LIBCMT:exe_main.obj
 0001:00017620       $$000000                   00418620     LIBCMT:alloca16.obj
 0001:00017636       alloca_8                   00418636     LIBCMT:alloca16.obj
 0001:00017650       $$000000                   00418650     LIBCMT:llmul.obj
 0001:00017669       hard                       00418669     LIBCMT:llmul.obj
 0001:00017690       $$000000                   00418690     LIBCMT:ulldiv.obj
 0001:000176b2       L1                         004186b2     LIBCMT:ulldiv.obj
 0001:000176c0       L3                         004186c0     LIBCMT:ulldiv.obj
 0001:000176ee       L4                         004186ee     LIBCMT:ulldiv.obj
 0001:000176ef       L5                         004186ef     LIBCMT:ulldiv.obj
 0001:000176f3       L2                         004186f3     LIBCMT:ulldiv.obj
 0001:00017734       ?is_managed_app@@YA_NXZ    00418734 f   libucrt:exit.obj
 0001:000177f0       $$000000                   004187f0     LIBCMT:sehprolg4.obj
 0001:00017835       ___get_entropy             00418835 f   LIBCMT:gs_support.obj
 0001:00017990       $$000000                   00418990     LIBCMT:chkstk.obj
 0001:000179a4       cs10                       004189a4     LIBCMT:chkstk.obj
 0001:000179b2       cs20                       004189b2     LIBCMT:chkstk.obj
 0001:00017a40       _ValidateLocalCookies      00418a40 f   libvcruntime:chandler4.obj
 0001:00017c10       $$000000                   00418c10     libvcruntime:strstr.obj
 0001:00017c53       strstr_sse_safeloop        00418c53     libvcruntime:strstr.obj
 0001:00017c7a       strstr_sse_search          00418c7a     libvcruntime:strstr.obj
 0001:00017c7a       strstr_sse_unsafe          00418c7a     libvcruntime:strstr.obj
 0001:00017c7e       strstr_sse_srchloop        00418c7e     libvcruntime:strstr.obj
 0001:00017cb4       strstr_sse_srchchar        00418cb4     libvcruntime:strstr.obj
 0001:00017ccb       strstr_sse_cmploop         00418ccb     libvcruntime:strstr.obj
 0001:00017d06       strstr_sse_cmpchars        00418d06     libvcruntime:strstr.obj
 0001:00017d0d       strstr_sse_cmpunsafe       00418d0d     libvcruntime:strstr.obj
 0001:00017d24       strstr_sse_match           00418d24     libvcruntime:strstr.obj
 0001:00017d29       strstr_sse_not_found       00418d29     libvcruntime:strstr.obj
 0001:00017d2b       strstr_sse_exit            00418d2b     libvcruntime:strstr.obj
 0001:00017d2f       strstr_sttni               00418d2f     libvcruntime:strstr.obj
 0001:00017d4b       strstr_sttni_setchars      00418d4b     libvcruntime:strstr.obj
 0001:00017d50       strstr_sttni_setloopchar   00418d50     libvcruntime:strstr.obj
 0001:00017d56       strstr_sttni_setloopnochar 00418d56     libvcruntime:strstr.obj
 0001:00017d6a       strstr_sttni_srchnext      00418d6a     libvcruntime:strstr.obj
 0001:00017d6d       strstr_sttni_srch          00418d6d     libvcruntime:strstr.obj
 0001:00017d71       strstr_sttni_srchloop      00418d71     libvcruntime:strstr.obj
 0001:00017d90       strstr_sttni_srchxmm       00418d90     libvcruntime:strstr.obj
 0001:00017da3       strstr_sttni_srchcheck     00418da3     libvcruntime:strstr.obj
 0001:00017da7       strstr_sttni_cmploop       00418da7     libvcruntime:strstr.obj
 0001:00017ddf       strstr_sttni_cmpchar       00418ddf     libvcruntime:strstr.obj
 0001:00017dfa       strstr_no_sse              00418dfa     libvcruntime:strstr.obj
 0001:00017e0d       findnext                   00418e0d     libvcruntime:strstr.obj
 0001:00017e20       loop_start                 00418e20     libvcruntime:strstr.obj
 0001:00017e25       in_loop                    00418e25     libvcruntime:strstr.obj
 0001:00017e2d       not_found                  00418e2d     libvcruntime:strstr.obj
 0001:00017e33       first_char_found           00418e33     libvcruntime:strstr.obj
 0001:00017e3c       two_first_chars_equal      00418e3c     libvcruntime:strstr.obj
 0001:00017e3f       compare_loop               00418e3f     libvcruntime:strstr.obj
 0001:00017e62       strchr_call                00418e62     libvcruntime:strstr.obj
 0001:00017e6e       match                      00418e6e     libvcruntime:strstr.obj
 0001:00017e75       empty_str2                 00418e75     libvcruntime:strstr.obj
 0001:00017e80       $$000000                   00418e80     libvcruntime:strchr.obj
 0001:00017eb3       strchr_sse_loop            00418eb3     libvcruntime:strchr.obj
 0001:00017ed7       strchr_sse_break           00418ed7     libvcruntime:strchr.obj
 0001:00017ee8       strchr_no_sse2             00418ee8     libvcruntime:strchr.obj
 0001:00017f00       str_misaligned             00418f00     libvcruntime:strchr.obj
 0001:00017f15       main_loop_start            00418f15     libvcruntime:strchr.obj
 0001:00017f20       main_loop                  00418f20     libvcruntime:strchr.obj
 0001:00017f5c       retnull                    00418f5c     libvcruntime:strchr.obj
 0001:00017f5e       retnull_bx                 00418f5e     libvcruntime:strchr.obj
 0001:00017f62       found_bx                   00418f62     libvcruntime:strchr.obj
 0001:00017f67       chr_is_found               00418f67     libvcruntime:strchr.obj
 0001:00017f8f       byte_3                     00418f8f     libvcruntime:strchr.obj
 0001:00017f96       byte_2                     00418f96     libvcruntime:strchr.obj
 0001:00017f9d       byte_1                     00418f9d     libvcruntime:strchr.obj
 0001:00017fa4       byte_0                     00418fa4     libvcruntime:strchr.obj
 0001:00017fb0       $$000000                   00418fb0     libvcruntime:strrchr.obj
 0001:00017fed       strrchr_sse_loop           00418fed     libvcruntime:strrchr.obj
 0001:0001801d       strrchr_sse_break          0041901d     libvcruntime:strrchr.obj
 0001:0001803d       strrchr_sttni              0041903d     libvcruntime:strrchr.obj
 0001:0001804f       strrchr_sttni_chars        0041904f     libvcruntime:strrchr.obj
 0001:00018064       strrchr_sttni_aligned      00419064     libvcruntime:strrchr.obj
 0001:00018068       strrchr_sttni_xmm          00419068     libvcruntime:strrchr.obj
 0001:0001807b       exit                       0041907b     libvcruntime:strrchr.obj
 0001:0001807e       strrchr_zero               0041907e     libvcruntime:strrchr.obj
 0001:000180a3       strchr_zero_loop           004190a3     libvcruntime:strrchr.obj
 0001:000180b7       strchr_zero_result         004190b7     libvcruntime:strrchr.obj
 0001:000180be       strrchr_no_sse             004190be     libvcruntime:strrchr.obj
 0001:000180e1       returndi                   004190e1     libvcruntime:strrchr.obj
 0001:000180e3       toend                      004190e3     libvcruntime:strrchr.obj
 0001:000180f0       $$000000                   004190f0     libvcruntime:memset.obj
 0001:00018135       XMMMov                     00419135     libvcruntime:memset.obj
 0001:00018170       LargeRangeBytes            00419170     libvcruntime:memset.obj
 0001:000181ad       XmmMovSmall                004191ad     libvcruntime:memset.obj
 0001:000181c0       XmmSmallLoop               004191c0     libvcruntime:memset.obj
 0001:000181c5       MidRangeBytes              004191c5     libvcruntime:memset.obj
 0001:000181e1       XMMTrailingBytes           004191e1     libvcruntime:memset.obj
 0001:000181f5       SmallMov                   004191f5     libvcruntime:memset.obj
 0001:000181fd       ByteLoop                   004191fd     libvcruntime:memset.obj
 0001:0001820b       DwordTest                  0041920b     libvcruntime:memset.obj
 0001:0001821b       QwordTest                  0041921b     libvcruntime:memset.obj
 0001:00018230       QwordLoop                  00419230     libvcruntime:memset.obj
 0001:00018243       toend                      00419243     libvcruntime:memset.obj
 0001:00018250       $$000000                   00419250     libvcruntime:memcpy.obj
 0001:00018250       $$000000                   00419250     libvcruntime:memmove.obj
 0001:00018270       CopyUp                     00419270     libvcruntime:memcpy.obj
 0001:00018270       CopyUp                     00419270     libvcruntime:memmove.obj
 0001:00018294       CopyUpLargeMov             00419294     libvcruntime:memcpy.obj
 0001:00018294       CopyUpLargeMov             00419294     libvcruntime:memmove.obj
 0001:000182a7       CopyUpSSE2Check            004192a7     libvcruntime:memcpy.obj
 0001:000182a7       CopyUpSSE2Check            004192a7     libvcruntime:memmove.obj
 0001:000182c0       AtomChk                    004192c0     libvcruntime:memcpy.obj
 0001:000182c0       AtomChk                    004192c0     libvcruntime:memmove.obj
 0001:000182e6       PalignHead4                004192e6     libvcruntime:memcpy.obj
 0001:000182e6       PalignHead4                004192e6     libvcruntime:memmove.obj
 0001:000182f9       PalignHead8                004192f9     libvcruntime:memcpy.obj
 0001:000182f9       PalignHead8                004192f9     libvcruntime:memmove.obj
 0001:00018310       PalignLoop                 00419310     libvcruntime:memcpy.obj
 0001:00018310       PalignLoop                 00419310     libvcruntime:memmove.obj
 0001:00018322       MovPalign12                00419322     libvcruntime:memcpy.obj
 0001:00018322       MovPalign12                00419322     libvcruntime:memmove.obj
 0001:0001832c       PalignLoop12               0041932c     libvcruntime:memcpy.obj
 0001:0001832c       PalignLoop12               0041932c     libvcruntime:memmove.obj
 0001:0001837d       MovPalign8                 0041937d     libvcruntime:memcpy.obj
 0001:0001837d       MovPalign8                 0041937d     libvcruntime:memmove.obj
 0001:00018388       PalignLoop8                00419388     libvcruntime:memcpy.obj
 0001:00018388       PalignLoop8                00419388     libvcruntime:memmove.obj
 0001:000183d6       MovPalign4                 004193d6     libvcruntime:memcpy.obj
 0001:000183d6       MovPalign4                 004193d6     libvcruntime:memmove.obj
 0001:000183e0       PalignLoop4                004193e0     libvcruntime:memcpy.obj
 0001:000183e0       PalignLoop4                004193e0     libvcruntime:memmove.obj
 0001:0001842c       PalignTail                 0041942c     libvcruntime:memcpy.obj
 0001:0001842c       PalignTail                 0041942c     libvcruntime:memmove.obj
 0001:00018444       PalignTail4                00419444     libvcruntime:memcpy.obj
 0001:00018444       PalignTail4                00419444     libvcruntime:memmove.obj
 0001:00018457       PalignTail8                00419457     libvcruntime:memcpy.obj
 0001:00018457       PalignTail8                00419457     libvcruntime:memmove.obj
 0001:0001846e       PalignTailLE3              0041946e     libvcruntime:memcpy.obj
 0001:0001846e       PalignTailLE3              0041946e     libvcruntime:memmove.obj
 0001:00018477       Dword_align                00419477     libvcruntime:memcpy.obj
 0001:00018477       Dword_align                00419477     libvcruntime:memmove.obj
 0001:0001847f       Dword_up_align_loop        0041947f     libvcruntime:memcpy.obj
 0001:0001847f       Dword_up_align_loop        0041947f     libvcruntime:memmove.obj
 0001:00018492       Dword_align_Ok             00419492     libvcruntime:memcpy.obj
 0001:00018492       Dword_align_Ok             00419492     libvcruntime:memmove.obj
 0001:000184ac       ByteCopyUp                 004194ac     libvcruntime:memcpy.obj
 0001:000184ac       ByteCopyUp                 004194ac     libvcruntime:memmove.obj
 0001:000184b4       TrailingUpVec              004194b4     libvcruntime:memcpy.obj
 0001:000184b4       TrailingUpVec              004194b4     libvcruntime:memmove.obj
 0001:000184c4       TrailingUp0                004194c4     libvcruntime:memcpy.obj
 0001:000184c4       TrailingUp0                004194c4     libvcruntime:memmove.obj
 0001:000184cc       TrailingUp1                004194cc     libvcruntime:memcpy.obj
 0001:000184cc       TrailingUp1                004194cc     libvcruntime:memmove.obj
 0001:000184d8       TrailingUp2                004194d8     libvcruntime:memcpy.obj
 0001:000184d8       TrailingUp2                004194d8     libvcruntime:memmove.obj
 0001:000184ec       TrailingUp3                004194ec     libvcruntime:memcpy.obj
 0001:000184ec       TrailingUp3                004194ec     libvcruntime:memmove.obj
 0001:00018504       CopyDown                   00419504     libvcruntime:memcpy.obj
 0001:00018504       CopyDown                   00419504     libvcruntime:memmove.obj
 0001:00018529       CopyDownNotAligned         00419529     libvcruntime:memcpy.obj
 0001:00018529       CopyDownNotAligned         00419529     libvcruntime:memmove.obj
 0001:00018530       CopyDownAlignLoop          00419530     libvcruntime:memcpy.obj
 0001:00018530       CopyDownAlignLoop          00419530     libvcruntime:memmove.obj
 0001:0001853d       CopyDownAligned            0041953d     libvcruntime:memcpy.obj
 0001:0001853d       CopyDownAligned            0041953d     libvcruntime:memmove.obj
 0001:00018560       TrailingDownVec            00419560     libvcruntime:memcpy.obj
 0001:00018560       TrailingDownVec            00419560     libvcruntime:memmove.obj
 0001:00018570       TrailingDown0              00419570     libvcruntime:memcpy.obj
 0001:00018570       TrailingDown0              00419570     libvcruntime:memmove.obj
 0001:00018578       TrailingDown1              00419578     libvcruntime:memcpy.obj
 0001:00018578       TrailingDown1              00419578     libvcruntime:memmove.obj
 0001:00018588       TrailingDown2              00419588     libvcruntime:memcpy.obj
 0001:00018588       TrailingDown2              00419588     libvcruntime:memmove.obj
 0001:0001859c       TrailingDown3              0041959c     libvcruntime:memcpy.obj
 0001:0001859c       TrailingDown3              0041959c     libvcruntime:memmove.obj
 0001:000185b5       XmmMovLargeAlignTest       004195b5     libvcruntime:memcpy.obj
 0001:000185b5       XmmMovLargeAlignTest       004195b5     libvcruntime:memmove.obj
 0001:000185bd       XmmMovAlignLoop            004195bd     libvcruntime:memcpy.obj
 0001:000185bd       XmmMovAlignLoop            004195bd     libvcruntime:memmove.obj
 0001:000185cc       XmmMovLargeLoop            004195cc     libvcruntime:memcpy.obj
 0001:000185cc       XmmMovLargeLoop            004195cc     libvcruntime:memmove.obj
 0001:0001863c       XmmMovSmallTest            0041963c     libvcruntime:memcpy.obj
 0001:0001863c       XmmMovSmallTest            0041963c     libvcruntime:memmove.obj
 0001:00018641       XmmMovSmallLoop            00419641     libvcruntime:memcpy.obj
 0001:00018641       XmmMovSmallLoop            00419641     libvcruntime:memmove.obj
 0001:00018664       CopyDownSmall              00419664     libvcruntime:memcpy.obj
 0001:00018664       CopyDownSmall              00419664     libvcruntime:memmove.obj
 0001:0001866c       CopyDownDwordLoop          0041966c     libvcruntime:memcpy.obj
 0001:0001866c       CopyDownDwordLoop          0041966c     libvcruntime:memmove.obj
 0001:00018681       CopyDownByteTest           00419681     libvcruntime:memcpy.obj
 0001:00018681       CopyDownByteTest           00419681     libvcruntime:memmove.obj
 0001:00018685       CopyDownByteLoop           00419685     libvcruntime:memcpy.obj
 0001:00018685       CopyDownByteLoop           00419685     libvcruntime:memmove.obj
 0001:00018694       CopyDownReturn             00419694     libvcruntime:memcpy.obj
 0001:00018694       CopyDownReturn             00419694     libvcruntime:memmove.obj
 0001:000186a0       XmmCopy                    004196a0     libvcruntime:memcpy.obj
 0001:000186a0       XmmCopy                    004196a0     libvcruntime:memmove.obj
 0001:000186ad       XmmCopyAligned             004196ad     libvcruntime:memcpy.obj
 0001:000186ad       XmmCopyAligned             004196ad     libvcruntime:memmove.obj
 0001:000186c0       XmmCopyLargeLoop           004196c0     libvcruntime:memcpy.obj
 0001:000186c0       XmmCopyLargeLoop           004196c0     libvcruntime:memmove.obj
 0001:0001871d       XmmCopySmallTest           0041971d     libvcruntime:memcpy.obj
 0001:0001871d       XmmCopySmallTest           0041971d     libvcruntime:memmove.obj
 0001:00018730       XmmCopySmallLoop           00419730     libvcruntime:memcpy.obj
 0001:00018730       XmmCopySmallLoop           00419730     libvcruntime:memmove.obj
 0001:0001874b       CopyUpDwordMov             0041974b     libvcruntime:memcpy.obj
 0001:0001874b       CopyUpDwordMov             0041974b     libvcruntime:memmove.obj
 0001:00018750       CopyUpDwordTest            00419750     libvcruntime:memcpy.obj
 0001:00018750       CopyUpDwordTest            00419750     libvcruntime:memmove.obj
 0001:00018757       CopyUpDwordLoop            00419757     libvcruntime:memcpy.obj
 0001:00018757       CopyUpDwordLoop            00419757     libvcruntime:memmove.obj
 0001:00018766       CopyUpByteTest             00419766     libvcruntime:memcpy.obj
 0001:00018766       CopyUpByteTest             00419766     libvcruntime:memmove.obj
 0001:0001876d       CopyUpByteLoop             0041976d     libvcruntime:memcpy.obj
 0001:0001876d       CopyUpByteLoop             0041976d     libvcruntime:memmove.obj
 0001:00018780       CopyUpReturn               00419780     libvcruntime:memcpy.obj
 0001:00018780       CopyUpReturn               00419780     libvcruntime:memmove.obj
 0001:00018790       XmmCopyUnaligned           00419790     libvcruntime:memcpy.obj
 0001:00018790       XmmCopyUnaligned           00419790     libvcruntime:memmove.obj
 0001:000187a3       XmmAlignByte               004197a3     libvcruntime:memcpy.obj
 0001:000187a3       XmmAlignByte               004197a3     libvcruntime:memmove.obj
 0001:000187ac       XmmAlignDwordTest          004197ac     libvcruntime:memcpy.obj
 0001:000187ac       XmmAlignDwordTest          004197ac     libvcruntime:memmove.obj
 0001:000187b1       XmmAlignDwordLoop          004197b1     libvcruntime:memcpy.obj
 0001:000187b1       XmmAlignDwordLoop          004197b1     libvcruntime:memmove.obj
 0001:000187be       XmmAlignAdjustCnt          004197be     libvcruntime:memcpy.obj
 0001:000187be       XmmAlignAdjustCnt          004197be     libvcruntime:memmove.obj
 0001:00018840       $$000000                   00419840     libvcruntime:memchr.obj
 0001:0001885b       str_misaligned             0041985b     libvcruntime:memchr.obj
 0001:00018871       main_loop_start            00419871     libvcruntime:memchr.obj
 0001:00018887       return_from_main           00419887     libvcruntime:memchr.obj
 0001:00018888       tail_less_then_4           00419888     libvcruntime:memchr.obj
 0001:0001888d       tail_loop                  0041988d     libvcruntime:memchr.obj
 0001:0001889b       retnull                    0041989b     libvcruntime:memchr.obj
 0001:0001889d       main_loop                  0041989d     libvcruntime:memchr.obj
 0001:000188a2       main_loop_entry            004198a2     libvcruntime:memchr.obj
 0001:000188bd       char_is_found              004198bd     libvcruntime:memchr.obj
 0001:000188d5       byte_3                     004198d5     libvcruntime:memchr.obj
 0001:000188d6       found                      004198d6     libvcruntime:memchr.obj
 0001:000188db       byte_2                     004198db     libvcruntime:memchr.obj
